ARM GAS  C:\Users\theto\AppData\Local\Temp\ccA3ZbEO.s 			page 1


   1              		.cpu cortex-m7
   2              		.arch armv7e-m
   3              		.fpu fpv5-d16
   4              		.eabi_attribute 28, 1
   5              		.eabi_attribute 20, 1
   6              		.eabi_attribute 21, 1
   7              		.eabi_attribute 23, 3
   8              		.eabi_attribute 24, 1
   9              		.eabi_attribute 25, 1
  10              		.eabi_attribute 26, 1
  11              		.eabi_attribute 30, 1
  12              		.eabi_attribute 34, 1
  13              		.eabi_attribute 18, 4
  14              		.file	"main.c"
  15              		.text
  16              	.Ltext0:
  17              		.cfi_sections	.debug_frame
  18              		.section	.text.MX_GPIO_Init,"ax",%progbits
  19              		.align	1
  20              		.syntax unified
  21              		.thumb
  22              		.thumb_func
  24              	MX_GPIO_Init:
  25              	.LFB153:
  26              		.file 1 "Src/main.c"
   1:Src/main.c    **** /* USER CODE BEGIN Header */
   2:Src/main.c    **** /**
   3:Src/main.c    ****   ******************************************************************************
   4:Src/main.c    ****   * @file           : main.c
   5:Src/main.c    ****   * @brief          : Main program body
   6:Src/main.c    ****   ******************************************************************************
   7:Src/main.c    ****   * @attention
   8:Src/main.c    ****   *
   9:Src/main.c    ****   * Copyright (c) 2022 STMicroelectronics.
  10:Src/main.c    ****   * All rights reserved.
  11:Src/main.c    ****   *
  12:Src/main.c    ****   * This software is licensed under terms that can be found in the LICENSE file
  13:Src/main.c    ****   * in the root directory of this software component.
  14:Src/main.c    ****   * If no LICENSE file comes with this software, it is provided AS-IS.
  15:Src/main.c    ****   *
  16:Src/main.c    ****   ******************************************************************************
  17:Src/main.c    ****   */
  18:Src/main.c    **** /* USER CODE END Header */
  19:Src/main.c    **** /* Includes ------------------------------------------------------------------*/
  20:Src/main.c    **** #include "main.h"
  21:Src/main.c    **** #include "string.h"
  22:Src/main.c    **** #include "OV7670.h"
  23:Src/main.c    **** 
  24:Src/main.c    **** /* Private includes ----------------------------------------------------------*/
  25:Src/main.c    **** /* USER CODE BEGIN Includes */
  26:Src/main.c    **** 
  27:Src/main.c    **** /* USER CODE END Includes */
  28:Src/main.c    **** 
  29:Src/main.c    **** /* Private typedef -----------------------------------------------------------*/
  30:Src/main.c    **** /* USER CODE BEGIN PTD */
  31:Src/main.c    **** 
  32:Src/main.c    **** /* USER CODE END PTD */
ARM GAS  C:\Users\theto\AppData\Local\Temp\ccA3ZbEO.s 			page 2


  33:Src/main.c    **** 
  34:Src/main.c    **** /* Private define ------------------------------------------------------------*/
  35:Src/main.c    **** /* USER CODE BEGIN PD */
  36:Src/main.c    **** 
  37:Src/main.c    **** Camera_settings OV7670_settings={
  38:Src/main.c    **** 		QQQVGA, 		//Resolution
  39:Src/main.c    **** 		YUV422, 	//Format
  40:Src/main.c    **** 		NORMAL, 	//Effect
  41:Src/main.c    **** 		ON,			//AEC
  42:Src/main.c    **** 		ON, 		//AGC
  43:Src/main.c    **** 		ON, 		//AWB
  44:Src/main.c    **** 		OFF,		//Color bar
  45:Src/main.c    **** 		OFF,		//vertical flip
  46:Src/main.c    **** 		OFF,		//Horizontal flip
  47:Src/main.c    **** 		OFF,		//Night mode
  48:Src/main.c    **** 		OFF,		//ASC
  49:Src/main.c    **** 		ON,			//De-noise
  50:Src/main.c    **** 		ON,			//Banding filter
  51:Src/main.c    **** 		HISTOGRAM,	//AEC algorithm
  52:Src/main.c    **** 		QUARTER_FPS,//Min. fps in night mode
  53:Src/main.c    **** 		F_AUTO,		//Auto detect banding freq.
  54:Src/main.c    **** 		256, 		//Exposure - 2 bytes
  55:Src/main.c    **** 		4, 			//Gain	[0-7]=[1-128]
  56:Src/main.c    **** 		160,		//Brightness - byte
  57:Src/main.c    **** 		64, 		//Contrast - byte
  58:Src/main.c    **** 		80, 		//Saturation - byte
  59:Src/main.c    **** 		2,			//Sharpness	- [0-31]
  60:Src/main.c    **** 		0,			//De-noise strength - byte
  61:Src/main.c    **** 		x16, 		//Gain ceiling
  62:Src/main.c    **** 		77, 		//R channel gain - byte
  63:Src/main.c    **** 		103, 		//G channel gain - byte
  64:Src/main.c    **** 		153			//B channel gain - byte
  65:Src/main.c    **** };
  66:Src/main.c    **** 
  67:Src/main.c    **** /* USER CODE END PD */
  68:Src/main.c    **** 
  69:Src/main.c    **** /* Private macro -------------------------------------------------------------*/
  70:Src/main.c    **** /* USER CODE BEGIN PM */
  71:Src/main.c    **** #define X_START	12
  72:Src/main.c    **** #define Y_START	32
  73:Src/main.c    **** #define X_MAX	80 //CIF width
  74:Src/main.c    **** #define Y_MAX	60	//CIF height
  75:Src/main.c    **** //-------------------------------------------------
  76:Src/main.c    **** 
  77:Src/main.c    ****  
  78:Src/main.c    **** /* USER CODE END PM */
  79:Src/main.c    **** 
  80:Src/main.c    **** /* Private variables ---------------------------------------------------------*/
  81:Src/main.c    **** #if defined ( __ICCARM__ ) /*!< IAR Compiler */
  82:Src/main.c    **** #pragma location=0x30000000
  83:Src/main.c    **** ETH_DMADescTypeDef  DMARxDscrTab[ETH_RX_DESC_CNT]; /* Ethernet Rx DMA Descriptors */
  84:Src/main.c    **** #pragma location=0x30000200
  85:Src/main.c    **** ETH_DMADescTypeDef  DMATxDscrTab[ETH_TX_DESC_CNT]; /* Ethernet Tx DMA Descriptors */
  86:Src/main.c    **** 
  87:Src/main.c    **** #elif defined ( __CC_ARM )  /* MDK ARM Compiler */
  88:Src/main.c    **** 
  89:Src/main.c    **** __attribute__((at(0x30000000))) ETH_DMADescTypeDef  DMARxDscrTab[ETH_RX_DESC_CNT]; /* Ethernet Rx D
ARM GAS  C:\Users\theto\AppData\Local\Temp\ccA3ZbEO.s 			page 3


  90:Src/main.c    **** __attribute__((at(0x30000200))) ETH_DMADescTypeDef  DMATxDscrTab[ETH_TX_DESC_CNT]; /* Ethernet Tx D
  91:Src/main.c    **** 
  92:Src/main.c    **** #elif defined ( __GNUC__ ) /* GNU Compiler */
  93:Src/main.c    **** ETH_DMADescTypeDef DMARxDscrTab[ETH_RX_DESC_CNT] __attribute__((section(".RxDecripSection"))); /* E
  94:Src/main.c    **** ETH_DMADescTypeDef DMATxDscrTab[ETH_TX_DESC_CNT] __attribute__((section(".TxDecripSection")));   /*
  95:Src/main.c    **** 
  96:Src/main.c    **** #endif
  97:Src/main.c    **** 
  98:Src/main.c    **** ETH_TxPacketConfig TxConfig;
  99:Src/main.c    **** 
 100:Src/main.c    **** DCMI_HandleTypeDef hdcmi;
 101:Src/main.c    **** 
 102:Src/main.c    **** DMA_HandleTypeDef hdma_dcmi;
 103:Src/main.c    **** 
 104:Src/main.c    **** ETH_HandleTypeDef heth;
 105:Src/main.c    **** 
 106:Src/main.c    **** I2C_HandleTypeDef hi2c1;
 107:Src/main.c    **** 
 108:Src/main.c    **** LPTIM_HandleTypeDef hlptim1;
 109:Src/main.c    **** 
 110:Src/main.c    **** UART_HandleTypeDef huart3;
 111:Src/main.c    **** 
 112:Src/main.c    **** PCD_HandleTypeDef hpcd_USB_OTG_FS;
 113:Src/main.c    **** 
 114:Src/main.c    **** /* USER CODE BEGIN PV */
 115:Src/main.c    **** 
 116:Src/main.c    **** /* USER CODE END PV */
 117:Src/main.c    **** 
 118:Src/main.c    **** /* Private function prototypes -----------------------------------------------*/
 119:Src/main.c    **** void SystemClock_Config(void);
 120:Src/main.c    **** static void MX_GPIO_Init(void);
 121:Src/main.c    **** static void MX_DMA_Init(void);
 122:Src/main.c    **** static void MX_USB_OTG_FS_PCD_Init(void);
 123:Src/main.c    **** static void MX_DCMI_Init(void);
 124:Src/main.c    **** static void MX_LPTIM1_Init(void);
 125:Src/main.c    **** static void MX_ETH_Init(void);
 126:Src/main.c    **** static void MX_USART3_UART_Init(void);
 127:Src/main.c    **** static void MX_I2C1_Init(void);
 128:Src/main.c    **** /* USER CODE BEGIN PFP */
 129:Src/main.c    **** 
 130:Src/main.c    **** /* USER CODE END PFP */
 131:Src/main.c    **** 
 132:Src/main.c    **** /* Private user code ---------------------------------------------------------*/
 133:Src/main.c    **** /* USER CODE BEGIN 0 */
 134:Src/main.c    **** 
 135:Src/main.c    **** /* USER CODE END 0 */
 136:Src/main.c    **** 
 137:Src/main.c    **** /**
 138:Src/main.c    ****   * @brief  The application entry point.
 139:Src/main.c    ****   * @retval int
 140:Src/main.c    ****   */
 141:Src/main.c    **** int main(void)
 142:Src/main.c    **** {
 143:Src/main.c    ****   /* USER CODE BEGIN 1 */
 144:Src/main.c    **** 
 145:Src/main.c    ****   /* USER CODE END 1 */
 146:Src/main.c    **** 
ARM GAS  C:\Users\theto\AppData\Local\Temp\ccA3ZbEO.s 			page 4


 147:Src/main.c    ****   /* MCU Configuration--------------------------------------------------------*/
 148:Src/main.c    **** 
 149:Src/main.c    ****   /* Reset of all peripherals, Initializes the Flash interface and the Systick. */
 150:Src/main.c    ****   HAL_Init();
 151:Src/main.c    **** 
 152:Src/main.c    ****   /* USER CODE BEGIN Init */
 153:Src/main.c    **** 
 154:Src/main.c    ****   /* USER CODE END Init */
 155:Src/main.c    **** 
 156:Src/main.c    ****   /* Configure the system clock */
 157:Src/main.c    ****   SystemClock_Config();
 158:Src/main.c    **** 
 159:Src/main.c    ****   /* USER CODE BEGIN SysInit */
 160:Src/main.c    **** 
 161:Src/main.c    ****   /* USER CODE END SysInit */
 162:Src/main.c    **** 
 163:Src/main.c    ****   /* Initialize all configured peripherals */
 164:Src/main.c    ****   MX_GPIO_Init();
 165:Src/main.c    ****   MX_DMA_Init();
 166:Src/main.c    ****   MX_USB_OTG_FS_PCD_Init();
 167:Src/main.c    ****   MX_DCMI_Init();
 168:Src/main.c    ****   MX_LPTIM1_Init();
 169:Src/main.c    ****   MX_ETH_Init();
 170:Src/main.c    ****   MX_USART3_UART_Init();
 171:Src/main.c    ****   MX_I2C1_Init();
 172:Src/main.c    ****   /* USER CODE BEGIN 2 */
 173:Src/main.c    ****   OV7670_Power(DISABLE);
 174:Src/main.c    ****   OV7670_Init(&hdcmi, &hdma_dcmi, &hi2c1, &hlptim1);
 175:Src/main.c    ****   /* USER CODE END 2 */
 176:Src/main.c    **** 
 177:Src/main.c    ****   /* Infinite loop */
 178:Src/main.c    ****   /* USER CODE BEGIN WHILE */
 179:Src/main.c    ****   //char* message = "This_don't_work!\r\n";
 180:Src/main.c    **** 
 181:Src/main.c    ****   uint16_t width;
 182:Src/main.c    ****   uint16_t height;
 183:Src/main.c    ****   uint8_t format;
 184:Src/main.c    ****   uint8_t image_data[X_MAX*(Y_MAX>>1)];	//Max resolution is CIF(352*288)
 185:Src/main.c    **** 
 186:Src/main.c    ****   uint8_t test_data[10] = {48, 49, 50, 51, 52, 53, 54, 55, 56, 57};
 187:Src/main.c    ****   //char* message = "Hello world!\r\n";
 188:Src/main.c    ****   while (1)
 189:Src/main.c    ****   {
 190:Src/main.c    ****     /* USER CODE END WHILE */
 191:Src/main.c    ****     OV7670_PowerUp();
 192:Src/main.c    **** 		OV7670_UpdateSettings(OV7670_settings);
 193:Src/main.c    ****     OV7670_SetFrameRate(XCLK_DIV(1), PLL_x4);
 194:Src/main.c    **** 		HAL_Delay(10);
 195:Src/main.c    **** 
 196:Src/main.c    ****     OV7670_Start(1, (uint32_t *)image_data);
 197:Src/main.c    **** 		OV7670_getImageInfo(&width, &height, &format);
 198:Src/main.c    **** 
 199:Src/main.c    ****     
 200:Src/main.c    ****     HAL_Delay(100);
 201:Src/main.c    **** 
 202:Src/main.c    ****     OV7670_Stop();
 203:Src/main.c    **** 	  OV7670_PowerDown();
ARM GAS  C:\Users\theto\AppData\Local\Temp\ccA3ZbEO.s 			page 5


 204:Src/main.c    **** 
 205:Src/main.c    **** 
 206:Src/main.c    ****     //HAL_UART_Transmit(&huart3, (uint8_t *)message, strlen(message), 100);
 207:Src/main.c    ****     //HAL_UART_Transmit(&huart3, image_data, strlen(image_data), 100);
 208:Src/main.c    ****     HAL_UART_Transmit(&huart3, (uint8_t*)test_data, 10, 100);
 209:Src/main.c    ****     /* USER CODE BEGIN 3 */
 210:Src/main.c    ****   }
 211:Src/main.c    ****   /* USER CODE END 3 */
 212:Src/main.c    **** }
 213:Src/main.c    **** 
 214:Src/main.c    **** /**
 215:Src/main.c    ****   * @brief System Clock Configuration
 216:Src/main.c    ****   * @retval None
 217:Src/main.c    ****   */
 218:Src/main.c    **** void SystemClock_Config(void)
 219:Src/main.c    **** {
 220:Src/main.c    ****   RCC_OscInitTypeDef RCC_OscInitStruct = {0};
 221:Src/main.c    ****   RCC_ClkInitTypeDef RCC_ClkInitStruct = {0};
 222:Src/main.c    **** 
 223:Src/main.c    ****   /** Supply configuration update enable
 224:Src/main.c    ****   */
 225:Src/main.c    ****   HAL_PWREx_ConfigSupply(PWR_LDO_SUPPLY);
 226:Src/main.c    **** 
 227:Src/main.c    ****   /** Configure the main internal regulator output voltage
 228:Src/main.c    ****   */
 229:Src/main.c    ****   __HAL_PWR_VOLTAGESCALING_CONFIG(PWR_REGULATOR_VOLTAGE_SCALE2);
 230:Src/main.c    **** 
 231:Src/main.c    ****   while(!__HAL_PWR_GET_FLAG(PWR_FLAG_VOSRDY)) {}
 232:Src/main.c    **** 
 233:Src/main.c    ****   /** Initializes the RCC Oscillators according to the specified parameters
 234:Src/main.c    ****   * in the RCC_OscInitTypeDef structure.
 235:Src/main.c    ****   */
 236:Src/main.c    ****   RCC_OscInitStruct.OscillatorType = RCC_OSCILLATORTYPE_HSI|RCC_OSCILLATORTYPE_HSE;
 237:Src/main.c    ****   RCC_OscInitStruct.HSEState = RCC_HSE_BYPASS;
 238:Src/main.c    ****   RCC_OscInitStruct.HSIState = RCC_HSI_DIV1;
 239:Src/main.c    ****   RCC_OscInitStruct.HSICalibrationValue = RCC_HSICALIBRATION_DEFAULT;
 240:Src/main.c    ****   RCC_OscInitStruct.PLL.PLLState = RCC_PLL_ON;
 241:Src/main.c    ****   RCC_OscInitStruct.PLL.PLLSource = RCC_PLLSOURCE_HSE;
 242:Src/main.c    ****   RCC_OscInitStruct.PLL.PLLM = 1;
 243:Src/main.c    ****   RCC_OscInitStruct.PLL.PLLN = 24;
 244:Src/main.c    ****   RCC_OscInitStruct.PLL.PLLP = 2;
 245:Src/main.c    ****   RCC_OscInitStruct.PLL.PLLQ = 4;
 246:Src/main.c    ****   RCC_OscInitStruct.PLL.PLLR = 2;
 247:Src/main.c    ****   RCC_OscInitStruct.PLL.PLLRGE = RCC_PLL1VCIRANGE_3;
 248:Src/main.c    ****   RCC_OscInitStruct.PLL.PLLVCOSEL = RCC_PLL1VCOWIDE;
 249:Src/main.c    ****   RCC_OscInitStruct.PLL.PLLFRACN = 0;
 250:Src/main.c    ****   if (HAL_RCC_OscConfig(&RCC_OscInitStruct) != HAL_OK)
 251:Src/main.c    ****   {
 252:Src/main.c    ****     Error_Handler();
 253:Src/main.c    ****   }
 254:Src/main.c    **** 
 255:Src/main.c    ****   /** Initializes the CPU, AHB and APB buses clocks
 256:Src/main.c    ****   */
 257:Src/main.c    ****   RCC_ClkInitStruct.ClockType = RCC_CLOCKTYPE_HCLK|RCC_CLOCKTYPE_SYSCLK
 258:Src/main.c    ****                               |RCC_CLOCKTYPE_PCLK1|RCC_CLOCKTYPE_PCLK2
 259:Src/main.c    ****                               |RCC_CLOCKTYPE_D3PCLK1|RCC_CLOCKTYPE_D1PCLK1;
 260:Src/main.c    ****   RCC_ClkInitStruct.SYSCLKSource = RCC_SYSCLKSOURCE_HSI;
ARM GAS  C:\Users\theto\AppData\Local\Temp\ccA3ZbEO.s 			page 6


 261:Src/main.c    ****   RCC_ClkInitStruct.SYSCLKDivider = RCC_SYSCLK_DIV1;
 262:Src/main.c    ****   RCC_ClkInitStruct.AHBCLKDivider = RCC_HCLK_DIV1;
 263:Src/main.c    ****   RCC_ClkInitStruct.APB3CLKDivider = RCC_APB3_DIV1;
 264:Src/main.c    ****   RCC_ClkInitStruct.APB1CLKDivider = RCC_APB1_DIV1;
 265:Src/main.c    ****   RCC_ClkInitStruct.APB2CLKDivider = RCC_APB2_DIV1;
 266:Src/main.c    ****   RCC_ClkInitStruct.APB4CLKDivider = RCC_APB4_DIV1;
 267:Src/main.c    **** 
 268:Src/main.c    ****   if (HAL_RCC_ClockConfig(&RCC_ClkInitStruct, FLASH_LATENCY_1) != HAL_OK)
 269:Src/main.c    ****   {
 270:Src/main.c    ****     Error_Handler();
 271:Src/main.c    ****   }
 272:Src/main.c    **** }
 273:Src/main.c    **** 
 274:Src/main.c    **** /**
 275:Src/main.c    ****   * @brief DCMI Initialization Function
 276:Src/main.c    ****   * @param None
 277:Src/main.c    ****   * @retval None
 278:Src/main.c    ****   */
 279:Src/main.c    **** static void MX_DCMI_Init(void)
 280:Src/main.c    **** {
 281:Src/main.c    **** 
 282:Src/main.c    ****   /* USER CODE BEGIN DCMI_Init 0 */
 283:Src/main.c    **** 
 284:Src/main.c    ****   /* USER CODE END DCMI_Init 0 */
 285:Src/main.c    **** 
 286:Src/main.c    ****   /* USER CODE BEGIN DCMI_Init 1 */
 287:Src/main.c    **** 
 288:Src/main.c    ****   /* USER CODE END DCMI_Init 1 */
 289:Src/main.c    ****   hdcmi.Instance = DCMI;
 290:Src/main.c    ****   hdcmi.Init.SynchroMode = DCMI_SYNCHRO_HARDWARE;
 291:Src/main.c    ****   hdcmi.Init.PCKPolarity = DCMI_PCKPOLARITY_RISING;
 292:Src/main.c    ****   hdcmi.Init.VSPolarity = DCMI_VSPOLARITY_LOW;
 293:Src/main.c    ****   hdcmi.Init.HSPolarity = DCMI_HSPOLARITY_LOW;
 294:Src/main.c    ****   hdcmi.Init.CaptureRate = DCMI_CR_ALL_FRAME;
 295:Src/main.c    ****   hdcmi.Init.ExtendedDataMode = DCMI_EXTEND_DATA_8B;
 296:Src/main.c    ****   hdcmi.Init.JPEGMode = DCMI_JPEG_DISABLE;
 297:Src/main.c    ****   hdcmi.Init.ByteSelectMode = DCMI_BSM_ALL;
 298:Src/main.c    ****   hdcmi.Init.ByteSelectStart = DCMI_OEBS_ODD;
 299:Src/main.c    ****   hdcmi.Init.LineSelectMode = DCMI_LSM_ALL;
 300:Src/main.c    ****   hdcmi.Init.LineSelectStart = DCMI_OELS_ODD;
 301:Src/main.c    ****   if (HAL_DCMI_Init(&hdcmi) != HAL_OK)
 302:Src/main.c    ****   {
 303:Src/main.c    ****     Error_Handler();
 304:Src/main.c    ****   }
 305:Src/main.c    ****   /* USER CODE BEGIN DCMI_Init 2 */
 306:Src/main.c    **** 
 307:Src/main.c    ****   /* USER CODE END DCMI_Init 2 */
 308:Src/main.c    **** 
 309:Src/main.c    **** }
 310:Src/main.c    **** 
 311:Src/main.c    **** /**
 312:Src/main.c    ****   * @brief ETH Initialization Function
 313:Src/main.c    ****   * @param None
 314:Src/main.c    ****   * @retval None
 315:Src/main.c    ****   */
 316:Src/main.c    **** static void MX_ETH_Init(void)
 317:Src/main.c    **** {
ARM GAS  C:\Users\theto\AppData\Local\Temp\ccA3ZbEO.s 			page 7


 318:Src/main.c    **** 
 319:Src/main.c    ****   /* USER CODE BEGIN ETH_Init 0 */
 320:Src/main.c    **** 
 321:Src/main.c    ****   /* USER CODE END ETH_Init 0 */
 322:Src/main.c    **** 
 323:Src/main.c    ****    static uint8_t MACAddr[6];
 324:Src/main.c    **** 
 325:Src/main.c    ****   /* USER CODE BEGIN ETH_Init 1 */
 326:Src/main.c    **** 
 327:Src/main.c    ****   /* USER CODE END ETH_Init 1 */
 328:Src/main.c    ****   heth.Instance = ETH;
 329:Src/main.c    ****   MACAddr[0] = 0x00;
 330:Src/main.c    ****   MACAddr[1] = 0x80;
 331:Src/main.c    ****   MACAddr[2] = 0xE1;
 332:Src/main.c    ****   MACAddr[3] = 0x00;
 333:Src/main.c    ****   MACAddr[4] = 0x00;
 334:Src/main.c    ****   MACAddr[5] = 0x00;
 335:Src/main.c    ****   heth.Init.MACAddr = &MACAddr[0];
 336:Src/main.c    ****   heth.Init.MediaInterface = HAL_ETH_RMII_MODE;
 337:Src/main.c    ****   heth.Init.TxDesc = DMATxDscrTab;
 338:Src/main.c    ****   heth.Init.RxDesc = DMARxDscrTab;
 339:Src/main.c    ****   heth.Init.RxBuffLen = 1524;
 340:Src/main.c    **** 
 341:Src/main.c    ****   /* USER CODE BEGIN MACADDRESS */
 342:Src/main.c    **** 
 343:Src/main.c    ****   /* USER CODE END MACADDRESS */
 344:Src/main.c    **** 
 345:Src/main.c    ****   if (HAL_ETH_Init(&heth) != HAL_OK)
 346:Src/main.c    ****   {
 347:Src/main.c    ****     Error_Handler();
 348:Src/main.c    ****   }
 349:Src/main.c    **** 
 350:Src/main.c    ****   memset(&TxConfig, 0 , sizeof(ETH_TxPacketConfig));
 351:Src/main.c    ****   TxConfig.Attributes = ETH_TX_PACKETS_FEATURES_CSUM | ETH_TX_PACKETS_FEATURES_CRCPAD;
 352:Src/main.c    ****   TxConfig.ChecksumCtrl = ETH_CHECKSUM_IPHDR_PAYLOAD_INSERT_PHDR_CALC;
 353:Src/main.c    ****   TxConfig.CRCPadCtrl = ETH_CRC_PAD_INSERT;
 354:Src/main.c    ****   /* USER CODE BEGIN ETH_Init 2 */
 355:Src/main.c    **** 
 356:Src/main.c    ****   /* USER CODE END ETH_Init 2 */
 357:Src/main.c    **** 
 358:Src/main.c    **** }
 359:Src/main.c    **** 
 360:Src/main.c    **** /**
 361:Src/main.c    ****   * @brief I2C1 Initialization Function
 362:Src/main.c    ****   * @param None
 363:Src/main.c    ****   * @retval None
 364:Src/main.c    ****   */
 365:Src/main.c    **** static void MX_I2C1_Init(void)
 366:Src/main.c    **** {
 367:Src/main.c    **** 
 368:Src/main.c    ****   /* USER CODE BEGIN I2C1_Init 0 */
 369:Src/main.c    **** 
 370:Src/main.c    ****   /* USER CODE END I2C1_Init 0 */
 371:Src/main.c    **** 
 372:Src/main.c    ****   /* USER CODE BEGIN I2C1_Init 1 */
 373:Src/main.c    **** 
 374:Src/main.c    ****   /* USER CODE END I2C1_Init 1 */
ARM GAS  C:\Users\theto\AppData\Local\Temp\ccA3ZbEO.s 			page 8


 375:Src/main.c    ****   hi2c1.Instance = I2C1;
 376:Src/main.c    ****   hi2c1.Init.Timing = 0x10707DBC;
 377:Src/main.c    ****   hi2c1.Init.OwnAddress1 = 0;
 378:Src/main.c    ****   hi2c1.Init.AddressingMode = I2C_ADDRESSINGMODE_7BIT;
 379:Src/main.c    ****   hi2c1.Init.DualAddressMode = I2C_DUALADDRESS_DISABLE;
 380:Src/main.c    ****   hi2c1.Init.OwnAddress2 = 0;
 381:Src/main.c    ****   hi2c1.Init.OwnAddress2Masks = I2C_OA2_NOMASK;
 382:Src/main.c    ****   hi2c1.Init.GeneralCallMode = I2C_GENERALCALL_DISABLE;
 383:Src/main.c    ****   hi2c1.Init.NoStretchMode = I2C_NOSTRETCH_DISABLE;
 384:Src/main.c    ****   if (HAL_I2C_Init(&hi2c1) != HAL_OK)
 385:Src/main.c    ****   {
 386:Src/main.c    ****     Error_Handler();
 387:Src/main.c    ****   }
 388:Src/main.c    **** 
 389:Src/main.c    ****   /** Configure Analogue filter
 390:Src/main.c    ****   */
 391:Src/main.c    ****   if (HAL_I2CEx_ConfigAnalogFilter(&hi2c1, I2C_ANALOGFILTER_ENABLE) != HAL_OK)
 392:Src/main.c    ****   {
 393:Src/main.c    ****     Error_Handler();
 394:Src/main.c    ****   }
 395:Src/main.c    **** 
 396:Src/main.c    ****   /** Configure Digital filter
 397:Src/main.c    ****   */
 398:Src/main.c    ****   if (HAL_I2CEx_ConfigDigitalFilter(&hi2c1, 0) != HAL_OK)
 399:Src/main.c    ****   {
 400:Src/main.c    ****     Error_Handler();
 401:Src/main.c    ****   }
 402:Src/main.c    ****   /* USER CODE BEGIN I2C1_Init 2 */
 403:Src/main.c    **** 
 404:Src/main.c    ****   /* USER CODE END I2C1_Init 2 */
 405:Src/main.c    **** 
 406:Src/main.c    **** }
 407:Src/main.c    **** 
 408:Src/main.c    **** /**
 409:Src/main.c    ****   * @brief LPTIM1 Initialization Function
 410:Src/main.c    ****   * @param None
 411:Src/main.c    ****   * @retval None
 412:Src/main.c    ****   */
 413:Src/main.c    **** static void MX_LPTIM1_Init(void)
 414:Src/main.c    **** {
 415:Src/main.c    **** 
 416:Src/main.c    ****   /* USER CODE BEGIN LPTIM1_Init 0 */
 417:Src/main.c    **** 
 418:Src/main.c    ****   /* USER CODE END LPTIM1_Init 0 */
 419:Src/main.c    **** 
 420:Src/main.c    ****   /* USER CODE BEGIN LPTIM1_Init 1 */
 421:Src/main.c    **** 
 422:Src/main.c    ****   /* USER CODE END LPTIM1_Init 1 */
 423:Src/main.c    ****   hlptim1.Instance = LPTIM1;
 424:Src/main.c    ****   hlptim1.Init.Clock.Source = LPTIM_CLOCKSOURCE_APBCLOCK_LPOSC;
 425:Src/main.c    ****   hlptim1.Init.Clock.Prescaler = LPTIM_PRESCALER_DIV1;
 426:Src/main.c    ****   hlptim1.Init.Trigger.Source = LPTIM_TRIGSOURCE_SOFTWARE;
 427:Src/main.c    ****   hlptim1.Init.OutputPolarity = LPTIM_OUTPUTPOLARITY_HIGH;
 428:Src/main.c    ****   hlptim1.Init.UpdateMode = LPTIM_UPDATE_IMMEDIATE;
 429:Src/main.c    ****   hlptim1.Init.CounterSource = LPTIM_COUNTERSOURCE_INTERNAL;
 430:Src/main.c    ****   hlptim1.Init.Input1Source = LPTIM_INPUT1SOURCE_GPIO;
 431:Src/main.c    ****   hlptim1.Init.Input2Source = LPTIM_INPUT2SOURCE_GPIO;
ARM GAS  C:\Users\theto\AppData\Local\Temp\ccA3ZbEO.s 			page 9


 432:Src/main.c    ****   if (HAL_LPTIM_Init(&hlptim1) != HAL_OK)
 433:Src/main.c    ****   {
 434:Src/main.c    ****     Error_Handler();
 435:Src/main.c    ****   }
 436:Src/main.c    ****   /* USER CODE BEGIN LPTIM1_Init 2 */
 437:Src/main.c    **** 
 438:Src/main.c    ****   /* USER CODE END LPTIM1_Init 2 */
 439:Src/main.c    **** 
 440:Src/main.c    **** }
 441:Src/main.c    **** 
 442:Src/main.c    **** /**
 443:Src/main.c    ****   * @brief USART3 Initialization Function
 444:Src/main.c    ****   * @param None
 445:Src/main.c    ****   * @retval None
 446:Src/main.c    ****   */
 447:Src/main.c    **** static void MX_USART3_UART_Init(void)
 448:Src/main.c    **** {
 449:Src/main.c    **** 
 450:Src/main.c    ****   /* USER CODE BEGIN USART3_Init 0 */
 451:Src/main.c    **** 
 452:Src/main.c    ****   /* USER CODE END USART3_Init 0 */
 453:Src/main.c    **** 
 454:Src/main.c    ****   /* USER CODE BEGIN USART3_Init 1 */
 455:Src/main.c    **** 
 456:Src/main.c    ****   /* USER CODE END USART3_Init 1 */
 457:Src/main.c    ****   huart3.Instance = USART3;
 458:Src/main.c    ****   huart3.Init.BaudRate = 115200;
 459:Src/main.c    ****   huart3.Init.WordLength = UART_WORDLENGTH_8B;
 460:Src/main.c    ****   huart3.Init.StopBits = UART_STOPBITS_1;
 461:Src/main.c    ****   huart3.Init.Parity = UART_PARITY_NONE;
 462:Src/main.c    ****   huart3.Init.Mode = UART_MODE_TX_RX;
 463:Src/main.c    ****   huart3.Init.HwFlowCtl = UART_HWCONTROL_NONE;
 464:Src/main.c    ****   huart3.Init.OverSampling = UART_OVERSAMPLING_16;
 465:Src/main.c    ****   huart3.Init.OneBitSampling = UART_ONE_BIT_SAMPLE_DISABLE;
 466:Src/main.c    ****   huart3.Init.ClockPrescaler = UART_PRESCALER_DIV1;
 467:Src/main.c    ****   huart3.AdvancedInit.AdvFeatureInit = UART_ADVFEATURE_NO_INIT;
 468:Src/main.c    ****   if (HAL_UART_Init(&huart3) != HAL_OK)
 469:Src/main.c    ****   {
 470:Src/main.c    ****     Error_Handler();
 471:Src/main.c    ****   }
 472:Src/main.c    ****   if (HAL_UARTEx_SetTxFifoThreshold(&huart3, UART_TXFIFO_THRESHOLD_1_8) != HAL_OK)
 473:Src/main.c    ****   {
 474:Src/main.c    ****     Error_Handler();
 475:Src/main.c    ****   }
 476:Src/main.c    ****   if (HAL_UARTEx_SetRxFifoThreshold(&huart3, UART_RXFIFO_THRESHOLD_1_8) != HAL_OK)
 477:Src/main.c    ****   {
 478:Src/main.c    ****     Error_Handler();
 479:Src/main.c    ****   }
 480:Src/main.c    ****   if (HAL_UARTEx_DisableFifoMode(&huart3) != HAL_OK)
 481:Src/main.c    ****   {
 482:Src/main.c    ****     Error_Handler();
 483:Src/main.c    ****   }
 484:Src/main.c    ****   /* USER CODE BEGIN USART3_Init 2 */
 485:Src/main.c    **** 
 486:Src/main.c    ****   /* USER CODE END USART3_Init 2 */
 487:Src/main.c    **** 
 488:Src/main.c    **** }
ARM GAS  C:\Users\theto\AppData\Local\Temp\ccA3ZbEO.s 			page 10


 489:Src/main.c    **** 
 490:Src/main.c    **** /**
 491:Src/main.c    ****   * @brief USB_OTG_FS Initialization Function
 492:Src/main.c    ****   * @param None
 493:Src/main.c    ****   * @retval None
 494:Src/main.c    ****   */
 495:Src/main.c    **** static void MX_USB_OTG_FS_PCD_Init(void)
 496:Src/main.c    **** {
 497:Src/main.c    **** 
 498:Src/main.c    ****   /* USER CODE BEGIN USB_OTG_FS_Init 0 */
 499:Src/main.c    **** 
 500:Src/main.c    ****   /* USER CODE END USB_OTG_FS_Init 0 */
 501:Src/main.c    **** 
 502:Src/main.c    ****   /* USER CODE BEGIN USB_OTG_FS_Init 1 */
 503:Src/main.c    **** 
 504:Src/main.c    ****   /* USER CODE END USB_OTG_FS_Init 1 */
 505:Src/main.c    ****   hpcd_USB_OTG_FS.Instance = USB_OTG_FS;
 506:Src/main.c    ****   hpcd_USB_OTG_FS.Init.dev_endpoints = 9;
 507:Src/main.c    ****   hpcd_USB_OTG_FS.Init.speed = PCD_SPEED_FULL;
 508:Src/main.c    ****   hpcd_USB_OTG_FS.Init.dma_enable = DISABLE;
 509:Src/main.c    ****   hpcd_USB_OTG_FS.Init.phy_itface = PCD_PHY_EMBEDDED;
 510:Src/main.c    ****   hpcd_USB_OTG_FS.Init.Sof_enable = ENABLE;
 511:Src/main.c    ****   hpcd_USB_OTG_FS.Init.low_power_enable = DISABLE;
 512:Src/main.c    ****   hpcd_USB_OTG_FS.Init.lpm_enable = DISABLE;
 513:Src/main.c    ****   hpcd_USB_OTG_FS.Init.battery_charging_enable = ENABLE;
 514:Src/main.c    ****   hpcd_USB_OTG_FS.Init.vbus_sensing_enable = ENABLE;
 515:Src/main.c    ****   hpcd_USB_OTG_FS.Init.use_dedicated_ep1 = DISABLE;
 516:Src/main.c    ****   if (HAL_PCD_Init(&hpcd_USB_OTG_FS) != HAL_OK)
 517:Src/main.c    ****   {
 518:Src/main.c    ****     Error_Handler();
 519:Src/main.c    ****   }
 520:Src/main.c    ****   /* USER CODE BEGIN USB_OTG_FS_Init 2 */
 521:Src/main.c    **** 
 522:Src/main.c    ****   /* USER CODE END USB_OTG_FS_Init 2 */
 523:Src/main.c    **** 
 524:Src/main.c    **** }
 525:Src/main.c    **** 
 526:Src/main.c    **** /**
 527:Src/main.c    ****   * Enable DMA controller clock
 528:Src/main.c    ****   */
 529:Src/main.c    **** static void MX_DMA_Init(void)
 530:Src/main.c    **** {
 531:Src/main.c    **** 
 532:Src/main.c    ****   /* DMA controller clock enable */
 533:Src/main.c    ****   __HAL_RCC_DMA1_CLK_ENABLE();
 534:Src/main.c    **** 
 535:Src/main.c    ****   /* DMA interrupt init */
 536:Src/main.c    ****   /* DMA1_Stream0_IRQn interrupt configuration */
 537:Src/main.c    ****   HAL_NVIC_SetPriority(DMA1_Stream0_IRQn, 0, 0);
 538:Src/main.c    ****   HAL_NVIC_EnableIRQ(DMA1_Stream0_IRQn);
 539:Src/main.c    ****   /* DMAMUX1_OVR_IRQn interrupt configuration */
 540:Src/main.c    ****   HAL_NVIC_SetPriority(DMAMUX1_OVR_IRQn, 0, 0);
 541:Src/main.c    ****   HAL_NVIC_EnableIRQ(DMAMUX1_OVR_IRQn);
 542:Src/main.c    **** 
 543:Src/main.c    **** }
 544:Src/main.c    **** 
 545:Src/main.c    **** /**
ARM GAS  C:\Users\theto\AppData\Local\Temp\ccA3ZbEO.s 			page 11


 546:Src/main.c    ****   * @brief GPIO Initialization Function
 547:Src/main.c    ****   * @param None
 548:Src/main.c    ****   * @retval None
 549:Src/main.c    ****   */
 550:Src/main.c    **** static void MX_GPIO_Init(void)
 551:Src/main.c    **** {
  27              		.loc 1 551 1 view -0
  28              		.cfi_startproc
  29              		@ args = 0, pretend = 0, frame = 48
  30              		@ frame_needed = 0, uses_anonymous_args = 0
  31 0000 F0B5     		push	{r4, r5, r6, r7, lr}
  32              	.LCFI0:
  33              		.cfi_def_cfa_offset 20
  34              		.cfi_offset 4, -20
  35              		.cfi_offset 5, -16
  36              		.cfi_offset 6, -12
  37              		.cfi_offset 7, -8
  38              		.cfi_offset 14, -4
  39 0002 8DB0     		sub	sp, sp, #52
  40              	.LCFI1:
  41              		.cfi_def_cfa_offset 72
 552:Src/main.c    ****   GPIO_InitTypeDef GPIO_InitStruct = {0};
  42              		.loc 1 552 3 view .LVU1
  43              		.loc 1 552 20 is_stmt 0 view .LVU2
  44 0004 0024     		movs	r4, #0
  45 0006 0794     		str	r4, [sp, #28]
  46 0008 0894     		str	r4, [sp, #32]
  47 000a 0994     		str	r4, [sp, #36]
  48 000c 0A94     		str	r4, [sp, #40]
  49 000e 0B94     		str	r4, [sp, #44]
 553:Src/main.c    **** 
 554:Src/main.c    ****   /* GPIO Ports Clock Enable */
 555:Src/main.c    ****   __HAL_RCC_GPIOE_CLK_ENABLE();
  50              		.loc 1 555 3 is_stmt 1 view .LVU3
  51              	.LBB4:
  52              		.loc 1 555 3 view .LVU4
  53              		.loc 1 555 3 view .LVU5
  54 0010 464B     		ldr	r3, .L3
  55 0012 D3F8E020 		ldr	r2, [r3, #224]
  56 0016 42F01002 		orr	r2, r2, #16
  57 001a C3F8E020 		str	r2, [r3, #224]
  58              		.loc 1 555 3 view .LVU6
  59 001e D3F8E020 		ldr	r2, [r3, #224]
  60 0022 02F01002 		and	r2, r2, #16
  61 0026 0092     		str	r2, [sp]
  62              		.loc 1 555 3 view .LVU7
  63 0028 009A     		ldr	r2, [sp]
  64              	.LBE4:
  65              		.loc 1 555 3 view .LVU8
 556:Src/main.c    ****   __HAL_RCC_GPIOC_CLK_ENABLE();
  66              		.loc 1 556 3 view .LVU9
  67              	.LBB5:
  68              		.loc 1 556 3 view .LVU10
  69              		.loc 1 556 3 view .LVU11
  70 002a D3F8E020 		ldr	r2, [r3, #224]
  71 002e 42F00402 		orr	r2, r2, #4
  72 0032 C3F8E020 		str	r2, [r3, #224]
ARM GAS  C:\Users\theto\AppData\Local\Temp\ccA3ZbEO.s 			page 12


  73              		.loc 1 556 3 view .LVU12
  74 0036 D3F8E020 		ldr	r2, [r3, #224]
  75 003a 02F00402 		and	r2, r2, #4
  76 003e 0192     		str	r2, [sp, #4]
  77              		.loc 1 556 3 view .LVU13
  78 0040 019A     		ldr	r2, [sp, #4]
  79              	.LBE5:
  80              		.loc 1 556 3 view .LVU14
 557:Src/main.c    ****   __HAL_RCC_GPIOH_CLK_ENABLE();
  81              		.loc 1 557 3 view .LVU15
  82              	.LBB6:
  83              		.loc 1 557 3 view .LVU16
  84              		.loc 1 557 3 view .LVU17
  85 0042 D3F8E020 		ldr	r2, [r3, #224]
  86 0046 42F08002 		orr	r2, r2, #128
  87 004a C3F8E020 		str	r2, [r3, #224]
  88              		.loc 1 557 3 view .LVU18
  89 004e D3F8E020 		ldr	r2, [r3, #224]
  90 0052 02F08002 		and	r2, r2, #128
  91 0056 0292     		str	r2, [sp, #8]
  92              		.loc 1 557 3 view .LVU19
  93 0058 029A     		ldr	r2, [sp, #8]
  94              	.LBE6:
  95              		.loc 1 557 3 view .LVU20
 558:Src/main.c    ****   __HAL_RCC_GPIOA_CLK_ENABLE();
  96              		.loc 1 558 3 view .LVU21
  97              	.LBB7:
  98              		.loc 1 558 3 view .LVU22
  99              		.loc 1 558 3 view .LVU23
 100 005a D3F8E020 		ldr	r2, [r3, #224]
 101 005e 42F00102 		orr	r2, r2, #1
 102 0062 C3F8E020 		str	r2, [r3, #224]
 103              		.loc 1 558 3 view .LVU24
 104 0066 D3F8E020 		ldr	r2, [r3, #224]
 105 006a 02F00102 		and	r2, r2, #1
 106 006e 0392     		str	r2, [sp, #12]
 107              		.loc 1 558 3 view .LVU25
 108 0070 039A     		ldr	r2, [sp, #12]
 109              	.LBE7:
 110              		.loc 1 558 3 view .LVU26
 559:Src/main.c    ****   __HAL_RCC_GPIOB_CLK_ENABLE();
 111              		.loc 1 559 3 view .LVU27
 112              	.LBB8:
 113              		.loc 1 559 3 view .LVU28
 114              		.loc 1 559 3 view .LVU29
 115 0072 D3F8E020 		ldr	r2, [r3, #224]
 116 0076 42F00202 		orr	r2, r2, #2
 117 007a C3F8E020 		str	r2, [r3, #224]
 118              		.loc 1 559 3 view .LVU30
 119 007e D3F8E020 		ldr	r2, [r3, #224]
 120 0082 02F00202 		and	r2, r2, #2
 121 0086 0492     		str	r2, [sp, #16]
 122              		.loc 1 559 3 view .LVU31
 123 0088 049A     		ldr	r2, [sp, #16]
 124              	.LBE8:
 125              		.loc 1 559 3 view .LVU32
 560:Src/main.c    ****   __HAL_RCC_GPIOD_CLK_ENABLE();
ARM GAS  C:\Users\theto\AppData\Local\Temp\ccA3ZbEO.s 			page 13


 126              		.loc 1 560 3 view .LVU33
 127              	.LBB9:
 128              		.loc 1 560 3 view .LVU34
 129              		.loc 1 560 3 view .LVU35
 130 008a D3F8E020 		ldr	r2, [r3, #224]
 131 008e 42F00802 		orr	r2, r2, #8
 132 0092 C3F8E020 		str	r2, [r3, #224]
 133              		.loc 1 560 3 view .LVU36
 134 0096 D3F8E020 		ldr	r2, [r3, #224]
 135 009a 02F00802 		and	r2, r2, #8
 136 009e 0592     		str	r2, [sp, #20]
 137              		.loc 1 560 3 view .LVU37
 138 00a0 059A     		ldr	r2, [sp, #20]
 139              	.LBE9:
 140              		.loc 1 560 3 view .LVU38
 561:Src/main.c    ****   __HAL_RCC_GPIOG_CLK_ENABLE();
 141              		.loc 1 561 3 view .LVU39
 142              	.LBB10:
 143              		.loc 1 561 3 view .LVU40
 144              		.loc 1 561 3 view .LVU41
 145 00a2 D3F8E020 		ldr	r2, [r3, #224]
 146 00a6 42F04002 		orr	r2, r2, #64
 147 00aa C3F8E020 		str	r2, [r3, #224]
 148              		.loc 1 561 3 view .LVU42
 149 00ae D3F8E030 		ldr	r3, [r3, #224]
 150 00b2 03F04003 		and	r3, r3, #64
 151 00b6 0693     		str	r3, [sp, #24]
 152              		.loc 1 561 3 view .LVU43
 153 00b8 069B     		ldr	r3, [sp, #24]
 154              	.LBE10:
 155              		.loc 1 561 3 view .LVU44
 562:Src/main.c    **** 
 563:Src/main.c    ****   /*Configure GPIO pin Output Level */
 564:Src/main.c    ****   HAL_GPIO_WritePin(GPIOB, LD1_Pin|LD3_Pin, GPIO_PIN_RESET);
 156              		.loc 1 564 3 view .LVU45
 157 00ba 1D4F     		ldr	r7, .L3+4
 158 00bc 2246     		mov	r2, r4
 159 00be 44F20101 		movw	r1, #16385
 160 00c2 3846     		mov	r0, r7
 161 00c4 FFF7FEFF 		bl	HAL_GPIO_WritePin
 162              	.LVL0:
 565:Src/main.c    **** 
 566:Src/main.c    ****   /*Configure GPIO pin Output Level */
 567:Src/main.c    ****   HAL_GPIO_WritePin(GPIOD, USB_OTG_FS_PWR_EN_Pin|GPIO_PIN_6|GPIO_PIN_7, GPIO_PIN_RESET);
 163              		.loc 1 567 3 view .LVU46
 164 00c8 1A4D     		ldr	r5, .L3+8
 165 00ca 2246     		mov	r2, r4
 166 00cc 4FF49861 		mov	r1, #1216
 167 00d0 2846     		mov	r0, r5
 168 00d2 FFF7FEFF 		bl	HAL_GPIO_WritePin
 169              	.LVL1:
 568:Src/main.c    **** 
 569:Src/main.c    ****   /*Configure GPIO pin : B1_Pin */
 570:Src/main.c    ****   GPIO_InitStruct.Pin = B1_Pin;
 170              		.loc 1 570 3 view .LVU47
 171              		.loc 1 570 23 is_stmt 0 view .LVU48
 172 00d6 4FF40053 		mov	r3, #8192
ARM GAS  C:\Users\theto\AppData\Local\Temp\ccA3ZbEO.s 			page 14


 173 00da 0793     		str	r3, [sp, #28]
 571:Src/main.c    ****   GPIO_InitStruct.Mode = GPIO_MODE_INPUT;
 174              		.loc 1 571 3 is_stmt 1 view .LVU49
 175              		.loc 1 571 24 is_stmt 0 view .LVU50
 176 00dc 0894     		str	r4, [sp, #32]
 572:Src/main.c    ****   GPIO_InitStruct.Pull = GPIO_NOPULL;
 177              		.loc 1 572 3 is_stmt 1 view .LVU51
 178              		.loc 1 572 24 is_stmt 0 view .LVU52
 179 00de 0994     		str	r4, [sp, #36]
 573:Src/main.c    ****   HAL_GPIO_Init(B1_GPIO_Port, &GPIO_InitStruct);
 180              		.loc 1 573 3 is_stmt 1 view .LVU53
 181 00e0 07A9     		add	r1, sp, #28
 182 00e2 1548     		ldr	r0, .L3+12
 183 00e4 FFF7FEFF 		bl	HAL_GPIO_Init
 184              	.LVL2:
 574:Src/main.c    **** 
 575:Src/main.c    ****   /*Configure GPIO pins : LD1_Pin LD3_Pin */
 576:Src/main.c    ****   GPIO_InitStruct.Pin = LD1_Pin|LD3_Pin;
 185              		.loc 1 576 3 view .LVU54
 186              		.loc 1 576 23 is_stmt 0 view .LVU55
 187 00e8 44F20103 		movw	r3, #16385
 188 00ec 0793     		str	r3, [sp, #28]
 577:Src/main.c    ****   GPIO_InitStruct.Mode = GPIO_MODE_OUTPUT_PP;
 189              		.loc 1 577 3 is_stmt 1 view .LVU56
 190              		.loc 1 577 24 is_stmt 0 view .LVU57
 191 00ee 0126     		movs	r6, #1
 192 00f0 0896     		str	r6, [sp, #32]
 578:Src/main.c    ****   GPIO_InitStruct.Pull = GPIO_NOPULL;
 193              		.loc 1 578 3 is_stmt 1 view .LVU58
 194              		.loc 1 578 24 is_stmt 0 view .LVU59
 195 00f2 0994     		str	r4, [sp, #36]
 579:Src/main.c    ****   GPIO_InitStruct.Speed = GPIO_SPEED_FREQ_LOW;
 196              		.loc 1 579 3 is_stmt 1 view .LVU60
 197              		.loc 1 579 25 is_stmt 0 view .LVU61
 198 00f4 0A94     		str	r4, [sp, #40]
 580:Src/main.c    ****   HAL_GPIO_Init(GPIOB, &GPIO_InitStruct);
 199              		.loc 1 580 3 is_stmt 1 view .LVU62
 200 00f6 07A9     		add	r1, sp, #28
 201 00f8 3846     		mov	r0, r7
 202 00fa FFF7FEFF 		bl	HAL_GPIO_Init
 203              	.LVL3:
 581:Src/main.c    **** 
 582:Src/main.c    ****   /*Configure GPIO pins : USB_OTG_FS_PWR_EN_Pin PD6 PD7 */
 583:Src/main.c    ****   GPIO_InitStruct.Pin = USB_OTG_FS_PWR_EN_Pin|GPIO_PIN_6|GPIO_PIN_7;
 204              		.loc 1 583 3 view .LVU63
 205              		.loc 1 583 23 is_stmt 0 view .LVU64
 206 00fe 4FF49863 		mov	r3, #1216
 207 0102 0793     		str	r3, [sp, #28]
 584:Src/main.c    ****   GPIO_InitStruct.Mode = GPIO_MODE_OUTPUT_PP;
 208              		.loc 1 584 3 is_stmt 1 view .LVU65
 209              		.loc 1 584 24 is_stmt 0 view .LVU66
 210 0104 0896     		str	r6, [sp, #32]
 585:Src/main.c    ****   GPIO_InitStruct.Pull = GPIO_NOPULL;
 211              		.loc 1 585 3 is_stmt 1 view .LVU67
 212              		.loc 1 585 24 is_stmt 0 view .LVU68
 213 0106 0994     		str	r4, [sp, #36]
 586:Src/main.c    ****   GPIO_InitStruct.Speed = GPIO_SPEED_FREQ_LOW;
ARM GAS  C:\Users\theto\AppData\Local\Temp\ccA3ZbEO.s 			page 15


 214              		.loc 1 586 3 is_stmt 1 view .LVU69
 215              		.loc 1 586 25 is_stmt 0 view .LVU70
 216 0108 0A94     		str	r4, [sp, #40]
 587:Src/main.c    ****   HAL_GPIO_Init(GPIOD, &GPIO_InitStruct);
 217              		.loc 1 587 3 is_stmt 1 view .LVU71
 218 010a 07A9     		add	r1, sp, #28
 219 010c 2846     		mov	r0, r5
 220 010e FFF7FEFF 		bl	HAL_GPIO_Init
 221              	.LVL4:
 588:Src/main.c    **** 
 589:Src/main.c    ****   /*Configure GPIO pin : USB_OTG_FS_OVCR_Pin */
 590:Src/main.c    ****   GPIO_InitStruct.Pin = USB_OTG_FS_OVCR_Pin;
 222              		.loc 1 590 3 view .LVU72
 223              		.loc 1 590 23 is_stmt 0 view .LVU73
 224 0112 8023     		movs	r3, #128
 225 0114 0793     		str	r3, [sp, #28]
 591:Src/main.c    ****   GPIO_InitStruct.Mode = GPIO_MODE_IT_RISING;
 226              		.loc 1 591 3 is_stmt 1 view .LVU74
 227              		.loc 1 591 24 is_stmt 0 view .LVU75
 228 0116 4FF48813 		mov	r3, #1114112
 229 011a 0893     		str	r3, [sp, #32]
 592:Src/main.c    ****   GPIO_InitStruct.Pull = GPIO_NOPULL;
 230              		.loc 1 592 3 is_stmt 1 view .LVU76
 231              		.loc 1 592 24 is_stmt 0 view .LVU77
 232 011c 0994     		str	r4, [sp, #36]
 593:Src/main.c    ****   HAL_GPIO_Init(USB_OTG_FS_OVCR_GPIO_Port, &GPIO_InitStruct);
 233              		.loc 1 593 3 is_stmt 1 view .LVU78
 234 011e 07A9     		add	r1, sp, #28
 235 0120 0648     		ldr	r0, .L3+16
 236 0122 FFF7FEFF 		bl	HAL_GPIO_Init
 237              	.LVL5:
 594:Src/main.c    **** 
 595:Src/main.c    **** }
 238              		.loc 1 595 1 is_stmt 0 view .LVU79
 239 0126 0DB0     		add	sp, sp, #52
 240              	.LCFI2:
 241              		.cfi_def_cfa_offset 20
 242              		@ sp needed
 243 0128 F0BD     		pop	{r4, r5, r6, r7, pc}
 244              	.L4:
 245 012a 00BF     		.align	2
 246              	.L3:
 247 012c 00440258 		.word	1476543488
 248 0130 00040258 		.word	1476527104
 249 0134 000C0258 		.word	1476529152
 250 0138 00080258 		.word	1476528128
 251 013c 00180258 		.word	1476532224
 252              		.cfi_endproc
 253              	.LFE153:
 255              		.section	.text.MX_DMA_Init,"ax",%progbits
 256              		.align	1
 257              		.syntax unified
 258              		.thumb
 259              		.thumb_func
 261              	MX_DMA_Init:
 262              	.LFB152:
 530:Src/main.c    **** 
ARM GAS  C:\Users\theto\AppData\Local\Temp\ccA3ZbEO.s 			page 16


 263              		.loc 1 530 1 is_stmt 1 view -0
 264              		.cfi_startproc
 265              		@ args = 0, pretend = 0, frame = 8
 266              		@ frame_needed = 0, uses_anonymous_args = 0
 267 0000 00B5     		push	{lr}
 268              	.LCFI3:
 269              		.cfi_def_cfa_offset 4
 270              		.cfi_offset 14, -4
 271 0002 83B0     		sub	sp, sp, #12
 272              	.LCFI4:
 273              		.cfi_def_cfa_offset 16
 533:Src/main.c    **** 
 274              		.loc 1 533 3 view .LVU81
 275              	.LBB11:
 533:Src/main.c    **** 
 276              		.loc 1 533 3 view .LVU82
 533:Src/main.c    **** 
 277              		.loc 1 533 3 view .LVU83
 278 0004 0F4B     		ldr	r3, .L7
 279 0006 D3F8D820 		ldr	r2, [r3, #216]
 280 000a 42F00102 		orr	r2, r2, #1
 281 000e C3F8D820 		str	r2, [r3, #216]
 533:Src/main.c    **** 
 282              		.loc 1 533 3 view .LVU84
 283 0012 D3F8D830 		ldr	r3, [r3, #216]
 284 0016 03F00103 		and	r3, r3, #1
 285 001a 0193     		str	r3, [sp, #4]
 533:Src/main.c    **** 
 286              		.loc 1 533 3 view .LVU85
 287 001c 019B     		ldr	r3, [sp, #4]
 288              	.LBE11:
 533:Src/main.c    **** 
 289              		.loc 1 533 3 view .LVU86
 537:Src/main.c    ****   HAL_NVIC_EnableIRQ(DMA1_Stream0_IRQn);
 290              		.loc 1 537 3 view .LVU87
 291 001e 0022     		movs	r2, #0
 292 0020 1146     		mov	r1, r2
 293 0022 0B20     		movs	r0, #11
 294 0024 FFF7FEFF 		bl	HAL_NVIC_SetPriority
 295              	.LVL6:
 538:Src/main.c    ****   /* DMAMUX1_OVR_IRQn interrupt configuration */
 296              		.loc 1 538 3 view .LVU88
 297 0028 0B20     		movs	r0, #11
 298 002a FFF7FEFF 		bl	HAL_NVIC_EnableIRQ
 299              	.LVL7:
 540:Src/main.c    ****   HAL_NVIC_EnableIRQ(DMAMUX1_OVR_IRQn);
 300              		.loc 1 540 3 view .LVU89
 301 002e 0022     		movs	r2, #0
 302 0030 1146     		mov	r1, r2
 303 0032 6620     		movs	r0, #102
 304 0034 FFF7FEFF 		bl	HAL_NVIC_SetPriority
 305              	.LVL8:
 541:Src/main.c    **** 
 306              		.loc 1 541 3 view .LVU90
 307 0038 6620     		movs	r0, #102
 308 003a FFF7FEFF 		bl	HAL_NVIC_EnableIRQ
 309              	.LVL9:
ARM GAS  C:\Users\theto\AppData\Local\Temp\ccA3ZbEO.s 			page 17


 543:Src/main.c    **** 
 310              		.loc 1 543 1 is_stmt 0 view .LVU91
 311 003e 03B0     		add	sp, sp, #12
 312              	.LCFI5:
 313              		.cfi_def_cfa_offset 4
 314              		@ sp needed
 315 0040 5DF804FB 		ldr	pc, [sp], #4
 316              	.L8:
 317              		.align	2
 318              	.L7:
 319 0044 00440258 		.word	1476543488
 320              		.cfi_endproc
 321              	.LFE152:
 323              		.section	.text.Error_Handler,"ax",%progbits
 324              		.align	1
 325              		.global	Error_Handler
 326              		.syntax unified
 327              		.thumb
 328              		.thumb_func
 330              	Error_Handler:
 331              	.LFB154:
 596:Src/main.c    **** 
 597:Src/main.c    **** /* USER CODE BEGIN 4 */
 598:Src/main.c    **** 
 599:Src/main.c    **** /* USER CODE END 4 */
 600:Src/main.c    **** 
 601:Src/main.c    **** /**
 602:Src/main.c    ****   * @brief  This function is executed in case of error occurrence.
 603:Src/main.c    ****   * @retval None
 604:Src/main.c    ****   */
 605:Src/main.c    **** void Error_Handler(void)
 606:Src/main.c    **** {
 332              		.loc 1 606 1 is_stmt 1 view -0
 333              		.cfi_startproc
 334              		@ Volatile: function does not return.
 335              		@ args = 0, pretend = 0, frame = 0
 336              		@ frame_needed = 0, uses_anonymous_args = 0
 337              		@ link register save eliminated.
 607:Src/main.c    ****   /* USER CODE BEGIN Error_Handler_Debug */
 608:Src/main.c    ****   /* User can add his own implementation to report the HAL error return state */
 609:Src/main.c    ****   __disable_irq();
 338              		.loc 1 609 3 view .LVU93
 339              	.LBB12:
 340              	.LBI12:
 341              		.file 2 "Drivers/CMSIS/Include/cmsis_gcc.h"
   1:Drivers/CMSIS/Include/cmsis_gcc.h **** /**************************************************************************//**
   2:Drivers/CMSIS/Include/cmsis_gcc.h ****  * @file     cmsis_gcc.h
   3:Drivers/CMSIS/Include/cmsis_gcc.h ****  * @brief    CMSIS compiler GCC header file
   4:Drivers/CMSIS/Include/cmsis_gcc.h ****  * @version  V5.2.0
   5:Drivers/CMSIS/Include/cmsis_gcc.h ****  * @date     08. May 2019
   6:Drivers/CMSIS/Include/cmsis_gcc.h ****  ******************************************************************************/
   7:Drivers/CMSIS/Include/cmsis_gcc.h **** /*
   8:Drivers/CMSIS/Include/cmsis_gcc.h ****  * Copyright (c) 2009-2019 Arm Limited. All rights reserved.
   9:Drivers/CMSIS/Include/cmsis_gcc.h ****  *
  10:Drivers/CMSIS/Include/cmsis_gcc.h ****  * SPDX-License-Identifier: Apache-2.0
  11:Drivers/CMSIS/Include/cmsis_gcc.h ****  *
  12:Drivers/CMSIS/Include/cmsis_gcc.h ****  * Licensed under the Apache License, Version 2.0 (the License); you may
ARM GAS  C:\Users\theto\AppData\Local\Temp\ccA3ZbEO.s 			page 18


  13:Drivers/CMSIS/Include/cmsis_gcc.h ****  * not use this file except in compliance with the License.
  14:Drivers/CMSIS/Include/cmsis_gcc.h ****  * You may obtain a copy of the License at
  15:Drivers/CMSIS/Include/cmsis_gcc.h ****  *
  16:Drivers/CMSIS/Include/cmsis_gcc.h ****  * www.apache.org/licenses/LICENSE-2.0
  17:Drivers/CMSIS/Include/cmsis_gcc.h ****  *
  18:Drivers/CMSIS/Include/cmsis_gcc.h ****  * Unless required by applicable law or agreed to in writing, software
  19:Drivers/CMSIS/Include/cmsis_gcc.h ****  * distributed under the License is distributed on an AS IS BASIS, WITHOUT
  20:Drivers/CMSIS/Include/cmsis_gcc.h ****  * WARRANTIES OR CONDITIONS OF ANY KIND, either express or implied.
  21:Drivers/CMSIS/Include/cmsis_gcc.h ****  * See the License for the specific language governing permissions and
  22:Drivers/CMSIS/Include/cmsis_gcc.h ****  * limitations under the License.
  23:Drivers/CMSIS/Include/cmsis_gcc.h ****  */
  24:Drivers/CMSIS/Include/cmsis_gcc.h **** 
  25:Drivers/CMSIS/Include/cmsis_gcc.h **** #ifndef __CMSIS_GCC_H
  26:Drivers/CMSIS/Include/cmsis_gcc.h **** #define __CMSIS_GCC_H
  27:Drivers/CMSIS/Include/cmsis_gcc.h **** 
  28:Drivers/CMSIS/Include/cmsis_gcc.h **** /* ignore some GCC warnings */
  29:Drivers/CMSIS/Include/cmsis_gcc.h **** #pragma GCC diagnostic push
  30:Drivers/CMSIS/Include/cmsis_gcc.h **** #pragma GCC diagnostic ignored "-Wsign-conversion"
  31:Drivers/CMSIS/Include/cmsis_gcc.h **** #pragma GCC diagnostic ignored "-Wconversion"
  32:Drivers/CMSIS/Include/cmsis_gcc.h **** #pragma GCC diagnostic ignored "-Wunused-parameter"
  33:Drivers/CMSIS/Include/cmsis_gcc.h **** 
  34:Drivers/CMSIS/Include/cmsis_gcc.h **** /* Fallback for __has_builtin */
  35:Drivers/CMSIS/Include/cmsis_gcc.h **** #ifndef __has_builtin
  36:Drivers/CMSIS/Include/cmsis_gcc.h ****   #define __has_builtin(x) (0)
  37:Drivers/CMSIS/Include/cmsis_gcc.h **** #endif
  38:Drivers/CMSIS/Include/cmsis_gcc.h **** 
  39:Drivers/CMSIS/Include/cmsis_gcc.h **** /* CMSIS compiler specific defines */
  40:Drivers/CMSIS/Include/cmsis_gcc.h **** #ifndef   __ASM
  41:Drivers/CMSIS/Include/cmsis_gcc.h ****   #define __ASM                                  __asm
  42:Drivers/CMSIS/Include/cmsis_gcc.h **** #endif
  43:Drivers/CMSIS/Include/cmsis_gcc.h **** #ifndef   __INLINE
  44:Drivers/CMSIS/Include/cmsis_gcc.h ****   #define __INLINE                               inline
  45:Drivers/CMSIS/Include/cmsis_gcc.h **** #endif
  46:Drivers/CMSIS/Include/cmsis_gcc.h **** #ifndef   __STATIC_INLINE
  47:Drivers/CMSIS/Include/cmsis_gcc.h ****   #define __STATIC_INLINE                        static inline
  48:Drivers/CMSIS/Include/cmsis_gcc.h **** #endif
  49:Drivers/CMSIS/Include/cmsis_gcc.h **** #ifndef   __STATIC_FORCEINLINE                 
  50:Drivers/CMSIS/Include/cmsis_gcc.h ****   #define __STATIC_FORCEINLINE                   __attribute__((always_inline)) static inline
  51:Drivers/CMSIS/Include/cmsis_gcc.h **** #endif                                           
  52:Drivers/CMSIS/Include/cmsis_gcc.h **** #ifndef   __NO_RETURN
  53:Drivers/CMSIS/Include/cmsis_gcc.h ****   #define __NO_RETURN                            __attribute__((__noreturn__))
  54:Drivers/CMSIS/Include/cmsis_gcc.h **** #endif
  55:Drivers/CMSIS/Include/cmsis_gcc.h **** #ifndef   __USED
  56:Drivers/CMSIS/Include/cmsis_gcc.h ****   #define __USED                                 __attribute__((used))
  57:Drivers/CMSIS/Include/cmsis_gcc.h **** #endif
  58:Drivers/CMSIS/Include/cmsis_gcc.h **** #ifndef   __WEAK
  59:Drivers/CMSIS/Include/cmsis_gcc.h ****   #define __WEAK                                 __attribute__((weak))
  60:Drivers/CMSIS/Include/cmsis_gcc.h **** #endif
  61:Drivers/CMSIS/Include/cmsis_gcc.h **** #ifndef   __PACKED
  62:Drivers/CMSIS/Include/cmsis_gcc.h ****   #define __PACKED                               __attribute__((packed, aligned(1)))
  63:Drivers/CMSIS/Include/cmsis_gcc.h **** #endif
  64:Drivers/CMSIS/Include/cmsis_gcc.h **** #ifndef   __PACKED_STRUCT
  65:Drivers/CMSIS/Include/cmsis_gcc.h ****   #define __PACKED_STRUCT                        struct __attribute__((packed, aligned(1)))
  66:Drivers/CMSIS/Include/cmsis_gcc.h **** #endif
  67:Drivers/CMSIS/Include/cmsis_gcc.h **** #ifndef   __PACKED_UNION
  68:Drivers/CMSIS/Include/cmsis_gcc.h ****   #define __PACKED_UNION                         union __attribute__((packed, aligned(1)))
  69:Drivers/CMSIS/Include/cmsis_gcc.h **** #endif
ARM GAS  C:\Users\theto\AppData\Local\Temp\ccA3ZbEO.s 			page 19


  70:Drivers/CMSIS/Include/cmsis_gcc.h **** #ifndef   __UNALIGNED_UINT32        /* deprecated */
  71:Drivers/CMSIS/Include/cmsis_gcc.h ****   #pragma GCC diagnostic push
  72:Drivers/CMSIS/Include/cmsis_gcc.h ****   #pragma GCC diagnostic ignored "-Wpacked"
  73:Drivers/CMSIS/Include/cmsis_gcc.h ****   #pragma GCC diagnostic ignored "-Wattributes"
  74:Drivers/CMSIS/Include/cmsis_gcc.h ****   struct __attribute__((packed)) T_UINT32 { uint32_t v; };
  75:Drivers/CMSIS/Include/cmsis_gcc.h ****   #pragma GCC diagnostic pop
  76:Drivers/CMSIS/Include/cmsis_gcc.h ****   #define __UNALIGNED_UINT32(x)                  (((struct T_UINT32 *)(x))->v)
  77:Drivers/CMSIS/Include/cmsis_gcc.h **** #endif
  78:Drivers/CMSIS/Include/cmsis_gcc.h **** #ifndef   __UNALIGNED_UINT16_WRITE
  79:Drivers/CMSIS/Include/cmsis_gcc.h ****   #pragma GCC diagnostic push
  80:Drivers/CMSIS/Include/cmsis_gcc.h ****   #pragma GCC diagnostic ignored "-Wpacked"
  81:Drivers/CMSIS/Include/cmsis_gcc.h ****   #pragma GCC diagnostic ignored "-Wattributes"
  82:Drivers/CMSIS/Include/cmsis_gcc.h ****   __PACKED_STRUCT T_UINT16_WRITE { uint16_t v; };
  83:Drivers/CMSIS/Include/cmsis_gcc.h ****   #pragma GCC diagnostic pop
  84:Drivers/CMSIS/Include/cmsis_gcc.h ****   #define __UNALIGNED_UINT16_WRITE(addr, val)    (void)((((struct T_UINT16_WRITE *)(void *)(addr))-
  85:Drivers/CMSIS/Include/cmsis_gcc.h **** #endif
  86:Drivers/CMSIS/Include/cmsis_gcc.h **** #ifndef   __UNALIGNED_UINT16_READ
  87:Drivers/CMSIS/Include/cmsis_gcc.h ****   #pragma GCC diagnostic push
  88:Drivers/CMSIS/Include/cmsis_gcc.h ****   #pragma GCC diagnostic ignored "-Wpacked"
  89:Drivers/CMSIS/Include/cmsis_gcc.h ****   #pragma GCC diagnostic ignored "-Wattributes"
  90:Drivers/CMSIS/Include/cmsis_gcc.h ****   __PACKED_STRUCT T_UINT16_READ { uint16_t v; };
  91:Drivers/CMSIS/Include/cmsis_gcc.h ****   #pragma GCC diagnostic pop
  92:Drivers/CMSIS/Include/cmsis_gcc.h ****   #define __UNALIGNED_UINT16_READ(addr)          (((const struct T_UINT16_READ *)(const void *)(add
  93:Drivers/CMSIS/Include/cmsis_gcc.h **** #endif
  94:Drivers/CMSIS/Include/cmsis_gcc.h **** #ifndef   __UNALIGNED_UINT32_WRITE
  95:Drivers/CMSIS/Include/cmsis_gcc.h ****   #pragma GCC diagnostic push
  96:Drivers/CMSIS/Include/cmsis_gcc.h ****   #pragma GCC diagnostic ignored "-Wpacked"
  97:Drivers/CMSIS/Include/cmsis_gcc.h ****   #pragma GCC diagnostic ignored "-Wattributes"
  98:Drivers/CMSIS/Include/cmsis_gcc.h ****   __PACKED_STRUCT T_UINT32_WRITE { uint32_t v; };
  99:Drivers/CMSIS/Include/cmsis_gcc.h ****   #pragma GCC diagnostic pop
 100:Drivers/CMSIS/Include/cmsis_gcc.h ****   #define __UNALIGNED_UINT32_WRITE(addr, val)    (void)((((struct T_UINT32_WRITE *)(void *)(addr))-
 101:Drivers/CMSIS/Include/cmsis_gcc.h **** #endif
 102:Drivers/CMSIS/Include/cmsis_gcc.h **** #ifndef   __UNALIGNED_UINT32_READ
 103:Drivers/CMSIS/Include/cmsis_gcc.h ****   #pragma GCC diagnostic push
 104:Drivers/CMSIS/Include/cmsis_gcc.h ****   #pragma GCC diagnostic ignored "-Wpacked"
 105:Drivers/CMSIS/Include/cmsis_gcc.h ****   #pragma GCC diagnostic ignored "-Wattributes"
 106:Drivers/CMSIS/Include/cmsis_gcc.h ****   __PACKED_STRUCT T_UINT32_READ { uint32_t v; };
 107:Drivers/CMSIS/Include/cmsis_gcc.h ****   #pragma GCC diagnostic pop
 108:Drivers/CMSIS/Include/cmsis_gcc.h ****   #define __UNALIGNED_UINT32_READ(addr)          (((const struct T_UINT32_READ *)(const void *)(add
 109:Drivers/CMSIS/Include/cmsis_gcc.h **** #endif
 110:Drivers/CMSIS/Include/cmsis_gcc.h **** #ifndef   __ALIGNED
 111:Drivers/CMSIS/Include/cmsis_gcc.h ****   #define __ALIGNED(x)                           __attribute__((aligned(x)))
 112:Drivers/CMSIS/Include/cmsis_gcc.h **** #endif
 113:Drivers/CMSIS/Include/cmsis_gcc.h **** #ifndef   __RESTRICT
 114:Drivers/CMSIS/Include/cmsis_gcc.h ****   #define __RESTRICT                             __restrict
 115:Drivers/CMSIS/Include/cmsis_gcc.h **** #endif
 116:Drivers/CMSIS/Include/cmsis_gcc.h **** #ifndef   __COMPILER_BARRIER
 117:Drivers/CMSIS/Include/cmsis_gcc.h ****   #define __COMPILER_BARRIER()                   __ASM volatile("":::"memory")
 118:Drivers/CMSIS/Include/cmsis_gcc.h **** #endif
 119:Drivers/CMSIS/Include/cmsis_gcc.h **** 
 120:Drivers/CMSIS/Include/cmsis_gcc.h **** /* #########################  Startup and Lowlevel Init  ######################## */
 121:Drivers/CMSIS/Include/cmsis_gcc.h **** 
 122:Drivers/CMSIS/Include/cmsis_gcc.h **** #ifndef __PROGRAM_START
 123:Drivers/CMSIS/Include/cmsis_gcc.h **** 
 124:Drivers/CMSIS/Include/cmsis_gcc.h **** /**
 125:Drivers/CMSIS/Include/cmsis_gcc.h ****   \brief   Initializes data and bss sections
 126:Drivers/CMSIS/Include/cmsis_gcc.h ****   \details This default implementations initialized all data and additional bss
ARM GAS  C:\Users\theto\AppData\Local\Temp\ccA3ZbEO.s 			page 20


 127:Drivers/CMSIS/Include/cmsis_gcc.h ****            sections relying on .copy.table and .zero.table specified properly
 128:Drivers/CMSIS/Include/cmsis_gcc.h ****            in the used linker script.
 129:Drivers/CMSIS/Include/cmsis_gcc.h ****   
 130:Drivers/CMSIS/Include/cmsis_gcc.h ****  */
 131:Drivers/CMSIS/Include/cmsis_gcc.h **** __STATIC_FORCEINLINE __NO_RETURN void __cmsis_start(void)
 132:Drivers/CMSIS/Include/cmsis_gcc.h **** {
 133:Drivers/CMSIS/Include/cmsis_gcc.h ****   extern void _start(void) __NO_RETURN;
 134:Drivers/CMSIS/Include/cmsis_gcc.h ****   
 135:Drivers/CMSIS/Include/cmsis_gcc.h ****   typedef struct {
 136:Drivers/CMSIS/Include/cmsis_gcc.h ****     uint32_t const* src;
 137:Drivers/CMSIS/Include/cmsis_gcc.h ****     uint32_t* dest;
 138:Drivers/CMSIS/Include/cmsis_gcc.h ****     uint32_t  wlen;
 139:Drivers/CMSIS/Include/cmsis_gcc.h ****   } __copy_table_t;
 140:Drivers/CMSIS/Include/cmsis_gcc.h ****   
 141:Drivers/CMSIS/Include/cmsis_gcc.h ****   typedef struct {
 142:Drivers/CMSIS/Include/cmsis_gcc.h ****     uint32_t* dest;
 143:Drivers/CMSIS/Include/cmsis_gcc.h ****     uint32_t  wlen;
 144:Drivers/CMSIS/Include/cmsis_gcc.h ****   } __zero_table_t;
 145:Drivers/CMSIS/Include/cmsis_gcc.h ****   
 146:Drivers/CMSIS/Include/cmsis_gcc.h ****   extern const __copy_table_t __copy_table_start__;
 147:Drivers/CMSIS/Include/cmsis_gcc.h ****   extern const __copy_table_t __copy_table_end__;
 148:Drivers/CMSIS/Include/cmsis_gcc.h ****   extern const __zero_table_t __zero_table_start__;
 149:Drivers/CMSIS/Include/cmsis_gcc.h ****   extern const __zero_table_t __zero_table_end__;
 150:Drivers/CMSIS/Include/cmsis_gcc.h **** 
 151:Drivers/CMSIS/Include/cmsis_gcc.h ****   for (__copy_table_t const* pTable = &__copy_table_start__; pTable < &__copy_table_end__; ++pTable
 152:Drivers/CMSIS/Include/cmsis_gcc.h ****     for(uint32_t i=0u; i<pTable->wlen; ++i) {
 153:Drivers/CMSIS/Include/cmsis_gcc.h ****       pTable->dest[i] = pTable->src[i];
 154:Drivers/CMSIS/Include/cmsis_gcc.h ****     }
 155:Drivers/CMSIS/Include/cmsis_gcc.h ****   }
 156:Drivers/CMSIS/Include/cmsis_gcc.h ****  
 157:Drivers/CMSIS/Include/cmsis_gcc.h ****   for (__zero_table_t const* pTable = &__zero_table_start__; pTable < &__zero_table_end__; ++pTable
 158:Drivers/CMSIS/Include/cmsis_gcc.h ****     for(uint32_t i=0u; i<pTable->wlen; ++i) {
 159:Drivers/CMSIS/Include/cmsis_gcc.h ****       pTable->dest[i] = 0u;
 160:Drivers/CMSIS/Include/cmsis_gcc.h ****     }
 161:Drivers/CMSIS/Include/cmsis_gcc.h ****   }
 162:Drivers/CMSIS/Include/cmsis_gcc.h ****  
 163:Drivers/CMSIS/Include/cmsis_gcc.h ****   _start();
 164:Drivers/CMSIS/Include/cmsis_gcc.h **** }
 165:Drivers/CMSIS/Include/cmsis_gcc.h ****   
 166:Drivers/CMSIS/Include/cmsis_gcc.h **** #define __PROGRAM_START           __cmsis_start
 167:Drivers/CMSIS/Include/cmsis_gcc.h **** #endif
 168:Drivers/CMSIS/Include/cmsis_gcc.h **** 
 169:Drivers/CMSIS/Include/cmsis_gcc.h **** #ifndef __INITIAL_SP
 170:Drivers/CMSIS/Include/cmsis_gcc.h **** #define __INITIAL_SP              __StackTop
 171:Drivers/CMSIS/Include/cmsis_gcc.h **** #endif
 172:Drivers/CMSIS/Include/cmsis_gcc.h **** 
 173:Drivers/CMSIS/Include/cmsis_gcc.h **** #ifndef __STACK_LIMIT
 174:Drivers/CMSIS/Include/cmsis_gcc.h **** #define __STACK_LIMIT             __StackLimit
 175:Drivers/CMSIS/Include/cmsis_gcc.h **** #endif
 176:Drivers/CMSIS/Include/cmsis_gcc.h **** 
 177:Drivers/CMSIS/Include/cmsis_gcc.h **** #ifndef __VECTOR_TABLE
 178:Drivers/CMSIS/Include/cmsis_gcc.h **** #define __VECTOR_TABLE            __Vectors
 179:Drivers/CMSIS/Include/cmsis_gcc.h **** #endif
 180:Drivers/CMSIS/Include/cmsis_gcc.h **** 
 181:Drivers/CMSIS/Include/cmsis_gcc.h **** #ifndef __VECTOR_TABLE_ATTRIBUTE
 182:Drivers/CMSIS/Include/cmsis_gcc.h **** #define __VECTOR_TABLE_ATTRIBUTE  __attribute((used, section(".vectors")))
 183:Drivers/CMSIS/Include/cmsis_gcc.h **** #endif
ARM GAS  C:\Users\theto\AppData\Local\Temp\ccA3ZbEO.s 			page 21


 184:Drivers/CMSIS/Include/cmsis_gcc.h **** 
 185:Drivers/CMSIS/Include/cmsis_gcc.h **** /* ###########################  Core Function Access  ########################### */
 186:Drivers/CMSIS/Include/cmsis_gcc.h **** /** \ingroup  CMSIS_Core_FunctionInterface
 187:Drivers/CMSIS/Include/cmsis_gcc.h ****     \defgroup CMSIS_Core_RegAccFunctions CMSIS Core Register Access Functions
 188:Drivers/CMSIS/Include/cmsis_gcc.h ****   @{
 189:Drivers/CMSIS/Include/cmsis_gcc.h ****  */
 190:Drivers/CMSIS/Include/cmsis_gcc.h **** 
 191:Drivers/CMSIS/Include/cmsis_gcc.h **** /**
 192:Drivers/CMSIS/Include/cmsis_gcc.h ****   \brief   Enable IRQ Interrupts
 193:Drivers/CMSIS/Include/cmsis_gcc.h ****   \details Enables IRQ interrupts by clearing the I-bit in the CPSR.
 194:Drivers/CMSIS/Include/cmsis_gcc.h ****            Can only be executed in Privileged modes.
 195:Drivers/CMSIS/Include/cmsis_gcc.h ****  */
 196:Drivers/CMSIS/Include/cmsis_gcc.h **** __STATIC_FORCEINLINE void __enable_irq(void)
 197:Drivers/CMSIS/Include/cmsis_gcc.h **** {
 198:Drivers/CMSIS/Include/cmsis_gcc.h ****   __ASM volatile ("cpsie i" : : : "memory");
 199:Drivers/CMSIS/Include/cmsis_gcc.h **** }
 200:Drivers/CMSIS/Include/cmsis_gcc.h **** 
 201:Drivers/CMSIS/Include/cmsis_gcc.h **** 
 202:Drivers/CMSIS/Include/cmsis_gcc.h **** /**
 203:Drivers/CMSIS/Include/cmsis_gcc.h ****   \brief   Disable IRQ Interrupts
 204:Drivers/CMSIS/Include/cmsis_gcc.h ****   \details Disables IRQ interrupts by setting the I-bit in the CPSR.
 205:Drivers/CMSIS/Include/cmsis_gcc.h ****            Can only be executed in Privileged modes.
 206:Drivers/CMSIS/Include/cmsis_gcc.h ****  */
 207:Drivers/CMSIS/Include/cmsis_gcc.h **** __STATIC_FORCEINLINE void __disable_irq(void)
 342              		.loc 2 207 27 view .LVU94
 343              	.LBB13:
 208:Drivers/CMSIS/Include/cmsis_gcc.h **** {
 209:Drivers/CMSIS/Include/cmsis_gcc.h ****   __ASM volatile ("cpsid i" : : : "memory");
 344              		.loc 2 209 3 view .LVU95
 345              		.syntax unified
 346              	@ 209 "Drivers/CMSIS/Include/cmsis_gcc.h" 1
 347 0000 72B6     		cpsid i
 348              	@ 0 "" 2
 349              		.thumb
 350              		.syntax unified
 351              	.L10:
 352              	.LBE13:
 353              	.LBE12:
 610:Src/main.c    ****   while (1)
 354              		.loc 1 610 3 discriminator 1 view .LVU96
 611:Src/main.c    ****   {
 612:Src/main.c    ****   }
 355              		.loc 1 612 3 discriminator 1 view .LVU97
 610:Src/main.c    ****   while (1)
 356              		.loc 1 610 9 discriminator 1 view .LVU98
 357 0002 FEE7     		b	.L10
 358              		.cfi_endproc
 359              	.LFE154:
 361              		.section	.text.MX_USB_OTG_FS_PCD_Init,"ax",%progbits
 362              		.align	1
 363              		.syntax unified
 364              		.thumb
 365              		.thumb_func
 367              	MX_USB_OTG_FS_PCD_Init:
 368              	.LFB151:
 496:Src/main.c    **** 
 369              		.loc 1 496 1 view -0
ARM GAS  C:\Users\theto\AppData\Local\Temp\ccA3ZbEO.s 			page 22


 370              		.cfi_startproc
 371              		@ args = 0, pretend = 0, frame = 0
 372              		@ frame_needed = 0, uses_anonymous_args = 0
 373 0000 08B5     		push	{r3, lr}
 374              	.LCFI6:
 375              		.cfi_def_cfa_offset 8
 376              		.cfi_offset 3, -8
 377              		.cfi_offset 14, -4
 505:Src/main.c    ****   hpcd_USB_OTG_FS.Init.dev_endpoints = 9;
 378              		.loc 1 505 3 view .LVU100
 505:Src/main.c    ****   hpcd_USB_OTG_FS.Init.dev_endpoints = 9;
 379              		.loc 1 505 28 is_stmt 0 view .LVU101
 380 0002 0B48     		ldr	r0, .L15
 381 0004 0B4B     		ldr	r3, .L15+4
 382 0006 0360     		str	r3, [r0]
 506:Src/main.c    ****   hpcd_USB_OTG_FS.Init.speed = PCD_SPEED_FULL;
 383              		.loc 1 506 3 is_stmt 1 view .LVU102
 506:Src/main.c    ****   hpcd_USB_OTG_FS.Init.speed = PCD_SPEED_FULL;
 384              		.loc 1 506 38 is_stmt 0 view .LVU103
 385 0008 0923     		movs	r3, #9
 386 000a 4360     		str	r3, [r0, #4]
 507:Src/main.c    ****   hpcd_USB_OTG_FS.Init.dma_enable = DISABLE;
 387              		.loc 1 507 3 is_stmt 1 view .LVU104
 507:Src/main.c    ****   hpcd_USB_OTG_FS.Init.dma_enable = DISABLE;
 388              		.loc 1 507 30 is_stmt 0 view .LVU105
 389 000c 0222     		movs	r2, #2
 390 000e 0261     		str	r2, [r0, #16]
 508:Src/main.c    ****   hpcd_USB_OTG_FS.Init.phy_itface = PCD_PHY_EMBEDDED;
 391              		.loc 1 508 3 is_stmt 1 view .LVU106
 508:Src/main.c    ****   hpcd_USB_OTG_FS.Init.phy_itface = PCD_PHY_EMBEDDED;
 392              		.loc 1 508 35 is_stmt 0 view .LVU107
 393 0010 0023     		movs	r3, #0
 394 0012 C360     		str	r3, [r0, #12]
 509:Src/main.c    ****   hpcd_USB_OTG_FS.Init.Sof_enable = ENABLE;
 395              		.loc 1 509 3 is_stmt 1 view .LVU108
 509:Src/main.c    ****   hpcd_USB_OTG_FS.Init.Sof_enable = ENABLE;
 396              		.loc 1 509 35 is_stmt 0 view .LVU109
 397 0014 8261     		str	r2, [r0, #24]
 510:Src/main.c    ****   hpcd_USB_OTG_FS.Init.low_power_enable = DISABLE;
 398              		.loc 1 510 3 is_stmt 1 view .LVU110
 510:Src/main.c    ****   hpcd_USB_OTG_FS.Init.low_power_enable = DISABLE;
 399              		.loc 1 510 35 is_stmt 0 view .LVU111
 400 0016 0122     		movs	r2, #1
 401 0018 C261     		str	r2, [r0, #28]
 511:Src/main.c    ****   hpcd_USB_OTG_FS.Init.lpm_enable = DISABLE;
 402              		.loc 1 511 3 is_stmt 1 view .LVU112
 511:Src/main.c    ****   hpcd_USB_OTG_FS.Init.lpm_enable = DISABLE;
 403              		.loc 1 511 41 is_stmt 0 view .LVU113
 404 001a 0362     		str	r3, [r0, #32]
 512:Src/main.c    ****   hpcd_USB_OTG_FS.Init.battery_charging_enable = ENABLE;
 405              		.loc 1 512 3 is_stmt 1 view .LVU114
 512:Src/main.c    ****   hpcd_USB_OTG_FS.Init.battery_charging_enable = ENABLE;
 406              		.loc 1 512 35 is_stmt 0 view .LVU115
 407 001c 4362     		str	r3, [r0, #36]
 513:Src/main.c    ****   hpcd_USB_OTG_FS.Init.vbus_sensing_enable = ENABLE;
 408              		.loc 1 513 3 is_stmt 1 view .LVU116
 513:Src/main.c    ****   hpcd_USB_OTG_FS.Init.vbus_sensing_enable = ENABLE;
ARM GAS  C:\Users\theto\AppData\Local\Temp\ccA3ZbEO.s 			page 23


 409              		.loc 1 513 48 is_stmt 0 view .LVU117
 410 001e 8262     		str	r2, [r0, #40]
 514:Src/main.c    ****   hpcd_USB_OTG_FS.Init.use_dedicated_ep1 = DISABLE;
 411              		.loc 1 514 3 is_stmt 1 view .LVU118
 514:Src/main.c    ****   hpcd_USB_OTG_FS.Init.use_dedicated_ep1 = DISABLE;
 412              		.loc 1 514 44 is_stmt 0 view .LVU119
 413 0020 C262     		str	r2, [r0, #44]
 515:Src/main.c    ****   if (HAL_PCD_Init(&hpcd_USB_OTG_FS) != HAL_OK)
 414              		.loc 1 515 3 is_stmt 1 view .LVU120
 515:Src/main.c    ****   if (HAL_PCD_Init(&hpcd_USB_OTG_FS) != HAL_OK)
 415              		.loc 1 515 42 is_stmt 0 view .LVU121
 416 0022 0363     		str	r3, [r0, #48]
 516:Src/main.c    ****   {
 417              		.loc 1 516 3 is_stmt 1 view .LVU122
 516:Src/main.c    ****   {
 418              		.loc 1 516 7 is_stmt 0 view .LVU123
 419 0024 FFF7FEFF 		bl	HAL_PCD_Init
 420              	.LVL10:
 516:Src/main.c    ****   {
 421              		.loc 1 516 6 view .LVU124
 422 0028 00B9     		cbnz	r0, .L14
 524:Src/main.c    **** 
 423              		.loc 1 524 1 view .LVU125
 424 002a 08BD     		pop	{r3, pc}
 425              	.L14:
 518:Src/main.c    ****   }
 426              		.loc 1 518 5 is_stmt 1 view .LVU126
 427 002c FFF7FEFF 		bl	Error_Handler
 428              	.LVL11:
 429              	.L16:
 430              		.align	2
 431              	.L15:
 432 0030 00000000 		.word	.LANCHOR0
 433 0034 00000840 		.word	1074266112
 434              		.cfi_endproc
 435              	.LFE151:
 437              		.section	.text.MX_DCMI_Init,"ax",%progbits
 438              		.align	1
 439              		.syntax unified
 440              		.thumb
 441              		.thumb_func
 443              	MX_DCMI_Init:
 444              	.LFB146:
 280:Src/main.c    **** 
 445              		.loc 1 280 1 view -0
 446              		.cfi_startproc
 447              		@ args = 0, pretend = 0, frame = 0
 448              		@ frame_needed = 0, uses_anonymous_args = 0
 449 0000 08B5     		push	{r3, lr}
 450              	.LCFI7:
 451              		.cfi_def_cfa_offset 8
 452              		.cfi_offset 3, -8
 453              		.cfi_offset 14, -4
 289:Src/main.c    ****   hdcmi.Init.SynchroMode = DCMI_SYNCHRO_HARDWARE;
 454              		.loc 1 289 3 view .LVU128
 289:Src/main.c    ****   hdcmi.Init.SynchroMode = DCMI_SYNCHRO_HARDWARE;
 455              		.loc 1 289 18 is_stmt 0 view .LVU129
ARM GAS  C:\Users\theto\AppData\Local\Temp\ccA3ZbEO.s 			page 24


 456 0002 0B48     		ldr	r0, .L21
 457 0004 0B4B     		ldr	r3, .L21+4
 458 0006 0360     		str	r3, [r0]
 290:Src/main.c    ****   hdcmi.Init.PCKPolarity = DCMI_PCKPOLARITY_RISING;
 459              		.loc 1 290 3 is_stmt 1 view .LVU130
 290:Src/main.c    ****   hdcmi.Init.PCKPolarity = DCMI_PCKPOLARITY_RISING;
 460              		.loc 1 290 26 is_stmt 0 view .LVU131
 461 0008 0023     		movs	r3, #0
 462 000a 4360     		str	r3, [r0, #4]
 291:Src/main.c    ****   hdcmi.Init.VSPolarity = DCMI_VSPOLARITY_LOW;
 463              		.loc 1 291 3 is_stmt 1 view .LVU132
 291:Src/main.c    ****   hdcmi.Init.VSPolarity = DCMI_VSPOLARITY_LOW;
 464              		.loc 1 291 26 is_stmt 0 view .LVU133
 465 000c 2022     		movs	r2, #32
 466 000e 8260     		str	r2, [r0, #8]
 292:Src/main.c    ****   hdcmi.Init.HSPolarity = DCMI_HSPOLARITY_LOW;
 467              		.loc 1 292 3 is_stmt 1 view .LVU134
 292:Src/main.c    ****   hdcmi.Init.HSPolarity = DCMI_HSPOLARITY_LOW;
 468              		.loc 1 292 25 is_stmt 0 view .LVU135
 469 0010 C360     		str	r3, [r0, #12]
 293:Src/main.c    ****   hdcmi.Init.CaptureRate = DCMI_CR_ALL_FRAME;
 470              		.loc 1 293 3 is_stmt 1 view .LVU136
 293:Src/main.c    ****   hdcmi.Init.CaptureRate = DCMI_CR_ALL_FRAME;
 471              		.loc 1 293 25 is_stmt 0 view .LVU137
 472 0012 0361     		str	r3, [r0, #16]
 294:Src/main.c    ****   hdcmi.Init.ExtendedDataMode = DCMI_EXTEND_DATA_8B;
 473              		.loc 1 294 3 is_stmt 1 view .LVU138
 294:Src/main.c    ****   hdcmi.Init.ExtendedDataMode = DCMI_EXTEND_DATA_8B;
 474              		.loc 1 294 26 is_stmt 0 view .LVU139
 475 0014 4361     		str	r3, [r0, #20]
 295:Src/main.c    ****   hdcmi.Init.JPEGMode = DCMI_JPEG_DISABLE;
 476              		.loc 1 295 3 is_stmt 1 view .LVU140
 295:Src/main.c    ****   hdcmi.Init.JPEGMode = DCMI_JPEG_DISABLE;
 477              		.loc 1 295 31 is_stmt 0 view .LVU141
 478 0016 8361     		str	r3, [r0, #24]
 296:Src/main.c    ****   hdcmi.Init.ByteSelectMode = DCMI_BSM_ALL;
 479              		.loc 1 296 3 is_stmt 1 view .LVU142
 296:Src/main.c    ****   hdcmi.Init.ByteSelectMode = DCMI_BSM_ALL;
 480              		.loc 1 296 23 is_stmt 0 view .LVU143
 481 0018 0362     		str	r3, [r0, #32]
 297:Src/main.c    ****   hdcmi.Init.ByteSelectStart = DCMI_OEBS_ODD;
 482              		.loc 1 297 3 is_stmt 1 view .LVU144
 297:Src/main.c    ****   hdcmi.Init.ByteSelectStart = DCMI_OEBS_ODD;
 483              		.loc 1 297 29 is_stmt 0 view .LVU145
 484 001a 4362     		str	r3, [r0, #36]
 298:Src/main.c    ****   hdcmi.Init.LineSelectMode = DCMI_LSM_ALL;
 485              		.loc 1 298 3 is_stmt 1 view .LVU146
 298:Src/main.c    ****   hdcmi.Init.LineSelectMode = DCMI_LSM_ALL;
 486              		.loc 1 298 30 is_stmt 0 view .LVU147
 487 001c 8362     		str	r3, [r0, #40]
 299:Src/main.c    ****   hdcmi.Init.LineSelectStart = DCMI_OELS_ODD;
 488              		.loc 1 299 3 is_stmt 1 view .LVU148
 299:Src/main.c    ****   hdcmi.Init.LineSelectStart = DCMI_OELS_ODD;
 489              		.loc 1 299 29 is_stmt 0 view .LVU149
 490 001e C362     		str	r3, [r0, #44]
 300:Src/main.c    ****   if (HAL_DCMI_Init(&hdcmi) != HAL_OK)
 491              		.loc 1 300 3 is_stmt 1 view .LVU150
ARM GAS  C:\Users\theto\AppData\Local\Temp\ccA3ZbEO.s 			page 25


 300:Src/main.c    ****   if (HAL_DCMI_Init(&hdcmi) != HAL_OK)
 492              		.loc 1 300 30 is_stmt 0 view .LVU151
 493 0020 0363     		str	r3, [r0, #48]
 301:Src/main.c    ****   {
 494              		.loc 1 301 3 is_stmt 1 view .LVU152
 301:Src/main.c    ****   {
 495              		.loc 1 301 7 is_stmt 0 view .LVU153
 496 0022 FFF7FEFF 		bl	HAL_DCMI_Init
 497              	.LVL12:
 301:Src/main.c    ****   {
 498              		.loc 1 301 6 view .LVU154
 499 0026 00B9     		cbnz	r0, .L20
 309:Src/main.c    **** 
 500              		.loc 1 309 1 view .LVU155
 501 0028 08BD     		pop	{r3, pc}
 502              	.L20:
 303:Src/main.c    ****   }
 503              		.loc 1 303 5 is_stmt 1 view .LVU156
 504 002a FFF7FEFF 		bl	Error_Handler
 505              	.LVL13:
 506              	.L22:
 507 002e 00BF     		.align	2
 508              	.L21:
 509 0030 00000000 		.word	.LANCHOR1
 510 0034 00000248 		.word	1208090624
 511              		.cfi_endproc
 512              	.LFE146:
 514              		.section	.text.MX_LPTIM1_Init,"ax",%progbits
 515              		.align	1
 516              		.syntax unified
 517              		.thumb
 518              		.thumb_func
 520              	MX_LPTIM1_Init:
 521              	.LFB149:
 414:Src/main.c    **** 
 522              		.loc 1 414 1 view -0
 523              		.cfi_startproc
 524              		@ args = 0, pretend = 0, frame = 0
 525              		@ frame_needed = 0, uses_anonymous_args = 0
 526 0000 08B5     		push	{r3, lr}
 527              	.LCFI8:
 528              		.cfi_def_cfa_offset 8
 529              		.cfi_offset 3, -8
 530              		.cfi_offset 14, -4
 423:Src/main.c    ****   hlptim1.Init.Clock.Source = LPTIM_CLOCKSOURCE_APBCLOCK_LPOSC;
 531              		.loc 1 423 3 view .LVU158
 423:Src/main.c    ****   hlptim1.Init.Clock.Source = LPTIM_CLOCKSOURCE_APBCLOCK_LPOSC;
 532              		.loc 1 423 20 is_stmt 0 view .LVU159
 533 0002 0A48     		ldr	r0, .L27
 534 0004 0A4B     		ldr	r3, .L27+4
 535 0006 0360     		str	r3, [r0]
 424:Src/main.c    ****   hlptim1.Init.Clock.Prescaler = LPTIM_PRESCALER_DIV1;
 536              		.loc 1 424 3 is_stmt 1 view .LVU160
 424:Src/main.c    ****   hlptim1.Init.Clock.Prescaler = LPTIM_PRESCALER_DIV1;
 537              		.loc 1 424 29 is_stmt 0 view .LVU161
 538 0008 0023     		movs	r3, #0
 539 000a 4360     		str	r3, [r0, #4]
ARM GAS  C:\Users\theto\AppData\Local\Temp\ccA3ZbEO.s 			page 26


 425:Src/main.c    ****   hlptim1.Init.Trigger.Source = LPTIM_TRIGSOURCE_SOFTWARE;
 540              		.loc 1 425 3 is_stmt 1 view .LVU162
 425:Src/main.c    ****   hlptim1.Init.Trigger.Source = LPTIM_TRIGSOURCE_SOFTWARE;
 541              		.loc 1 425 32 is_stmt 0 view .LVU163
 542 000c 8360     		str	r3, [r0, #8]
 426:Src/main.c    ****   hlptim1.Init.OutputPolarity = LPTIM_OUTPUTPOLARITY_HIGH;
 543              		.loc 1 426 3 is_stmt 1 view .LVU164
 426:Src/main.c    ****   hlptim1.Init.OutputPolarity = LPTIM_OUTPUTPOLARITY_HIGH;
 544              		.loc 1 426 31 is_stmt 0 view .LVU165
 545 000e 4FF6FF72 		movw	r2, #65535
 546 0012 4261     		str	r2, [r0, #20]
 427:Src/main.c    ****   hlptim1.Init.UpdateMode = LPTIM_UPDATE_IMMEDIATE;
 547              		.loc 1 427 3 is_stmt 1 view .LVU166
 427:Src/main.c    ****   hlptim1.Init.UpdateMode = LPTIM_UPDATE_IMMEDIATE;
 548              		.loc 1 427 31 is_stmt 0 view .LVU167
 549 0014 0362     		str	r3, [r0, #32]
 428:Src/main.c    ****   hlptim1.Init.CounterSource = LPTIM_COUNTERSOURCE_INTERNAL;
 550              		.loc 1 428 3 is_stmt 1 view .LVU168
 428:Src/main.c    ****   hlptim1.Init.CounterSource = LPTIM_COUNTERSOURCE_INTERNAL;
 551              		.loc 1 428 27 is_stmt 0 view .LVU169
 552 0016 4362     		str	r3, [r0, #36]
 429:Src/main.c    ****   hlptim1.Init.Input1Source = LPTIM_INPUT1SOURCE_GPIO;
 553              		.loc 1 429 3 is_stmt 1 view .LVU170
 429:Src/main.c    ****   hlptim1.Init.Input1Source = LPTIM_INPUT1SOURCE_GPIO;
 554              		.loc 1 429 30 is_stmt 0 view .LVU171
 555 0018 8362     		str	r3, [r0, #40]
 430:Src/main.c    ****   hlptim1.Init.Input2Source = LPTIM_INPUT2SOURCE_GPIO;
 556              		.loc 1 430 3 is_stmt 1 view .LVU172
 430:Src/main.c    ****   hlptim1.Init.Input2Source = LPTIM_INPUT2SOURCE_GPIO;
 557              		.loc 1 430 29 is_stmt 0 view .LVU173
 558 001a C362     		str	r3, [r0, #44]
 431:Src/main.c    ****   if (HAL_LPTIM_Init(&hlptim1) != HAL_OK)
 559              		.loc 1 431 3 is_stmt 1 view .LVU174
 431:Src/main.c    ****   if (HAL_LPTIM_Init(&hlptim1) != HAL_OK)
 560              		.loc 1 431 29 is_stmt 0 view .LVU175
 561 001c 0363     		str	r3, [r0, #48]
 432:Src/main.c    ****   {
 562              		.loc 1 432 3 is_stmt 1 view .LVU176
 432:Src/main.c    ****   {
 563              		.loc 1 432 7 is_stmt 0 view .LVU177
 564 001e FFF7FEFF 		bl	HAL_LPTIM_Init
 565              	.LVL14:
 432:Src/main.c    ****   {
 566              		.loc 1 432 6 view .LVU178
 567 0022 00B9     		cbnz	r0, .L26
 440:Src/main.c    **** 
 568              		.loc 1 440 1 view .LVU179
 569 0024 08BD     		pop	{r3, pc}
 570              	.L26:
 434:Src/main.c    ****   }
 571              		.loc 1 434 5 is_stmt 1 view .LVU180
 572 0026 FFF7FEFF 		bl	Error_Handler
 573              	.LVL15:
 574              	.L28:
 575 002a 00BF     		.align	2
 576              	.L27:
 577 002c 00000000 		.word	.LANCHOR2
ARM GAS  C:\Users\theto\AppData\Local\Temp\ccA3ZbEO.s 			page 27


 578 0030 00240040 		.word	1073751040
 579              		.cfi_endproc
 580              	.LFE149:
 582              		.section	.text.MX_ETH_Init,"ax",%progbits
 583              		.align	1
 584              		.syntax unified
 585              		.thumb
 586              		.thumb_func
 588              	MX_ETH_Init:
 589              	.LFB147:
 317:Src/main.c    **** 
 590              		.loc 1 317 1 view -0
 591              		.cfi_startproc
 592              		@ args = 0, pretend = 0, frame = 0
 593              		@ frame_needed = 0, uses_anonymous_args = 0
 594 0000 10B5     		push	{r4, lr}
 595              	.LCFI9:
 596              		.cfi_def_cfa_offset 8
 597              		.cfi_offset 4, -8
 598              		.cfi_offset 14, -4
 323:Src/main.c    **** 
 599              		.loc 1 323 4 view .LVU182
 328:Src/main.c    ****   MACAddr[0] = 0x00;
 600              		.loc 1 328 3 view .LVU183
 328:Src/main.c    ****   MACAddr[0] = 0x00;
 601              		.loc 1 328 17 is_stmt 0 view .LVU184
 602 0002 1448     		ldr	r0, .L33
 603 0004 144B     		ldr	r3, .L33+4
 604 0006 0360     		str	r3, [r0]
 329:Src/main.c    ****   MACAddr[1] = 0x80;
 605              		.loc 1 329 3 is_stmt 1 view .LVU185
 329:Src/main.c    ****   MACAddr[1] = 0x80;
 606              		.loc 1 329 14 is_stmt 0 view .LVU186
 607 0008 144B     		ldr	r3, .L33+8
 608 000a 0022     		movs	r2, #0
 609 000c 1A70     		strb	r2, [r3]
 330:Src/main.c    ****   MACAddr[2] = 0xE1;
 610              		.loc 1 330 3 is_stmt 1 view .LVU187
 330:Src/main.c    ****   MACAddr[2] = 0xE1;
 611              		.loc 1 330 14 is_stmt 0 view .LVU188
 612 000e 8021     		movs	r1, #128
 613 0010 5970     		strb	r1, [r3, #1]
 331:Src/main.c    ****   MACAddr[3] = 0x00;
 614              		.loc 1 331 3 is_stmt 1 view .LVU189
 331:Src/main.c    ****   MACAddr[3] = 0x00;
 615              		.loc 1 331 14 is_stmt 0 view .LVU190
 616 0012 E121     		movs	r1, #225
 617 0014 9970     		strb	r1, [r3, #2]
 332:Src/main.c    ****   MACAddr[4] = 0x00;
 618              		.loc 1 332 3 is_stmt 1 view .LVU191
 332:Src/main.c    ****   MACAddr[4] = 0x00;
 619              		.loc 1 332 14 is_stmt 0 view .LVU192
 620 0016 DA70     		strb	r2, [r3, #3]
 333:Src/main.c    ****   MACAddr[5] = 0x00;
 621              		.loc 1 333 3 is_stmt 1 view .LVU193
 333:Src/main.c    ****   MACAddr[5] = 0x00;
 622              		.loc 1 333 14 is_stmt 0 view .LVU194
ARM GAS  C:\Users\theto\AppData\Local\Temp\ccA3ZbEO.s 			page 28


 623 0018 1A71     		strb	r2, [r3, #4]
 334:Src/main.c    ****   heth.Init.MACAddr = &MACAddr[0];
 624              		.loc 1 334 3 is_stmt 1 view .LVU195
 334:Src/main.c    ****   heth.Init.MACAddr = &MACAddr[0];
 625              		.loc 1 334 14 is_stmt 0 view .LVU196
 626 001a 5A71     		strb	r2, [r3, #5]
 335:Src/main.c    ****   heth.Init.MediaInterface = HAL_ETH_RMII_MODE;
 627              		.loc 1 335 3 is_stmt 1 view .LVU197
 335:Src/main.c    ****   heth.Init.MediaInterface = HAL_ETH_RMII_MODE;
 628              		.loc 1 335 21 is_stmt 0 view .LVU198
 629 001c 4360     		str	r3, [r0, #4]
 336:Src/main.c    ****   heth.Init.TxDesc = DMATxDscrTab;
 630              		.loc 1 336 3 is_stmt 1 view .LVU199
 336:Src/main.c    ****   heth.Init.TxDesc = DMATxDscrTab;
 631              		.loc 1 336 28 is_stmt 0 view .LVU200
 632 001e 0123     		movs	r3, #1
 633 0020 0372     		strb	r3, [r0, #8]
 337:Src/main.c    ****   heth.Init.RxDesc = DMARxDscrTab;
 634              		.loc 1 337 3 is_stmt 1 view .LVU201
 337:Src/main.c    ****   heth.Init.RxDesc = DMARxDscrTab;
 635              		.loc 1 337 20 is_stmt 0 view .LVU202
 636 0022 0F4B     		ldr	r3, .L33+12
 637 0024 C360     		str	r3, [r0, #12]
 338:Src/main.c    ****   heth.Init.RxBuffLen = 1524;
 638              		.loc 1 338 3 is_stmt 1 view .LVU203
 338:Src/main.c    ****   heth.Init.RxBuffLen = 1524;
 639              		.loc 1 338 20 is_stmt 0 view .LVU204
 640 0026 0F4B     		ldr	r3, .L33+16
 641 0028 0361     		str	r3, [r0, #16]
 339:Src/main.c    **** 
 642              		.loc 1 339 3 is_stmt 1 view .LVU205
 339:Src/main.c    **** 
 643              		.loc 1 339 23 is_stmt 0 view .LVU206
 644 002a 40F2F453 		movw	r3, #1524
 645 002e 4361     		str	r3, [r0, #20]
 345:Src/main.c    ****   {
 646              		.loc 1 345 3 is_stmt 1 view .LVU207
 345:Src/main.c    ****   {
 647              		.loc 1 345 7 is_stmt 0 view .LVU208
 648 0030 FFF7FEFF 		bl	HAL_ETH_Init
 649              	.LVL16:
 345:Src/main.c    ****   {
 650              		.loc 1 345 6 view .LVU209
 651 0034 58B9     		cbnz	r0, .L32
 350:Src/main.c    ****   TxConfig.Attributes = ETH_TX_PACKETS_FEATURES_CSUM | ETH_TX_PACKETS_FEATURES_CRCPAD;
 652              		.loc 1 350 3 is_stmt 1 view .LVU210
 653 0036 0C4C     		ldr	r4, .L33+20
 654 0038 3822     		movs	r2, #56
 655 003a 0021     		movs	r1, #0
 656 003c 2046     		mov	r0, r4
 657 003e FFF7FEFF 		bl	memset
 658              	.LVL17:
 351:Src/main.c    ****   TxConfig.ChecksumCtrl = ETH_CHECKSUM_IPHDR_PAYLOAD_INSERT_PHDR_CALC;
 659              		.loc 1 351 3 view .LVU211
 351:Src/main.c    ****   TxConfig.ChecksumCtrl = ETH_CHECKSUM_IPHDR_PAYLOAD_INSERT_PHDR_CALC;
 660              		.loc 1 351 23 is_stmt 0 view .LVU212
 661 0042 2123     		movs	r3, #33
ARM GAS  C:\Users\theto\AppData\Local\Temp\ccA3ZbEO.s 			page 29


 662 0044 2360     		str	r3, [r4]
 352:Src/main.c    ****   TxConfig.CRCPadCtrl = ETH_CRC_PAD_INSERT;
 663              		.loc 1 352 3 is_stmt 1 view .LVU213
 352:Src/main.c    ****   TxConfig.CRCPadCtrl = ETH_CRC_PAD_INSERT;
 664              		.loc 1 352 25 is_stmt 0 view .LVU214
 665 0046 4FF44033 		mov	r3, #196608
 666 004a 6361     		str	r3, [r4, #20]
 353:Src/main.c    ****   /* USER CODE BEGIN ETH_Init 2 */
 667              		.loc 1 353 3 is_stmt 1 view .LVU215
 358:Src/main.c    **** 
 668              		.loc 1 358 1 is_stmt 0 view .LVU216
 669 004c 10BD     		pop	{r4, pc}
 670              	.L32:
 347:Src/main.c    ****   }
 671              		.loc 1 347 5 is_stmt 1 view .LVU217
 672 004e FFF7FEFF 		bl	Error_Handler
 673              	.LVL18:
 674              	.L34:
 675 0052 00BF     		.align	2
 676              	.L33:
 677 0054 00000000 		.word	.LANCHOR3
 678 0058 00800240 		.word	1073905664
 679 005c 00000000 		.word	.LANCHOR4
 680 0060 00000000 		.word	.LANCHOR5
 681 0064 00000000 		.word	.LANCHOR6
 682 0068 00000000 		.word	.LANCHOR7
 683              		.cfi_endproc
 684              	.LFE147:
 686              		.section	.text.MX_USART3_UART_Init,"ax",%progbits
 687              		.align	1
 688              		.syntax unified
 689              		.thumb
 690              		.thumb_func
 692              	MX_USART3_UART_Init:
 693              	.LFB150:
 448:Src/main.c    **** 
 694              		.loc 1 448 1 view -0
 695              		.cfi_startproc
 696              		@ args = 0, pretend = 0, frame = 0
 697              		@ frame_needed = 0, uses_anonymous_args = 0
 698 0000 08B5     		push	{r3, lr}
 699              	.LCFI10:
 700              		.cfi_def_cfa_offset 8
 701              		.cfi_offset 3, -8
 702              		.cfi_offset 14, -4
 457:Src/main.c    ****   huart3.Init.BaudRate = 115200;
 703              		.loc 1 457 3 view .LVU219
 457:Src/main.c    ****   huart3.Init.BaudRate = 115200;
 704              		.loc 1 457 19 is_stmt 0 view .LVU220
 705 0002 1548     		ldr	r0, .L45
 706 0004 154B     		ldr	r3, .L45+4
 707 0006 0360     		str	r3, [r0]
 458:Src/main.c    ****   huart3.Init.WordLength = UART_WORDLENGTH_8B;
 708              		.loc 1 458 3 is_stmt 1 view .LVU221
 458:Src/main.c    ****   huart3.Init.WordLength = UART_WORDLENGTH_8B;
 709              		.loc 1 458 24 is_stmt 0 view .LVU222
 710 0008 4FF4E133 		mov	r3, #115200
ARM GAS  C:\Users\theto\AppData\Local\Temp\ccA3ZbEO.s 			page 30


 711 000c 4360     		str	r3, [r0, #4]
 459:Src/main.c    ****   huart3.Init.StopBits = UART_STOPBITS_1;
 712              		.loc 1 459 3 is_stmt 1 view .LVU223
 459:Src/main.c    ****   huart3.Init.StopBits = UART_STOPBITS_1;
 713              		.loc 1 459 26 is_stmt 0 view .LVU224
 714 000e 0023     		movs	r3, #0
 715 0010 8360     		str	r3, [r0, #8]
 460:Src/main.c    ****   huart3.Init.Parity = UART_PARITY_NONE;
 716              		.loc 1 460 3 is_stmt 1 view .LVU225
 460:Src/main.c    ****   huart3.Init.Parity = UART_PARITY_NONE;
 717              		.loc 1 460 24 is_stmt 0 view .LVU226
 718 0012 C360     		str	r3, [r0, #12]
 461:Src/main.c    ****   huart3.Init.Mode = UART_MODE_TX_RX;
 719              		.loc 1 461 3 is_stmt 1 view .LVU227
 461:Src/main.c    ****   huart3.Init.Mode = UART_MODE_TX_RX;
 720              		.loc 1 461 22 is_stmt 0 view .LVU228
 721 0014 0361     		str	r3, [r0, #16]
 462:Src/main.c    ****   huart3.Init.HwFlowCtl = UART_HWCONTROL_NONE;
 722              		.loc 1 462 3 is_stmt 1 view .LVU229
 462:Src/main.c    ****   huart3.Init.HwFlowCtl = UART_HWCONTROL_NONE;
 723              		.loc 1 462 20 is_stmt 0 view .LVU230
 724 0016 0C22     		movs	r2, #12
 725 0018 4261     		str	r2, [r0, #20]
 463:Src/main.c    ****   huart3.Init.OverSampling = UART_OVERSAMPLING_16;
 726              		.loc 1 463 3 is_stmt 1 view .LVU231
 463:Src/main.c    ****   huart3.Init.OverSampling = UART_OVERSAMPLING_16;
 727              		.loc 1 463 25 is_stmt 0 view .LVU232
 728 001a 8361     		str	r3, [r0, #24]
 464:Src/main.c    ****   huart3.Init.OneBitSampling = UART_ONE_BIT_SAMPLE_DISABLE;
 729              		.loc 1 464 3 is_stmt 1 view .LVU233
 464:Src/main.c    ****   huart3.Init.OneBitSampling = UART_ONE_BIT_SAMPLE_DISABLE;
 730              		.loc 1 464 28 is_stmt 0 view .LVU234
 731 001c C361     		str	r3, [r0, #28]
 465:Src/main.c    ****   huart3.Init.ClockPrescaler = UART_PRESCALER_DIV1;
 732              		.loc 1 465 3 is_stmt 1 view .LVU235
 465:Src/main.c    ****   huart3.Init.ClockPrescaler = UART_PRESCALER_DIV1;
 733              		.loc 1 465 30 is_stmt 0 view .LVU236
 734 001e 0362     		str	r3, [r0, #32]
 466:Src/main.c    ****   huart3.AdvancedInit.AdvFeatureInit = UART_ADVFEATURE_NO_INIT;
 735              		.loc 1 466 3 is_stmt 1 view .LVU237
 466:Src/main.c    ****   huart3.AdvancedInit.AdvFeatureInit = UART_ADVFEATURE_NO_INIT;
 736              		.loc 1 466 30 is_stmt 0 view .LVU238
 737 0020 4362     		str	r3, [r0, #36]
 467:Src/main.c    ****   if (HAL_UART_Init(&huart3) != HAL_OK)
 738              		.loc 1 467 3 is_stmt 1 view .LVU239
 467:Src/main.c    ****   if (HAL_UART_Init(&huart3) != HAL_OK)
 739              		.loc 1 467 38 is_stmt 0 view .LVU240
 740 0022 8362     		str	r3, [r0, #40]
 468:Src/main.c    ****   {
 741              		.loc 1 468 3 is_stmt 1 view .LVU241
 468:Src/main.c    ****   {
 742              		.loc 1 468 7 is_stmt 0 view .LVU242
 743 0024 FFF7FEFF 		bl	HAL_UART_Init
 744              	.LVL19:
 468:Src/main.c    ****   {
 745              		.loc 1 468 6 view .LVU243
 746 0028 70B9     		cbnz	r0, .L41
ARM GAS  C:\Users\theto\AppData\Local\Temp\ccA3ZbEO.s 			page 31


 472:Src/main.c    ****   {
 747              		.loc 1 472 3 is_stmt 1 view .LVU244
 472:Src/main.c    ****   {
 748              		.loc 1 472 7 is_stmt 0 view .LVU245
 749 002a 0021     		movs	r1, #0
 750 002c 0A48     		ldr	r0, .L45
 751 002e FFF7FEFF 		bl	HAL_UARTEx_SetTxFifoThreshold
 752              	.LVL20:
 472:Src/main.c    ****   {
 753              		.loc 1 472 6 view .LVU246
 754 0032 58B9     		cbnz	r0, .L42
 476:Src/main.c    ****   {
 755              		.loc 1 476 3 is_stmt 1 view .LVU247
 476:Src/main.c    ****   {
 756              		.loc 1 476 7 is_stmt 0 view .LVU248
 757 0034 0021     		movs	r1, #0
 758 0036 0848     		ldr	r0, .L45
 759 0038 FFF7FEFF 		bl	HAL_UARTEx_SetRxFifoThreshold
 760              	.LVL21:
 476:Src/main.c    ****   {
 761              		.loc 1 476 6 view .LVU249
 762 003c 40B9     		cbnz	r0, .L43
 480:Src/main.c    ****   {
 763              		.loc 1 480 3 is_stmt 1 view .LVU250
 480:Src/main.c    ****   {
 764              		.loc 1 480 7 is_stmt 0 view .LVU251
 765 003e 0648     		ldr	r0, .L45
 766 0040 FFF7FEFF 		bl	HAL_UARTEx_DisableFifoMode
 767              	.LVL22:
 480:Src/main.c    ****   {
 768              		.loc 1 480 6 view .LVU252
 769 0044 30B9     		cbnz	r0, .L44
 488:Src/main.c    **** 
 770              		.loc 1 488 1 view .LVU253
 771 0046 08BD     		pop	{r3, pc}
 772              	.L41:
 470:Src/main.c    ****   }
 773              		.loc 1 470 5 is_stmt 1 view .LVU254
 774 0048 FFF7FEFF 		bl	Error_Handler
 775              	.LVL23:
 776              	.L42:
 474:Src/main.c    ****   }
 777              		.loc 1 474 5 view .LVU255
 778 004c FFF7FEFF 		bl	Error_Handler
 779              	.LVL24:
 780              	.L43:
 478:Src/main.c    ****   }
 781              		.loc 1 478 5 view .LVU256
 782 0050 FFF7FEFF 		bl	Error_Handler
 783              	.LVL25:
 784              	.L44:
 482:Src/main.c    ****   }
 785              		.loc 1 482 5 view .LVU257
 786 0054 FFF7FEFF 		bl	Error_Handler
 787              	.LVL26:
 788              	.L46:
 789              		.align	2
ARM GAS  C:\Users\theto\AppData\Local\Temp\ccA3ZbEO.s 			page 32


 790              	.L45:
 791 0058 00000000 		.word	.LANCHOR8
 792 005c 00480040 		.word	1073760256
 793              		.cfi_endproc
 794              	.LFE150:
 796              		.section	.text.MX_I2C1_Init,"ax",%progbits
 797              		.align	1
 798              		.syntax unified
 799              		.thumb
 800              		.thumb_func
 802              	MX_I2C1_Init:
 803              	.LFB148:
 366:Src/main.c    **** 
 804              		.loc 1 366 1 view -0
 805              		.cfi_startproc
 806              		@ args = 0, pretend = 0, frame = 0
 807              		@ frame_needed = 0, uses_anonymous_args = 0
 808 0000 08B5     		push	{r3, lr}
 809              	.LCFI11:
 810              		.cfi_def_cfa_offset 8
 811              		.cfi_offset 3, -8
 812              		.cfi_offset 14, -4
 375:Src/main.c    ****   hi2c1.Init.Timing = 0x10707DBC;
 813              		.loc 1 375 3 view .LVU259
 375:Src/main.c    ****   hi2c1.Init.Timing = 0x10707DBC;
 814              		.loc 1 375 18 is_stmt 0 view .LVU260
 815 0002 1348     		ldr	r0, .L55
 816 0004 134B     		ldr	r3, .L55+4
 817 0006 0360     		str	r3, [r0]
 376:Src/main.c    ****   hi2c1.Init.OwnAddress1 = 0;
 818              		.loc 1 376 3 is_stmt 1 view .LVU261
 376:Src/main.c    ****   hi2c1.Init.OwnAddress1 = 0;
 819              		.loc 1 376 21 is_stmt 0 view .LVU262
 820 0008 A3F13E53 		sub	r3, r3, #796917760
 821 000c A3F57D23 		sub	r3, r3, #1036288
 822 0010 A3F24463 		subw	r3, r3, #1604
 823 0014 4360     		str	r3, [r0, #4]
 377:Src/main.c    ****   hi2c1.Init.AddressingMode = I2C_ADDRESSINGMODE_7BIT;
 824              		.loc 1 377 3 is_stmt 1 view .LVU263
 377:Src/main.c    ****   hi2c1.Init.AddressingMode = I2C_ADDRESSINGMODE_7BIT;
 825              		.loc 1 377 26 is_stmt 0 view .LVU264
 826 0016 0023     		movs	r3, #0
 827 0018 8360     		str	r3, [r0, #8]
 378:Src/main.c    ****   hi2c1.Init.DualAddressMode = I2C_DUALADDRESS_DISABLE;
 828              		.loc 1 378 3 is_stmt 1 view .LVU265
 378:Src/main.c    ****   hi2c1.Init.DualAddressMode = I2C_DUALADDRESS_DISABLE;
 829              		.loc 1 378 29 is_stmt 0 view .LVU266
 830 001a 0122     		movs	r2, #1
 831 001c C260     		str	r2, [r0, #12]
 379:Src/main.c    ****   hi2c1.Init.OwnAddress2 = 0;
 832              		.loc 1 379 3 is_stmt 1 view .LVU267
 379:Src/main.c    ****   hi2c1.Init.OwnAddress2 = 0;
 833              		.loc 1 379 30 is_stmt 0 view .LVU268
 834 001e 0361     		str	r3, [r0, #16]
 380:Src/main.c    ****   hi2c1.Init.OwnAddress2Masks = I2C_OA2_NOMASK;
 835              		.loc 1 380 3 is_stmt 1 view .LVU269
 380:Src/main.c    ****   hi2c1.Init.OwnAddress2Masks = I2C_OA2_NOMASK;
ARM GAS  C:\Users\theto\AppData\Local\Temp\ccA3ZbEO.s 			page 33


 836              		.loc 1 380 26 is_stmt 0 view .LVU270
 837 0020 4361     		str	r3, [r0, #20]
 381:Src/main.c    ****   hi2c1.Init.GeneralCallMode = I2C_GENERALCALL_DISABLE;
 838              		.loc 1 381 3 is_stmt 1 view .LVU271
 381:Src/main.c    ****   hi2c1.Init.GeneralCallMode = I2C_GENERALCALL_DISABLE;
 839              		.loc 1 381 31 is_stmt 0 view .LVU272
 840 0022 8361     		str	r3, [r0, #24]
 382:Src/main.c    ****   hi2c1.Init.NoStretchMode = I2C_NOSTRETCH_DISABLE;
 841              		.loc 1 382 3 is_stmt 1 view .LVU273
 382:Src/main.c    ****   hi2c1.Init.NoStretchMode = I2C_NOSTRETCH_DISABLE;
 842              		.loc 1 382 30 is_stmt 0 view .LVU274
 843 0024 C361     		str	r3, [r0, #28]
 383:Src/main.c    ****   if (HAL_I2C_Init(&hi2c1) != HAL_OK)
 844              		.loc 1 383 3 is_stmt 1 view .LVU275
 383:Src/main.c    ****   if (HAL_I2C_Init(&hi2c1) != HAL_OK)
 845              		.loc 1 383 28 is_stmt 0 view .LVU276
 846 0026 0362     		str	r3, [r0, #32]
 384:Src/main.c    ****   {
 847              		.loc 1 384 3 is_stmt 1 view .LVU277
 384:Src/main.c    ****   {
 848              		.loc 1 384 7 is_stmt 0 view .LVU278
 849 0028 FFF7FEFF 		bl	HAL_I2C_Init
 850              	.LVL27:
 384:Src/main.c    ****   {
 851              		.loc 1 384 6 view .LVU279
 852 002c 50B9     		cbnz	r0, .L52
 391:Src/main.c    ****   {
 853              		.loc 1 391 3 is_stmt 1 view .LVU280
 391:Src/main.c    ****   {
 854              		.loc 1 391 7 is_stmt 0 view .LVU281
 855 002e 0021     		movs	r1, #0
 856 0030 0748     		ldr	r0, .L55
 857 0032 FFF7FEFF 		bl	HAL_I2CEx_ConfigAnalogFilter
 858              	.LVL28:
 391:Src/main.c    ****   {
 859              		.loc 1 391 6 view .LVU282
 860 0036 38B9     		cbnz	r0, .L53
 398:Src/main.c    ****   {
 861              		.loc 1 398 3 is_stmt 1 view .LVU283
 398:Src/main.c    ****   {
 862              		.loc 1 398 7 is_stmt 0 view .LVU284
 863 0038 0021     		movs	r1, #0
 864 003a 0548     		ldr	r0, .L55
 865 003c FFF7FEFF 		bl	HAL_I2CEx_ConfigDigitalFilter
 866              	.LVL29:
 398:Src/main.c    ****   {
 867              		.loc 1 398 6 view .LVU285
 868 0040 20B9     		cbnz	r0, .L54
 406:Src/main.c    **** 
 869              		.loc 1 406 1 view .LVU286
 870 0042 08BD     		pop	{r3, pc}
 871              	.L52:
 386:Src/main.c    ****   }
 872              		.loc 1 386 5 is_stmt 1 view .LVU287
 873 0044 FFF7FEFF 		bl	Error_Handler
 874              	.LVL30:
 875              	.L53:
ARM GAS  C:\Users\theto\AppData\Local\Temp\ccA3ZbEO.s 			page 34


 393:Src/main.c    ****   }
 876              		.loc 1 393 5 view .LVU288
 877 0048 FFF7FEFF 		bl	Error_Handler
 878              	.LVL31:
 879              	.L54:
 400:Src/main.c    ****   }
 880              		.loc 1 400 5 view .LVU289
 881 004c FFF7FEFF 		bl	Error_Handler
 882              	.LVL32:
 883              	.L56:
 884              		.align	2
 885              	.L55:
 886 0050 00000000 		.word	.LANCHOR9
 887 0054 00540040 		.word	1073763328
 888              		.cfi_endproc
 889              	.LFE148:
 891              		.section	.text.SystemClock_Config,"ax",%progbits
 892              		.align	1
 893              		.global	SystemClock_Config
 894              		.syntax unified
 895              		.thumb
 896              		.thumb_func
 898              	SystemClock_Config:
 899              	.LFB145:
 219:Src/main.c    ****   RCC_OscInitTypeDef RCC_OscInitStruct = {0};
 900              		.loc 1 219 1 view -0
 901              		.cfi_startproc
 902              		@ args = 0, pretend = 0, frame = 112
 903              		@ frame_needed = 0, uses_anonymous_args = 0
 904 0000 00B5     		push	{lr}
 905              	.LCFI12:
 906              		.cfi_def_cfa_offset 4
 907              		.cfi_offset 14, -4
 908 0002 9DB0     		sub	sp, sp, #116
 909              	.LCFI13:
 910              		.cfi_def_cfa_offset 120
 220:Src/main.c    ****   RCC_ClkInitTypeDef RCC_ClkInitStruct = {0};
 911              		.loc 1 220 3 view .LVU291
 220:Src/main.c    ****   RCC_ClkInitTypeDef RCC_ClkInitStruct = {0};
 912              		.loc 1 220 22 is_stmt 0 view .LVU292
 913 0004 4C22     		movs	r2, #76
 914 0006 0021     		movs	r1, #0
 915 0008 09A8     		add	r0, sp, #36
 916 000a FFF7FEFF 		bl	memset
 917              	.LVL33:
 221:Src/main.c    **** 
 918              		.loc 1 221 3 is_stmt 1 view .LVU293
 221:Src/main.c    **** 
 919              		.loc 1 221 22 is_stmt 0 view .LVU294
 920 000e 2022     		movs	r2, #32
 921 0010 0021     		movs	r1, #0
 922 0012 01A8     		add	r0, sp, #4
 923 0014 FFF7FEFF 		bl	memset
 924              	.LVL34:
 225:Src/main.c    **** 
 925              		.loc 1 225 3 is_stmt 1 view .LVU295
 926 0018 0220     		movs	r0, #2
ARM GAS  C:\Users\theto\AppData\Local\Temp\ccA3ZbEO.s 			page 35


 927 001a FFF7FEFF 		bl	HAL_PWREx_ConfigSupply
 928              	.LVL35:
 229:Src/main.c    **** 
 929              		.loc 1 229 3 view .LVU296
 930              	.LBB14:
 229:Src/main.c    **** 
 931              		.loc 1 229 3 view .LVU297
 932 001e 0023     		movs	r3, #0
 933 0020 0093     		str	r3, [sp]
 229:Src/main.c    **** 
 934              		.loc 1 229 3 view .LVU298
 229:Src/main.c    **** 
 935              		.loc 1 229 3 view .LVU299
 936 0022 264B     		ldr	r3, .L64
 937 0024 DA6A     		ldr	r2, [r3, #44]
 938 0026 22F00102 		bic	r2, r2, #1
 939 002a DA62     		str	r2, [r3, #44]
 229:Src/main.c    **** 
 940              		.loc 1 229 3 view .LVU300
 941 002c DB6A     		ldr	r3, [r3, #44]
 942 002e 03F00103 		and	r3, r3, #1
 943 0032 0093     		str	r3, [sp]
 229:Src/main.c    **** 
 944              		.loc 1 229 3 view .LVU301
 945 0034 224A     		ldr	r2, .L64+4
 946 0036 9369     		ldr	r3, [r2, #24]
 947 0038 23F44043 		bic	r3, r3, #49152
 948 003c 43F40043 		orr	r3, r3, #32768
 949 0040 9361     		str	r3, [r2, #24]
 229:Src/main.c    **** 
 950              		.loc 1 229 3 view .LVU302
 951 0042 9369     		ldr	r3, [r2, #24]
 952 0044 03F44043 		and	r3, r3, #49152
 953 0048 0093     		str	r3, [sp]
 229:Src/main.c    **** 
 954              		.loc 1 229 3 view .LVU303
 955 004a 009B     		ldr	r3, [sp]
 956              	.LBE14:
 229:Src/main.c    **** 
 957              		.loc 1 229 3 view .LVU304
 231:Src/main.c    **** 
 958              		.loc 1 231 3 view .LVU305
 959              	.L58:
 231:Src/main.c    **** 
 960              		.loc 1 231 48 discriminator 1 view .LVU306
 231:Src/main.c    **** 
 961              		.loc 1 231 8 discriminator 1 view .LVU307
 231:Src/main.c    **** 
 962              		.loc 1 231 10 is_stmt 0 discriminator 1 view .LVU308
 963 004c 1C4B     		ldr	r3, .L64+4
 964 004e 9B69     		ldr	r3, [r3, #24]
 231:Src/main.c    **** 
 965              		.loc 1 231 8 discriminator 1 view .LVU309
 966 0050 13F4005F 		tst	r3, #8192
 967 0054 FAD0     		beq	.L58
 236:Src/main.c    ****   RCC_OscInitStruct.HSEState = RCC_HSE_BYPASS;
 968              		.loc 1 236 3 is_stmt 1 view .LVU310
ARM GAS  C:\Users\theto\AppData\Local\Temp\ccA3ZbEO.s 			page 36


 236:Src/main.c    ****   RCC_OscInitStruct.HSEState = RCC_HSE_BYPASS;
 969              		.loc 1 236 36 is_stmt 0 view .LVU311
 970 0056 0323     		movs	r3, #3
 971 0058 0993     		str	r3, [sp, #36]
 237:Src/main.c    ****   RCC_OscInitStruct.HSIState = RCC_HSI_DIV1;
 972              		.loc 1 237 3 is_stmt 1 view .LVU312
 237:Src/main.c    ****   RCC_OscInitStruct.HSIState = RCC_HSI_DIV1;
 973              		.loc 1 237 30 is_stmt 0 view .LVU313
 974 005a 4FF4A023 		mov	r3, #327680
 975 005e 0A93     		str	r3, [sp, #40]
 238:Src/main.c    ****   RCC_OscInitStruct.HSICalibrationValue = RCC_HSICALIBRATION_DEFAULT;
 976              		.loc 1 238 3 is_stmt 1 view .LVU314
 238:Src/main.c    ****   RCC_OscInitStruct.HSICalibrationValue = RCC_HSICALIBRATION_DEFAULT;
 977              		.loc 1 238 30 is_stmt 0 view .LVU315
 978 0060 0122     		movs	r2, #1
 979 0062 0C92     		str	r2, [sp, #48]
 239:Src/main.c    ****   RCC_OscInitStruct.PLL.PLLState = RCC_PLL_ON;
 980              		.loc 1 239 3 is_stmt 1 view .LVU316
 239:Src/main.c    ****   RCC_OscInitStruct.PLL.PLLState = RCC_PLL_ON;
 981              		.loc 1 239 41 is_stmt 0 view .LVU317
 982 0064 4023     		movs	r3, #64
 983 0066 0D93     		str	r3, [sp, #52]
 240:Src/main.c    ****   RCC_OscInitStruct.PLL.PLLSource = RCC_PLLSOURCE_HSE;
 984              		.loc 1 240 3 is_stmt 1 view .LVU318
 240:Src/main.c    ****   RCC_OscInitStruct.PLL.PLLSource = RCC_PLLSOURCE_HSE;
 985              		.loc 1 240 34 is_stmt 0 view .LVU319
 986 0068 0223     		movs	r3, #2
 987 006a 1293     		str	r3, [sp, #72]
 241:Src/main.c    ****   RCC_OscInitStruct.PLL.PLLM = 1;
 988              		.loc 1 241 3 is_stmt 1 view .LVU320
 241:Src/main.c    ****   RCC_OscInitStruct.PLL.PLLM = 1;
 989              		.loc 1 241 35 is_stmt 0 view .LVU321
 990 006c 1393     		str	r3, [sp, #76]
 242:Src/main.c    ****   RCC_OscInitStruct.PLL.PLLN = 24;
 991              		.loc 1 242 3 is_stmt 1 view .LVU322
 242:Src/main.c    ****   RCC_OscInitStruct.PLL.PLLN = 24;
 992              		.loc 1 242 30 is_stmt 0 view .LVU323
 993 006e 1492     		str	r2, [sp, #80]
 243:Src/main.c    ****   RCC_OscInitStruct.PLL.PLLP = 2;
 994              		.loc 1 243 3 is_stmt 1 view .LVU324
 243:Src/main.c    ****   RCC_OscInitStruct.PLL.PLLP = 2;
 995              		.loc 1 243 30 is_stmt 0 view .LVU325
 996 0070 1822     		movs	r2, #24
 997 0072 1592     		str	r2, [sp, #84]
 244:Src/main.c    ****   RCC_OscInitStruct.PLL.PLLQ = 4;
 998              		.loc 1 244 3 is_stmt 1 view .LVU326
 244:Src/main.c    ****   RCC_OscInitStruct.PLL.PLLQ = 4;
 999              		.loc 1 244 30 is_stmt 0 view .LVU327
 1000 0074 1693     		str	r3, [sp, #88]
 245:Src/main.c    ****   RCC_OscInitStruct.PLL.PLLR = 2;
 1001              		.loc 1 245 3 is_stmt 1 view .LVU328
 245:Src/main.c    ****   RCC_OscInitStruct.PLL.PLLR = 2;
 1002              		.loc 1 245 30 is_stmt 0 view .LVU329
 1003 0076 0422     		movs	r2, #4
 1004 0078 1792     		str	r2, [sp, #92]
 246:Src/main.c    ****   RCC_OscInitStruct.PLL.PLLRGE = RCC_PLL1VCIRANGE_3;
 1005              		.loc 1 246 3 is_stmt 1 view .LVU330
ARM GAS  C:\Users\theto\AppData\Local\Temp\ccA3ZbEO.s 			page 37


 246:Src/main.c    ****   RCC_OscInitStruct.PLL.PLLRGE = RCC_PLL1VCIRANGE_3;
 1006              		.loc 1 246 30 is_stmt 0 view .LVU331
 1007 007a 1893     		str	r3, [sp, #96]
 247:Src/main.c    ****   RCC_OscInitStruct.PLL.PLLVCOSEL = RCC_PLL1VCOWIDE;
 1008              		.loc 1 247 3 is_stmt 1 view .LVU332
 247:Src/main.c    ****   RCC_OscInitStruct.PLL.PLLVCOSEL = RCC_PLL1VCOWIDE;
 1009              		.loc 1 247 32 is_stmt 0 view .LVU333
 1010 007c 0C23     		movs	r3, #12
 1011 007e 1993     		str	r3, [sp, #100]
 248:Src/main.c    ****   RCC_OscInitStruct.PLL.PLLFRACN = 0;
 1012              		.loc 1 248 3 is_stmt 1 view .LVU334
 248:Src/main.c    ****   RCC_OscInitStruct.PLL.PLLFRACN = 0;
 1013              		.loc 1 248 35 is_stmt 0 view .LVU335
 1014 0080 0023     		movs	r3, #0
 1015 0082 1A93     		str	r3, [sp, #104]
 249:Src/main.c    ****   if (HAL_RCC_OscConfig(&RCC_OscInitStruct) != HAL_OK)
 1016              		.loc 1 249 3 is_stmt 1 view .LVU336
 249:Src/main.c    ****   if (HAL_RCC_OscConfig(&RCC_OscInitStruct) != HAL_OK)
 1017              		.loc 1 249 34 is_stmt 0 view .LVU337
 1018 0084 1B93     		str	r3, [sp, #108]
 250:Src/main.c    ****   {
 1019              		.loc 1 250 3 is_stmt 1 view .LVU338
 250:Src/main.c    ****   {
 1020              		.loc 1 250 7 is_stmt 0 view .LVU339
 1021 0086 09A8     		add	r0, sp, #36
 1022 0088 FFF7FEFF 		bl	HAL_RCC_OscConfig
 1023              	.LVL36:
 250:Src/main.c    ****   {
 1024              		.loc 1 250 6 view .LVU340
 1025 008c 88B9     		cbnz	r0, .L62
 257:Src/main.c    ****                               |RCC_CLOCKTYPE_PCLK1|RCC_CLOCKTYPE_PCLK2
 1026              		.loc 1 257 3 is_stmt 1 view .LVU341
 257:Src/main.c    ****                               |RCC_CLOCKTYPE_PCLK1|RCC_CLOCKTYPE_PCLK2
 1027              		.loc 1 257 31 is_stmt 0 view .LVU342
 1028 008e 3F23     		movs	r3, #63
 1029 0090 0193     		str	r3, [sp, #4]
 260:Src/main.c    ****   RCC_ClkInitStruct.SYSCLKDivider = RCC_SYSCLK_DIV1;
 1030              		.loc 1 260 3 is_stmt 1 view .LVU343
 260:Src/main.c    ****   RCC_ClkInitStruct.SYSCLKDivider = RCC_SYSCLK_DIV1;
 1031              		.loc 1 260 34 is_stmt 0 view .LVU344
 1032 0092 0023     		movs	r3, #0
 1033 0094 0293     		str	r3, [sp, #8]
 261:Src/main.c    ****   RCC_ClkInitStruct.AHBCLKDivider = RCC_HCLK_DIV1;
 1034              		.loc 1 261 3 is_stmt 1 view .LVU345
 261:Src/main.c    ****   RCC_ClkInitStruct.AHBCLKDivider = RCC_HCLK_DIV1;
 1035              		.loc 1 261 35 is_stmt 0 view .LVU346
 1036 0096 0393     		str	r3, [sp, #12]
 262:Src/main.c    ****   RCC_ClkInitStruct.APB3CLKDivider = RCC_APB3_DIV1;
 1037              		.loc 1 262 3 is_stmt 1 view .LVU347
 262:Src/main.c    ****   RCC_ClkInitStruct.APB3CLKDivider = RCC_APB3_DIV1;
 1038              		.loc 1 262 35 is_stmt 0 view .LVU348
 1039 0098 0493     		str	r3, [sp, #16]
 263:Src/main.c    ****   RCC_ClkInitStruct.APB1CLKDivider = RCC_APB1_DIV1;
 1040              		.loc 1 263 3 is_stmt 1 view .LVU349
 263:Src/main.c    ****   RCC_ClkInitStruct.APB1CLKDivider = RCC_APB1_DIV1;
 1041              		.loc 1 263 36 is_stmt 0 view .LVU350
 1042 009a 0593     		str	r3, [sp, #20]
ARM GAS  C:\Users\theto\AppData\Local\Temp\ccA3ZbEO.s 			page 38


 264:Src/main.c    ****   RCC_ClkInitStruct.APB2CLKDivider = RCC_APB2_DIV1;
 1043              		.loc 1 264 3 is_stmt 1 view .LVU351
 264:Src/main.c    ****   RCC_ClkInitStruct.APB2CLKDivider = RCC_APB2_DIV1;
 1044              		.loc 1 264 36 is_stmt 0 view .LVU352
 1045 009c 0693     		str	r3, [sp, #24]
 265:Src/main.c    ****   RCC_ClkInitStruct.APB4CLKDivider = RCC_APB4_DIV1;
 1046              		.loc 1 265 3 is_stmt 1 view .LVU353
 265:Src/main.c    ****   RCC_ClkInitStruct.APB4CLKDivider = RCC_APB4_DIV1;
 1047              		.loc 1 265 36 is_stmt 0 view .LVU354
 1048 009e 0793     		str	r3, [sp, #28]
 266:Src/main.c    **** 
 1049              		.loc 1 266 3 is_stmt 1 view .LVU355
 266:Src/main.c    **** 
 1050              		.loc 1 266 36 is_stmt 0 view .LVU356
 1051 00a0 0893     		str	r3, [sp, #32]
 268:Src/main.c    ****   {
 1052              		.loc 1 268 3 is_stmt 1 view .LVU357
 268:Src/main.c    ****   {
 1053              		.loc 1 268 7 is_stmt 0 view .LVU358
 1054 00a2 0121     		movs	r1, #1
 1055 00a4 01A8     		add	r0, sp, #4
 1056 00a6 FFF7FEFF 		bl	HAL_RCC_ClockConfig
 1057              	.LVL37:
 268:Src/main.c    ****   {
 1058              		.loc 1 268 6 view .LVU359
 1059 00aa 20B9     		cbnz	r0, .L63
 272:Src/main.c    **** 
 1060              		.loc 1 272 1 view .LVU360
 1061 00ac 1DB0     		add	sp, sp, #116
 1062              	.LCFI14:
 1063              		.cfi_remember_state
 1064              		.cfi_def_cfa_offset 4
 1065              		@ sp needed
 1066 00ae 5DF804FB 		ldr	pc, [sp], #4
 1067              	.L62:
 1068              	.LCFI15:
 1069              		.cfi_restore_state
 252:Src/main.c    ****   }
 1070              		.loc 1 252 5 is_stmt 1 view .LVU361
 1071 00b2 FFF7FEFF 		bl	Error_Handler
 1072              	.LVL38:
 1073              	.L63:
 270:Src/main.c    ****   }
 1074              		.loc 1 270 5 view .LVU362
 1075 00b6 FFF7FEFF 		bl	Error_Handler
 1076              	.LVL39:
 1077              	.L65:
 1078 00ba 00BF     		.align	2
 1079              	.L64:
 1080 00bc 00040058 		.word	1476396032
 1081 00c0 00480258 		.word	1476544512
 1082              		.cfi_endproc
 1083              	.LFE145:
 1085              		.section	.rodata.main.str1.4,"aMS",%progbits,1
 1086              		.align	2
 1087              	.LC0:
 1088 0000 30313233 		.ascii	"0123456789\000"
ARM GAS  C:\Users\theto\AppData\Local\Temp\ccA3ZbEO.s 			page 39


 1088      34353637 
 1088      383900
 1089              		.section	.text.main,"ax",%progbits
 1090              		.align	1
 1091              		.global	main
 1092              		.syntax unified
 1093              		.thumb
 1094              		.thumb_func
 1096              	main:
 1097              	.LFB144:
 142:Src/main.c    ****   /* USER CODE BEGIN 1 */
 1098              		.loc 1 142 1 view -0
 1099              		.cfi_startproc
 1100              		@ Volatile: function does not return.
 1101              		@ args = 0, pretend = 0, frame = 2424
 1102              		@ frame_needed = 0, uses_anonymous_args = 0
 1103 0000 00B5     		push	{lr}
 1104              	.LCFI16:
 1105              		.cfi_def_cfa_offset 4
 1106              		.cfi_offset 14, -4
 1107 0002 ADF68C1D 		subw	sp, sp, #2444
 1108              	.LCFI17:
 1109              		.cfi_def_cfa_offset 2448
 150:Src/main.c    **** 
 1110              		.loc 1 150 3 view .LVU364
 1111 0006 FFF7FEFF 		bl	HAL_Init
 1112              	.LVL40:
 157:Src/main.c    **** 
 1113              		.loc 1 157 3 view .LVU365
 1114 000a FFF7FEFF 		bl	SystemClock_Config
 1115              	.LVL41:
 164:Src/main.c    ****   MX_DMA_Init();
 1116              		.loc 1 164 3 view .LVU366
 1117 000e FFF7FEFF 		bl	MX_GPIO_Init
 1118              	.LVL42:
 165:Src/main.c    ****   MX_USB_OTG_FS_PCD_Init();
 1119              		.loc 1 165 3 view .LVU367
 1120 0012 FFF7FEFF 		bl	MX_DMA_Init
 1121              	.LVL43:
 166:Src/main.c    ****   MX_DCMI_Init();
 1122              		.loc 1 166 3 view .LVU368
 1123 0016 FFF7FEFF 		bl	MX_USB_OTG_FS_PCD_Init
 1124              	.LVL44:
 167:Src/main.c    ****   MX_LPTIM1_Init();
 1125              		.loc 1 167 3 view .LVU369
 1126 001a FFF7FEFF 		bl	MX_DCMI_Init
 1127              	.LVL45:
 168:Src/main.c    ****   MX_ETH_Init();
 1128              		.loc 1 168 3 view .LVU370
 1129 001e FFF7FEFF 		bl	MX_LPTIM1_Init
 1130              	.LVL46:
 169:Src/main.c    ****   MX_USART3_UART_Init();
 1131              		.loc 1 169 3 view .LVU371
 1132 0022 FFF7FEFF 		bl	MX_ETH_Init
 1133              	.LVL47:
 170:Src/main.c    ****   MX_I2C1_Init();
 1134              		.loc 1 170 3 view .LVU372
ARM GAS  C:\Users\theto\AppData\Local\Temp\ccA3ZbEO.s 			page 40


 1135 0026 FFF7FEFF 		bl	MX_USART3_UART_Init
 1136              	.LVL48:
 171:Src/main.c    ****   /* USER CODE BEGIN 2 */
 1137              		.loc 1 171 3 view .LVU373
 1138 002a FFF7FEFF 		bl	MX_I2C1_Init
 1139              	.LVL49:
 173:Src/main.c    ****   OV7670_Init(&hdcmi, &hdma_dcmi, &hi2c1, &hlptim1);
 1140              		.loc 1 173 3 view .LVU374
 1141 002e 0020     		movs	r0, #0
 1142 0030 FFF7FEFF 		bl	OV7670_Power
 1143              	.LVL50:
 174:Src/main.c    ****   /* USER CODE END 2 */
 1144              		.loc 1 174 3 view .LVU375
 1145 0034 1B4B     		ldr	r3, .L69
 1146 0036 1C4A     		ldr	r2, .L69+4
 1147 0038 1C49     		ldr	r1, .L69+8
 1148 003a 1D48     		ldr	r0, .L69+12
 1149 003c FFF7FEFF 		bl	OV7670_Init
 1150              	.LVL51:
 181:Src/main.c    ****   uint16_t height;
 1151              		.loc 1 181 3 view .LVU376
 182:Src/main.c    ****   uint8_t format;
 1152              		.loc 1 182 3 view .LVU377
 183:Src/main.c    ****   uint8_t image_data[X_MAX*(Y_MAX>>1)];	//Max resolution is CIF(352*288)
 1153              		.loc 1 183 3 view .LVU378
 184:Src/main.c    **** 
 1154              		.loc 1 184 3 view .LVU379
 186:Src/main.c    ****   //char* message = "Hello world!\r\n";
 1155              		.loc 1 186 3 view .LVU380
 186:Src/main.c    ****   //char* message = "Hello world!\r\n";
 1156              		.loc 1 186 11 is_stmt 0 view .LVU381
 1157 0040 1C4A     		ldr	r2, .L69+16
 1158 0042 05AB     		add	r3, sp, #20
 1159 0044 07CA     		ldm	r2, {r0, r1, r2}
 1160 0046 03C3     		stmia	r3!, {r0, r1}
 1161 0048 1A80     		strh	r2, [r3]	@ movhi
 1162              	.L67:
 188:Src/main.c    ****   {
 1163              		.loc 1 188 3 is_stmt 1 discriminator 1 view .LVU382
 191:Src/main.c    **** 		OV7670_UpdateSettings(OV7670_settings);
 1164              		.loc 1 191 5 discriminator 1 view .LVU383
 1165 004a FFF7FEFF 		bl	OV7670_PowerUp
 1166              	.LVL52:
 192:Src/main.c    ****     OV7670_SetFrameRate(XCLK_DIV(1), PLL_x4);
 1167              		.loc 1 192 3 discriminator 1 view .LVU384
 1168 004e 1A4B     		ldr	r3, .L69+20
 1169 0050 03F11002 		add	r2, r3, #16
 1170 0054 07CA     		ldm	r2, {r0, r1, r2}
 1171 0056 8DE80700 		stm	sp, {r0, r1, r2}
 1172 005a 0FCB     		ldm	r3, {r0, r1, r2, r3}
 1173 005c FFF7FEFF 		bl	OV7670_UpdateSettings
 1174              	.LVL53:
 193:Src/main.c    **** 		HAL_Delay(10);
 1175              		.loc 1 193 5 discriminator 1 view .LVU385
 1176 0060 4021     		movs	r1, #64
 1177 0062 0020     		movs	r0, #0
 1178 0064 FFF7FEFF 		bl	OV7670_SetFrameRate
ARM GAS  C:\Users\theto\AppData\Local\Temp\ccA3ZbEO.s 			page 41


 1179              	.LVL54:
 194:Src/main.c    **** 
 1180              		.loc 1 194 3 discriminator 1 view .LVU386
 1181 0068 0A20     		movs	r0, #10
 1182 006a FFF7FEFF 		bl	HAL_Delay
 1183              	.LVL55:
 196:Src/main.c    **** 		OV7670_getImageInfo(&width, &height, &format);
 1184              		.loc 1 196 5 discriminator 1 view .LVU387
 1185 006e 08A9     		add	r1, sp, #32
 1186 0070 0120     		movs	r0, #1
 1187 0072 FFF7FEFF 		bl	OV7670_Start
 1188              	.LVL56:
 197:Src/main.c    **** 
 1189              		.loc 1 197 3 discriminator 1 view .LVU388
 1190 0076 0DF68312 		addw	r2, sp, #2435
 1191 007a 0DF68411 		addw	r1, sp, #2436
 1192 007e 0DF68610 		addw	r0, sp, #2438
 1193 0082 FFF7FEFF 		bl	OV7670_getImageInfo
 1194              	.LVL57:
 200:Src/main.c    **** 
 1195              		.loc 1 200 5 discriminator 1 view .LVU389
 1196 0086 6420     		movs	r0, #100
 1197 0088 FFF7FEFF 		bl	HAL_Delay
 1198              	.LVL58:
 202:Src/main.c    **** 	  OV7670_PowerDown();
 1199              		.loc 1 202 5 discriminator 1 view .LVU390
 1200 008c FFF7FEFF 		bl	OV7670_Stop
 1201              	.LVL59:
 203:Src/main.c    **** 
 1202              		.loc 1 203 4 discriminator 1 view .LVU391
 1203 0090 FFF7FEFF 		bl	OV7670_PowerDown
 1204              	.LVL60:
 208:Src/main.c    ****     /* USER CODE BEGIN 3 */
 1205              		.loc 1 208 5 discriminator 1 view .LVU392
 1206 0094 6423     		movs	r3, #100
 1207 0096 0A22     		movs	r2, #10
 1208 0098 05A9     		add	r1, sp, #20
 1209 009a 0848     		ldr	r0, .L69+24
 1210 009c FFF7FEFF 		bl	HAL_UART_Transmit
 1211              	.LVL61:
 188:Src/main.c    ****   {
 1212              		.loc 1 188 9 discriminator 1 view .LVU393
 1213 00a0 D3E7     		b	.L67
 1214              	.L70:
 1215 00a2 00BF     		.align	2
 1216              	.L69:
 1217 00a4 00000000 		.word	.LANCHOR2
 1218 00a8 00000000 		.word	.LANCHOR9
 1219 00ac 00000000 		.word	.LANCHOR10
 1220 00b0 00000000 		.word	.LANCHOR1
 1221 00b4 00000000 		.word	.LC0
 1222 00b8 00000000 		.word	.LANCHOR11
 1223 00bc 00000000 		.word	.LANCHOR8
 1224              		.cfi_endproc
 1225              	.LFE144:
 1227              		.global	hpcd_USB_OTG_FS
 1228              		.global	huart3
ARM GAS  C:\Users\theto\AppData\Local\Temp\ccA3ZbEO.s 			page 42


 1229              		.global	hlptim1
 1230              		.global	hi2c1
 1231              		.global	heth
 1232              		.global	hdma_dcmi
 1233              		.global	hdcmi
 1234              		.global	TxConfig
 1235              		.global	DMATxDscrTab
 1236              		.global	DMARxDscrTab
 1237              		.global	OV7670_settings
 1238              		.section	.RxDecripSection,"aw"
 1239              		.align	2
 1240              		.set	.LANCHOR6,. + 0
 1243              	DMARxDscrTab:
 1244 0000 00000000 		.space	96
 1244      00000000 
 1244      00000000 
 1244      00000000 
 1244      00000000 
 1245              		.section	.TxDecripSection,"aw"
 1246              		.align	2
 1247              		.set	.LANCHOR5,. + 0
 1250              	DMATxDscrTab:
 1251 0000 00000000 		.space	96
 1251      00000000 
 1251      00000000 
 1251      00000000 
 1251      00000000 
 1252              		.section	.bss.MACAddr.0,"aw",%nobits
 1253              		.align	2
 1254              		.set	.LANCHOR4,. + 0
 1257              	MACAddr.0:
 1258 0000 00000000 		.space	6
 1258      0000
 1259              		.section	.bss.TxConfig,"aw",%nobits
 1260              		.align	2
 1261              		.set	.LANCHOR7,. + 0
 1264              	TxConfig:
 1265 0000 00000000 		.space	56
 1265      00000000 
 1265      00000000 
 1265      00000000 
 1265      00000000 
 1266              		.section	.bss.hdcmi,"aw",%nobits
 1267              		.align	2
 1268              		.set	.LANCHOR1,. + 0
 1271              	hdcmi:
 1272 0000 00000000 		.space	80
 1272      00000000 
 1272      00000000 
 1272      00000000 
 1272      00000000 
 1273              		.section	.bss.hdma_dcmi,"aw",%nobits
 1274              		.align	2
 1275              		.set	.LANCHOR10,. + 0
 1278              	hdma_dcmi:
 1279 0000 00000000 		.space	120
 1279      00000000 
ARM GAS  C:\Users\theto\AppData\Local\Temp\ccA3ZbEO.s 			page 43


 1279      00000000 
 1279      00000000 
 1279      00000000 
 1280              		.section	.bss.heth,"aw",%nobits
 1281              		.align	2
 1282              		.set	.LANCHOR3,. + 0
 1285              	heth:
 1286 0000 00000000 		.space	176
 1286      00000000 
 1286      00000000 
 1286      00000000 
 1286      00000000 
 1287              		.section	.bss.hi2c1,"aw",%nobits
 1288              		.align	2
 1289              		.set	.LANCHOR9,. + 0
 1292              	hi2c1:
 1293 0000 00000000 		.space	84
 1293      00000000 
 1293      00000000 
 1293      00000000 
 1293      00000000 
 1294              		.section	.bss.hlptim1,"aw",%nobits
 1295              		.align	2
 1296              		.set	.LANCHOR2,. + 0
 1299              	hlptim1:
 1300 0000 00000000 		.space	56
 1300      00000000 
 1300      00000000 
 1300      00000000 
 1300      00000000 
 1301              		.section	.bss.hpcd_USB_OTG_FS,"aw",%nobits
 1302              		.align	2
 1303              		.set	.LANCHOR0,. + 0
 1306              	hpcd_USB_OTG_FS:
 1307 0000 00000000 		.space	1292
 1307      00000000 
 1307      00000000 
 1307      00000000 
 1307      00000000 
 1308              		.section	.bss.huart3,"aw",%nobits
 1309              		.align	2
 1310              		.set	.LANCHOR8,. + 0
 1313              	huart3:
 1314 0000 00000000 		.space	148
 1314      00000000 
 1314      00000000 
 1314      00000000 
 1314      00000000 
 1315              		.section	.data.OV7670_settings,"aw"
 1316              		.align	2
 1317              		.set	.LANCHOR11,. + 0
 1320              	OV7670_settings:
 1321 0000 03       		.byte	3
 1322 0001 00       		.byte	0
 1323 0002 00       		.byte	0
 1324 0003 01       		.byte	1
 1325 0004 01       		.byte	1
ARM GAS  C:\Users\theto\AppData\Local\Temp\ccA3ZbEO.s 			page 44


 1326 0005 01       		.byte	1
 1327 0006 00       		.byte	0
 1328 0007 00       		.byte	0
 1329 0008 00       		.byte	0
 1330 0009 00       		.byte	0
 1331 000a 00       		.byte	0
 1332 000b 01       		.byte	1
 1333 000c 01       		.byte	1
 1334 000d 01       		.byte	1
 1335 000e 02       		.byte	2
 1336 000f 02       		.byte	2
 1337 0010 0001     		.short	256
 1338 0012 04       		.byte	4
 1339 0013 A0       		.byte	-96
 1340 0014 40       		.byte	64
 1341 0015 50       		.byte	80
 1342 0016 02       		.byte	2
 1343 0017 00       		.byte	0
 1344 0018 03       		.byte	3
 1345 0019 4D       		.byte	77
 1346 001a 67       		.byte	103
 1347 001b 99       		.byte	-103
 1348              		.text
 1349              	.Letext0:
 1350              		.file 3 "d:\\l\\program\\gcc-arm-none-eabi-10.3\\arm-none-eabi\\include\\machine\\_default_types.h
 1351              		.file 4 "d:\\l\\program\\gcc-arm-none-eabi-10.3\\arm-none-eabi\\include\\sys\\_stdint.h"
 1352              		.file 5 "Drivers/CMSIS/Device/ST/STM32H7xx/Include/stm32h743xx.h"
 1353              		.file 6 "Drivers/CMSIS/Device/ST/STM32H7xx/Include/stm32h7xx.h"
 1354              		.file 7 "Drivers/STM32H7xx_HAL_Driver/Inc/stm32h7xx_hal_def.h"
 1355              		.file 8 "Drivers/STM32H7xx_HAL_Driver/Inc/stm32h7xx_hal_rcc.h"
 1356              		.file 9 "Drivers/STM32H7xx_HAL_Driver/Inc/stm32h7xx_hal_gpio.h"
 1357              		.file 10 "Drivers/STM32H7xx_HAL_Driver/Inc/stm32h7xx_hal_dma.h"
 1358              		.file 11 "Drivers/STM32H7xx_HAL_Driver/Inc/stm32h7xx_hal_dcmi.h"
 1359              		.file 12 "Drivers/STM32H7xx_HAL_Driver/Inc/stm32h7xx_hal_eth.h"
 1360              		.file 13 "Drivers/STM32H7xx_HAL_Driver/Inc/stm32h7xx_hal_i2c.h"
 1361              		.file 14 "Drivers/STM32H7xx_HAL_Driver/Inc/stm32h7xx_hal_lptim.h"
 1362              		.file 15 "Drivers/STM32H7xx_HAL_Driver/Inc/stm32h7xx_hal_uart.h"
 1363              		.file 16 "Drivers/STM32H7xx_HAL_Driver/Inc/stm32h7xx_ll_usb.h"
 1364              		.file 17 "Drivers/STM32H7xx_HAL_Driver/Inc/stm32h7xx_hal_pcd.h"
 1365              		.file 18 "Inc/OV7670.h"
 1366              		.file 19 "Drivers/STM32H7xx_HAL_Driver/Inc/stm32h7xx_hal_cortex.h"
 1367              		.file 20 "Drivers/STM32H7xx_HAL_Driver/Inc/stm32h7xx_hal_uart_ex.h"
 1368              		.file 21 "Drivers/STM32H7xx_HAL_Driver/Inc/stm32h7xx_hal_i2c_ex.h"
 1369              		.file 22 "Drivers/STM32H7xx_HAL_Driver/Inc/stm32h7xx_hal_pwr_ex.h"
 1370              		.file 23 "Drivers/STM32H7xx_HAL_Driver/Inc/stm32h7xx_hal.h"
 1371              		.file 24 "<built-in>"
ARM GAS  C:\Users\theto\AppData\Local\Temp\ccA3ZbEO.s 			page 45


DEFINED SYMBOLS
                            *ABS*:00000000 main.c
C:\Users\theto\AppData\Local\Temp\ccA3ZbEO.s:19     .text.MX_GPIO_Init:00000000 $t
C:\Users\theto\AppData\Local\Temp\ccA3ZbEO.s:24     .text.MX_GPIO_Init:00000000 MX_GPIO_Init
C:\Users\theto\AppData\Local\Temp\ccA3ZbEO.s:247    .text.MX_GPIO_Init:0000012c $d
C:\Users\theto\AppData\Local\Temp\ccA3ZbEO.s:256    .text.MX_DMA_Init:00000000 $t
C:\Users\theto\AppData\Local\Temp\ccA3ZbEO.s:261    .text.MX_DMA_Init:00000000 MX_DMA_Init
C:\Users\theto\AppData\Local\Temp\ccA3ZbEO.s:319    .text.MX_DMA_Init:00000044 $d
C:\Users\theto\AppData\Local\Temp\ccA3ZbEO.s:324    .text.Error_Handler:00000000 $t
C:\Users\theto\AppData\Local\Temp\ccA3ZbEO.s:330    .text.Error_Handler:00000000 Error_Handler
C:\Users\theto\AppData\Local\Temp\ccA3ZbEO.s:362    .text.MX_USB_OTG_FS_PCD_Init:00000000 $t
C:\Users\theto\AppData\Local\Temp\ccA3ZbEO.s:367    .text.MX_USB_OTG_FS_PCD_Init:00000000 MX_USB_OTG_FS_PCD_Init
C:\Users\theto\AppData\Local\Temp\ccA3ZbEO.s:432    .text.MX_USB_OTG_FS_PCD_Init:00000030 $d
C:\Users\theto\AppData\Local\Temp\ccA3ZbEO.s:438    .text.MX_DCMI_Init:00000000 $t
C:\Users\theto\AppData\Local\Temp\ccA3ZbEO.s:443    .text.MX_DCMI_Init:00000000 MX_DCMI_Init
C:\Users\theto\AppData\Local\Temp\ccA3ZbEO.s:509    .text.MX_DCMI_Init:00000030 $d
C:\Users\theto\AppData\Local\Temp\ccA3ZbEO.s:515    .text.MX_LPTIM1_Init:00000000 $t
C:\Users\theto\AppData\Local\Temp\ccA3ZbEO.s:520    .text.MX_LPTIM1_Init:00000000 MX_LPTIM1_Init
C:\Users\theto\AppData\Local\Temp\ccA3ZbEO.s:577    .text.MX_LPTIM1_Init:0000002c $d
C:\Users\theto\AppData\Local\Temp\ccA3ZbEO.s:583    .text.MX_ETH_Init:00000000 $t
C:\Users\theto\AppData\Local\Temp\ccA3ZbEO.s:588    .text.MX_ETH_Init:00000000 MX_ETH_Init
C:\Users\theto\AppData\Local\Temp\ccA3ZbEO.s:677    .text.MX_ETH_Init:00000054 $d
C:\Users\theto\AppData\Local\Temp\ccA3ZbEO.s:687    .text.MX_USART3_UART_Init:00000000 $t
C:\Users\theto\AppData\Local\Temp\ccA3ZbEO.s:692    .text.MX_USART3_UART_Init:00000000 MX_USART3_UART_Init
C:\Users\theto\AppData\Local\Temp\ccA3ZbEO.s:791    .text.MX_USART3_UART_Init:00000058 $d
C:\Users\theto\AppData\Local\Temp\ccA3ZbEO.s:797    .text.MX_I2C1_Init:00000000 $t
C:\Users\theto\AppData\Local\Temp\ccA3ZbEO.s:802    .text.MX_I2C1_Init:00000000 MX_I2C1_Init
C:\Users\theto\AppData\Local\Temp\ccA3ZbEO.s:886    .text.MX_I2C1_Init:00000050 $d
C:\Users\theto\AppData\Local\Temp\ccA3ZbEO.s:892    .text.SystemClock_Config:00000000 $t
C:\Users\theto\AppData\Local\Temp\ccA3ZbEO.s:898    .text.SystemClock_Config:00000000 SystemClock_Config
C:\Users\theto\AppData\Local\Temp\ccA3ZbEO.s:1080   .text.SystemClock_Config:000000bc $d
C:\Users\theto\AppData\Local\Temp\ccA3ZbEO.s:1086   .rodata.main.str1.4:00000000 $d
C:\Users\theto\AppData\Local\Temp\ccA3ZbEO.s:1090   .text.main:00000000 $t
C:\Users\theto\AppData\Local\Temp\ccA3ZbEO.s:1096   .text.main:00000000 main
C:\Users\theto\AppData\Local\Temp\ccA3ZbEO.s:1217   .text.main:000000a4 $d
C:\Users\theto\AppData\Local\Temp\ccA3ZbEO.s:1306   .bss.hpcd_USB_OTG_FS:00000000 hpcd_USB_OTG_FS
C:\Users\theto\AppData\Local\Temp\ccA3ZbEO.s:1313   .bss.huart3:00000000 huart3
C:\Users\theto\AppData\Local\Temp\ccA3ZbEO.s:1299   .bss.hlptim1:00000000 hlptim1
C:\Users\theto\AppData\Local\Temp\ccA3ZbEO.s:1292   .bss.hi2c1:00000000 hi2c1
C:\Users\theto\AppData\Local\Temp\ccA3ZbEO.s:1285   .bss.heth:00000000 heth
C:\Users\theto\AppData\Local\Temp\ccA3ZbEO.s:1278   .bss.hdma_dcmi:00000000 hdma_dcmi
C:\Users\theto\AppData\Local\Temp\ccA3ZbEO.s:1271   .bss.hdcmi:00000000 hdcmi
C:\Users\theto\AppData\Local\Temp\ccA3ZbEO.s:1264   .bss.TxConfig:00000000 TxConfig
C:\Users\theto\AppData\Local\Temp\ccA3ZbEO.s:1250   .TxDecripSection:00000000 DMATxDscrTab
C:\Users\theto\AppData\Local\Temp\ccA3ZbEO.s:1243   .RxDecripSection:00000000 DMARxDscrTab
C:\Users\theto\AppData\Local\Temp\ccA3ZbEO.s:1320   .data.OV7670_settings:00000000 OV7670_settings
C:\Users\theto\AppData\Local\Temp\ccA3ZbEO.s:1239   .RxDecripSection:00000000 $d
C:\Users\theto\AppData\Local\Temp\ccA3ZbEO.s:1246   .TxDecripSection:00000000 $d
C:\Users\theto\AppData\Local\Temp\ccA3ZbEO.s:1253   .bss.MACAddr.0:00000000 $d
C:\Users\theto\AppData\Local\Temp\ccA3ZbEO.s:1257   .bss.MACAddr.0:00000000 MACAddr.0
C:\Users\theto\AppData\Local\Temp\ccA3ZbEO.s:1260   .bss.TxConfig:00000000 $d
C:\Users\theto\AppData\Local\Temp\ccA3ZbEO.s:1267   .bss.hdcmi:00000000 $d
C:\Users\theto\AppData\Local\Temp\ccA3ZbEO.s:1274   .bss.hdma_dcmi:00000000 $d
C:\Users\theto\AppData\Local\Temp\ccA3ZbEO.s:1281   .bss.heth:00000000 $d
C:\Users\theto\AppData\Local\Temp\ccA3ZbEO.s:1288   .bss.hi2c1:00000000 $d
C:\Users\theto\AppData\Local\Temp\ccA3ZbEO.s:1295   .bss.hlptim1:00000000 $d
C:\Users\theto\AppData\Local\Temp\ccA3ZbEO.s:1302   .bss.hpcd_USB_OTG_FS:00000000 $d
ARM GAS  C:\Users\theto\AppData\Local\Temp\ccA3ZbEO.s 			page 46


C:\Users\theto\AppData\Local\Temp\ccA3ZbEO.s:1309   .bss.huart3:00000000 $d
C:\Users\theto\AppData\Local\Temp\ccA3ZbEO.s:1316   .data.OV7670_settings:00000000 $d

UNDEFINED SYMBOLS
HAL_GPIO_WritePin
HAL_GPIO_Init
HAL_NVIC_SetPriority
HAL_NVIC_EnableIRQ
HAL_PCD_Init
HAL_DCMI_Init
HAL_LPTIM_Init
HAL_ETH_Init
memset
HAL_UART_Init
HAL_UARTEx_SetTxFifoThreshold
HAL_UARTEx_SetRxFifoThreshold
HAL_UARTEx_DisableFifoMode
HAL_I2C_Init
HAL_I2CEx_ConfigAnalogFilter
HAL_I2CEx_ConfigDigitalFilter
HAL_PWREx_ConfigSupply
HAL_RCC_OscConfig
HAL_RCC_ClockConfig
HAL_Init
OV7670_Power
OV7670_Init
OV7670_PowerUp
OV7670_UpdateSettings
OV7670_SetFrameRate
HAL_Delay
OV7670_Start
OV7670_getImageInfo
OV7670_Stop
OV7670_PowerDown
HAL_UART_Transmit
