ARM GAS  C:\Users\theto\AppData\Local\Temp\ccKmbcIV.s 			page 1


   1              		.cpu cortex-m7
   2              		.arch armv7e-m
   3              		.fpu fpv5-d16
   4              		.eabi_attribute 28, 1
   5              		.eabi_attribute 20, 1
   6              		.eabi_attribute 21, 1
   7              		.eabi_attribute 23, 3
   8              		.eabi_attribute 24, 1
   9              		.eabi_attribute 25, 1
  10              		.eabi_attribute 26, 1
  11              		.eabi_attribute 30, 1
  12              		.eabi_attribute 34, 1
  13              		.eabi_attribute 18, 4
  14              		.file	"stm32h7xx_hal_dcmi.c"
  15              		.text
  16              	.Ltext0:
  17              		.cfi_sections	.debug_frame
  18              		.section	.text.DCMI_DMAXferCplt,"ax",%progbits
  19              		.align	1
  20              		.syntax unified
  21              		.thumb
  22              		.thumb_func
  24              	DCMI_DMAXferCplt:
  25              	.LVL0:
  26              	.LFB163:
  27              		.file 1 "Drivers/STM32H7xx_HAL_Driver/Src/stm32h7xx_hal_dcmi.c"
   1:Drivers/STM32H7xx_HAL_Driver/Src/stm32h7xx_hal_dcmi.c **** /**
   2:Drivers/STM32H7xx_HAL_Driver/Src/stm32h7xx_hal_dcmi.c ****   ******************************************************************************
   3:Drivers/STM32H7xx_HAL_Driver/Src/stm32h7xx_hal_dcmi.c ****   * @file    stm32h7xx_hal_dcmi.c
   4:Drivers/STM32H7xx_HAL_Driver/Src/stm32h7xx_hal_dcmi.c ****   * @author  MCD Application Team
   5:Drivers/STM32H7xx_HAL_Driver/Src/stm32h7xx_hal_dcmi.c ****   * @brief   DCMI HAL module driver
   6:Drivers/STM32H7xx_HAL_Driver/Src/stm32h7xx_hal_dcmi.c ****   *          This file provides firmware functions to manage the following
   7:Drivers/STM32H7xx_HAL_Driver/Src/stm32h7xx_hal_dcmi.c ****   *          functionalities of the Digital Camera Interface (DCMI) peripheral:
   8:Drivers/STM32H7xx_HAL_Driver/Src/stm32h7xx_hal_dcmi.c ****   *           + Initialization and de-initialization functions
   9:Drivers/STM32H7xx_HAL_Driver/Src/stm32h7xx_hal_dcmi.c ****   *           + IO operation functions
  10:Drivers/STM32H7xx_HAL_Driver/Src/stm32h7xx_hal_dcmi.c ****   *           + Peripheral Control functions
  11:Drivers/STM32H7xx_HAL_Driver/Src/stm32h7xx_hal_dcmi.c ****   *           + Peripheral State and Error functions
  12:Drivers/STM32H7xx_HAL_Driver/Src/stm32h7xx_hal_dcmi.c ****   *
  13:Drivers/STM32H7xx_HAL_Driver/Src/stm32h7xx_hal_dcmi.c ****   ******************************************************************************
  14:Drivers/STM32H7xx_HAL_Driver/Src/stm32h7xx_hal_dcmi.c ****   * @attention
  15:Drivers/STM32H7xx_HAL_Driver/Src/stm32h7xx_hal_dcmi.c ****   *
  16:Drivers/STM32H7xx_HAL_Driver/Src/stm32h7xx_hal_dcmi.c ****   * Copyright (c) 2017 STMicroelectronics.
  17:Drivers/STM32H7xx_HAL_Driver/Src/stm32h7xx_hal_dcmi.c ****   * All rights reserved.
  18:Drivers/STM32H7xx_HAL_Driver/Src/stm32h7xx_hal_dcmi.c ****   *
  19:Drivers/STM32H7xx_HAL_Driver/Src/stm32h7xx_hal_dcmi.c ****   * This software is licensed under terms that can be found in the LICENSE file
  20:Drivers/STM32H7xx_HAL_Driver/Src/stm32h7xx_hal_dcmi.c ****   * in the root directory of this software component.
  21:Drivers/STM32H7xx_HAL_Driver/Src/stm32h7xx_hal_dcmi.c ****   * If no LICENSE file comes with this software, it is provided AS-IS.
  22:Drivers/STM32H7xx_HAL_Driver/Src/stm32h7xx_hal_dcmi.c ****   *
  23:Drivers/STM32H7xx_HAL_Driver/Src/stm32h7xx_hal_dcmi.c ****   ******************************************************************************
  24:Drivers/STM32H7xx_HAL_Driver/Src/stm32h7xx_hal_dcmi.c ****   @verbatim
  25:Drivers/STM32H7xx_HAL_Driver/Src/stm32h7xx_hal_dcmi.c ****   ==============================================================================
  26:Drivers/STM32H7xx_HAL_Driver/Src/stm32h7xx_hal_dcmi.c ****                         ##### How to use this driver #####
  27:Drivers/STM32H7xx_HAL_Driver/Src/stm32h7xx_hal_dcmi.c ****   ==============================================================================
  28:Drivers/STM32H7xx_HAL_Driver/Src/stm32h7xx_hal_dcmi.c ****   [..]
  29:Drivers/STM32H7xx_HAL_Driver/Src/stm32h7xx_hal_dcmi.c ****       The sequence below describes how to use this driver to capture image
  30:Drivers/STM32H7xx_HAL_Driver/Src/stm32h7xx_hal_dcmi.c ****       from a camera module connected to the DCMI Interface.
  31:Drivers/STM32H7xx_HAL_Driver/Src/stm32h7xx_hal_dcmi.c ****       This sequence does not take into account the configuration of the
ARM GAS  C:\Users\theto\AppData\Local\Temp\ccKmbcIV.s 			page 2


  32:Drivers/STM32H7xx_HAL_Driver/Src/stm32h7xx_hal_dcmi.c ****       camera module, which should be made before to configure and enable
  33:Drivers/STM32H7xx_HAL_Driver/Src/stm32h7xx_hal_dcmi.c ****       the DCMI to capture images.
  34:Drivers/STM32H7xx_HAL_Driver/Src/stm32h7xx_hal_dcmi.c **** 
  35:Drivers/STM32H7xx_HAL_Driver/Src/stm32h7xx_hal_dcmi.c ****     (#) Program the required configuration through following parameters:
  36:Drivers/STM32H7xx_HAL_Driver/Src/stm32h7xx_hal_dcmi.c ****         horizontal and vertical polarity, pixel clock polarity, Capture Rate,
  37:Drivers/STM32H7xx_HAL_Driver/Src/stm32h7xx_hal_dcmi.c ****         Synchronization Mode, code of the frame delimiter and data width
  38:Drivers/STM32H7xx_HAL_Driver/Src/stm32h7xx_hal_dcmi.c ****         using HAL_DCMI_Init() function.
  39:Drivers/STM32H7xx_HAL_Driver/Src/stm32h7xx_hal_dcmi.c **** 
  40:Drivers/STM32H7xx_HAL_Driver/Src/stm32h7xx_hal_dcmi.c ****     (#) Configure the selected DMA stream to transfer Data from DCMI DR
  41:Drivers/STM32H7xx_HAL_Driver/Src/stm32h7xx_hal_dcmi.c ****         register to the destination memory buffer.
  42:Drivers/STM32H7xx_HAL_Driver/Src/stm32h7xx_hal_dcmi.c **** 
  43:Drivers/STM32H7xx_HAL_Driver/Src/stm32h7xx_hal_dcmi.c ****     (#) Program the required configuration through following parameters:
  44:Drivers/STM32H7xx_HAL_Driver/Src/stm32h7xx_hal_dcmi.c ****         DCMI mode, destination memory Buffer address and the data length
  45:Drivers/STM32H7xx_HAL_Driver/Src/stm32h7xx_hal_dcmi.c ****         and enable capture using HAL_DCMI_Start_DMA() function.
  46:Drivers/STM32H7xx_HAL_Driver/Src/stm32h7xx_hal_dcmi.c **** 
  47:Drivers/STM32H7xx_HAL_Driver/Src/stm32h7xx_hal_dcmi.c ****     (#) Optionally, configure and Enable the CROP feature to select a rectangular
  48:Drivers/STM32H7xx_HAL_Driver/Src/stm32h7xx_hal_dcmi.c ****         window from the received image using HAL_DCMI_ConfigCrop()
  49:Drivers/STM32H7xx_HAL_Driver/Src/stm32h7xx_hal_dcmi.c ****         and HAL_DCMI_EnableCrop() functions
  50:Drivers/STM32H7xx_HAL_Driver/Src/stm32h7xx_hal_dcmi.c **** 
  51:Drivers/STM32H7xx_HAL_Driver/Src/stm32h7xx_hal_dcmi.c ****     (#) The capture can be stopped using HAL_DCMI_Stop() function.
  52:Drivers/STM32H7xx_HAL_Driver/Src/stm32h7xx_hal_dcmi.c **** 
  53:Drivers/STM32H7xx_HAL_Driver/Src/stm32h7xx_hal_dcmi.c ****     (#) To control DCMI state you can use the function HAL_DCMI_GetState().
  54:Drivers/STM32H7xx_HAL_Driver/Src/stm32h7xx_hal_dcmi.c **** 
  55:Drivers/STM32H7xx_HAL_Driver/Src/stm32h7xx_hal_dcmi.c ****      *** Callback registration ***
  56:Drivers/STM32H7xx_HAL_Driver/Src/stm32h7xx_hal_dcmi.c ****      =============================================
  57:Drivers/STM32H7xx_HAL_Driver/Src/stm32h7xx_hal_dcmi.c **** 
  58:Drivers/STM32H7xx_HAL_Driver/Src/stm32h7xx_hal_dcmi.c ****      The compilation flag USE_HAL_DCMI_REGISTER_CALLBACKS when set to 1
  59:Drivers/STM32H7xx_HAL_Driver/Src/stm32h7xx_hal_dcmi.c ****      allows the user to configure dynamically the driver callbacks.
  60:Drivers/STM32H7xx_HAL_Driver/Src/stm32h7xx_hal_dcmi.c ****      Use Functions HAL_DCMI_RegisterCallback() to register an interrupt callback.
  61:Drivers/STM32H7xx_HAL_Driver/Src/stm32h7xx_hal_dcmi.c **** 
  62:Drivers/STM32H7xx_HAL_Driver/Src/stm32h7xx_hal_dcmi.c ****      Function HAL_DCMI_RegisterCallback() allows to register following callbacks:
  63:Drivers/STM32H7xx_HAL_Driver/Src/stm32h7xx_hal_dcmi.c ****        (+) LineEventCallback    : callback for DCMI line event.
  64:Drivers/STM32H7xx_HAL_Driver/Src/stm32h7xx_hal_dcmi.c ****        (+) FrameEventCallback   : callback for DCMI Frame event.
  65:Drivers/STM32H7xx_HAL_Driver/Src/stm32h7xx_hal_dcmi.c ****        (+) VsyncEventCallback   : callback for DCMI Vsync event.
  66:Drivers/STM32H7xx_HAL_Driver/Src/stm32h7xx_hal_dcmi.c ****        (+) ErrorCallback        : callback for error detection.
  67:Drivers/STM32H7xx_HAL_Driver/Src/stm32h7xx_hal_dcmi.c ****        (+) MspInitCallback      : callback for Msp Init.
  68:Drivers/STM32H7xx_HAL_Driver/Src/stm32h7xx_hal_dcmi.c ****        (+) MspDeInitCallback    : callback for Msp DeInit.
  69:Drivers/STM32H7xx_HAL_Driver/Src/stm32h7xx_hal_dcmi.c ****      This function takes as parameters the HAL peripheral handle, the Callback ID
  70:Drivers/STM32H7xx_HAL_Driver/Src/stm32h7xx_hal_dcmi.c ****      and a pointer to the user callback function.
  71:Drivers/STM32H7xx_HAL_Driver/Src/stm32h7xx_hal_dcmi.c **** 
  72:Drivers/STM32H7xx_HAL_Driver/Src/stm32h7xx_hal_dcmi.c ****      Use function HAL_DCMI_UnRegisterCallback to reset a callback to the default weak function.
  73:Drivers/STM32H7xx_HAL_Driver/Src/stm32h7xx_hal_dcmi.c ****      HAL_DCMI_UnRegisterCallback takes as parameters the HAL peripheral handle and the Callback ID.
  74:Drivers/STM32H7xx_HAL_Driver/Src/stm32h7xx_hal_dcmi.c ****      This function allows to reset following callbacks:
  75:Drivers/STM32H7xx_HAL_Driver/Src/stm32h7xx_hal_dcmi.c ****        (+) LineEventCallback    : callback for DCMI line event.
  76:Drivers/STM32H7xx_HAL_Driver/Src/stm32h7xx_hal_dcmi.c ****        (+) FrameEventCallback   : callback for DCMI Frame event.
  77:Drivers/STM32H7xx_HAL_Driver/Src/stm32h7xx_hal_dcmi.c ****        (+) VsyncEventCallback   : callback for DCMI Vsync event.
  78:Drivers/STM32H7xx_HAL_Driver/Src/stm32h7xx_hal_dcmi.c ****        (+) ErrorCallback        : callback for error detection.
  79:Drivers/STM32H7xx_HAL_Driver/Src/stm32h7xx_hal_dcmi.c ****        (+) MspInitCallback      : callback for Msp Init.
  80:Drivers/STM32H7xx_HAL_Driver/Src/stm32h7xx_hal_dcmi.c ****        (+) MspDeInitCallback    : callback for Msp DeInit.
  81:Drivers/STM32H7xx_HAL_Driver/Src/stm32h7xx_hal_dcmi.c **** 
  82:Drivers/STM32H7xx_HAL_Driver/Src/stm32h7xx_hal_dcmi.c ****      By default, after the HAL_DCMI_Init() and when the state is HAL_DCMI_STATE_RESET
  83:Drivers/STM32H7xx_HAL_Driver/Src/stm32h7xx_hal_dcmi.c ****      all callbacks are set to the corresponding weak functions:
  84:Drivers/STM32H7xx_HAL_Driver/Src/stm32h7xx_hal_dcmi.c ****      examples HAL_DCMI_LineEventCallback(), HAL_DCMI_FrameEventCallback().
  85:Drivers/STM32H7xx_HAL_Driver/Src/stm32h7xx_hal_dcmi.c ****      Exception done for MspInit and MspDeInit functions that are
  86:Drivers/STM32H7xx_HAL_Driver/Src/stm32h7xx_hal_dcmi.c ****      reset to the legacy weak functions in the HAL_DCMI_Init()/ HAL_DCMI_DeInit() only when
  87:Drivers/STM32H7xx_HAL_Driver/Src/stm32h7xx_hal_dcmi.c ****      these callbacks are null (not registered beforehand).
  88:Drivers/STM32H7xx_HAL_Driver/Src/stm32h7xx_hal_dcmi.c ****      If MspInit or MspDeInit are not null, the HAL_DCMI_Init()/ HAL_DCMI_DeInit()
ARM GAS  C:\Users\theto\AppData\Local\Temp\ccKmbcIV.s 			page 3


  89:Drivers/STM32H7xx_HAL_Driver/Src/stm32h7xx_hal_dcmi.c ****      keep and use the user MspInit/MspDeInit callbacks (registered beforehand) whatever the state.
  90:Drivers/STM32H7xx_HAL_Driver/Src/stm32h7xx_hal_dcmi.c **** 
  91:Drivers/STM32H7xx_HAL_Driver/Src/stm32h7xx_hal_dcmi.c ****      Callbacks can be registered/unregistered in HAL_DCMI_STATE_READY state only.
  92:Drivers/STM32H7xx_HAL_Driver/Src/stm32h7xx_hal_dcmi.c ****      Exception done MspInit/MspDeInit functions that can be registered/unregistered
  93:Drivers/STM32H7xx_HAL_Driver/Src/stm32h7xx_hal_dcmi.c ****      in HAL_DCMI_STATE_READY or HAL_DCMI_STATE_RESET state,
  94:Drivers/STM32H7xx_HAL_Driver/Src/stm32h7xx_hal_dcmi.c ****      thus registered (user) MspInit/DeInit callbacks can be used during the Init/DeInit.
  95:Drivers/STM32H7xx_HAL_Driver/Src/stm32h7xx_hal_dcmi.c ****      In that case first register the MspInit/MspDeInit user callbacks
  96:Drivers/STM32H7xx_HAL_Driver/Src/stm32h7xx_hal_dcmi.c ****      using HAL_DCMI_RegisterCallback() before calling HAL_DCMI_DeInit() or HAL_DCMI_Init() function
  97:Drivers/STM32H7xx_HAL_Driver/Src/stm32h7xx_hal_dcmi.c **** 
  98:Drivers/STM32H7xx_HAL_Driver/Src/stm32h7xx_hal_dcmi.c ****      When the compilation flag USE_HAL_DCMI_REGISTER_CALLBACKS is set to 0 or
  99:Drivers/STM32H7xx_HAL_Driver/Src/stm32h7xx_hal_dcmi.c ****      not defined, the callback registration feature is not available and all callbacks
 100:Drivers/STM32H7xx_HAL_Driver/Src/stm32h7xx_hal_dcmi.c ****      are set to the corresponding weak functions.
 101:Drivers/STM32H7xx_HAL_Driver/Src/stm32h7xx_hal_dcmi.c **** 
 102:Drivers/STM32H7xx_HAL_Driver/Src/stm32h7xx_hal_dcmi.c ****      *** DCMI HAL driver macros list ***
 103:Drivers/STM32H7xx_HAL_Driver/Src/stm32h7xx_hal_dcmi.c ****      =============================================
 104:Drivers/STM32H7xx_HAL_Driver/Src/stm32h7xx_hal_dcmi.c ****      [..]
 105:Drivers/STM32H7xx_HAL_Driver/Src/stm32h7xx_hal_dcmi.c ****        Below the list of most used macros in DCMI HAL driver.
 106:Drivers/STM32H7xx_HAL_Driver/Src/stm32h7xx_hal_dcmi.c **** 
 107:Drivers/STM32H7xx_HAL_Driver/Src/stm32h7xx_hal_dcmi.c ****       (+) __HAL_DCMI_ENABLE: Enable the DCMI peripheral.
 108:Drivers/STM32H7xx_HAL_Driver/Src/stm32h7xx_hal_dcmi.c ****       (+) __HAL_DCMI_DISABLE: Disable the DCMI peripheral.
 109:Drivers/STM32H7xx_HAL_Driver/Src/stm32h7xx_hal_dcmi.c ****       (+) __HAL_DCMI_GET_FLAG: Get the DCMI pending flags.
 110:Drivers/STM32H7xx_HAL_Driver/Src/stm32h7xx_hal_dcmi.c ****       (+) __HAL_DCMI_CLEAR_FLAG: Clear the DCMI pending flags.
 111:Drivers/STM32H7xx_HAL_Driver/Src/stm32h7xx_hal_dcmi.c ****       (+) __HAL_DCMI_ENABLE_IT: Enable the specified DCMI interrupts.
 112:Drivers/STM32H7xx_HAL_Driver/Src/stm32h7xx_hal_dcmi.c ****       (+) __HAL_DCMI_DISABLE_IT: Disable the specified DCMI interrupts.
 113:Drivers/STM32H7xx_HAL_Driver/Src/stm32h7xx_hal_dcmi.c ****       (+) __HAL_DCMI_GET_IT_SOURCE: Check whether the specified DCMI interrupt has occurred or not.
 114:Drivers/STM32H7xx_HAL_Driver/Src/stm32h7xx_hal_dcmi.c **** 
 115:Drivers/STM32H7xx_HAL_Driver/Src/stm32h7xx_hal_dcmi.c ****      [..]
 116:Drivers/STM32H7xx_HAL_Driver/Src/stm32h7xx_hal_dcmi.c ****        (@) You can refer to the DCMI HAL driver header file for more useful macros
 117:Drivers/STM32H7xx_HAL_Driver/Src/stm32h7xx_hal_dcmi.c **** 
 118:Drivers/STM32H7xx_HAL_Driver/Src/stm32h7xx_hal_dcmi.c ****   @endverbatim
 119:Drivers/STM32H7xx_HAL_Driver/Src/stm32h7xx_hal_dcmi.c ****   */
 120:Drivers/STM32H7xx_HAL_Driver/Src/stm32h7xx_hal_dcmi.c **** 
 121:Drivers/STM32H7xx_HAL_Driver/Src/stm32h7xx_hal_dcmi.c **** /* Includes ------------------------------------------------------------------*/
 122:Drivers/STM32H7xx_HAL_Driver/Src/stm32h7xx_hal_dcmi.c **** #include "stm32h7xx_hal.h"
 123:Drivers/STM32H7xx_HAL_Driver/Src/stm32h7xx_hal_dcmi.c **** 
 124:Drivers/STM32H7xx_HAL_Driver/Src/stm32h7xx_hal_dcmi.c **** /** @addtogroup STM32H7xx_HAL_Driver
 125:Drivers/STM32H7xx_HAL_Driver/Src/stm32h7xx_hal_dcmi.c ****   * @{
 126:Drivers/STM32H7xx_HAL_Driver/Src/stm32h7xx_hal_dcmi.c ****   */
 127:Drivers/STM32H7xx_HAL_Driver/Src/stm32h7xx_hal_dcmi.c **** /** @defgroup DCMI DCMI
 128:Drivers/STM32H7xx_HAL_Driver/Src/stm32h7xx_hal_dcmi.c ****   * @brief DCMI HAL module driver
 129:Drivers/STM32H7xx_HAL_Driver/Src/stm32h7xx_hal_dcmi.c ****   * @{
 130:Drivers/STM32H7xx_HAL_Driver/Src/stm32h7xx_hal_dcmi.c ****   */
 131:Drivers/STM32H7xx_HAL_Driver/Src/stm32h7xx_hal_dcmi.c **** 
 132:Drivers/STM32H7xx_HAL_Driver/Src/stm32h7xx_hal_dcmi.c **** #ifdef HAL_DCMI_MODULE_ENABLED
 133:Drivers/STM32H7xx_HAL_Driver/Src/stm32h7xx_hal_dcmi.c **** #if defined (DCMI)
 134:Drivers/STM32H7xx_HAL_Driver/Src/stm32h7xx_hal_dcmi.c **** 
 135:Drivers/STM32H7xx_HAL_Driver/Src/stm32h7xx_hal_dcmi.c **** /* Private typedef -----------------------------------------------------------*/
 136:Drivers/STM32H7xx_HAL_Driver/Src/stm32h7xx_hal_dcmi.c **** /* Private define ------------------------------------------------------------*/
 137:Drivers/STM32H7xx_HAL_Driver/Src/stm32h7xx_hal_dcmi.c **** /** @addtogroup DCMI_Private_Defines
 138:Drivers/STM32H7xx_HAL_Driver/Src/stm32h7xx_hal_dcmi.c ****   * @{
 139:Drivers/STM32H7xx_HAL_Driver/Src/stm32h7xx_hal_dcmi.c ****   */
 140:Drivers/STM32H7xx_HAL_Driver/Src/stm32h7xx_hal_dcmi.c **** #define HAL_TIMEOUT_DCMI_STOP    ((uint32_t)1000) /* Set timeout to 1s  */
 141:Drivers/STM32H7xx_HAL_Driver/Src/stm32h7xx_hal_dcmi.c **** /**
 142:Drivers/STM32H7xx_HAL_Driver/Src/stm32h7xx_hal_dcmi.c ****   * @}
 143:Drivers/STM32H7xx_HAL_Driver/Src/stm32h7xx_hal_dcmi.c ****   */
 144:Drivers/STM32H7xx_HAL_Driver/Src/stm32h7xx_hal_dcmi.c **** /* Private macro -------------------------------------------------------------*/
 145:Drivers/STM32H7xx_HAL_Driver/Src/stm32h7xx_hal_dcmi.c **** /* Private variables ---------------------------------------------------------*/
ARM GAS  C:\Users\theto\AppData\Local\Temp\ccKmbcIV.s 			page 4


 146:Drivers/STM32H7xx_HAL_Driver/Src/stm32h7xx_hal_dcmi.c **** /* Private function prototypes -----------------------------------------------*/
 147:Drivers/STM32H7xx_HAL_Driver/Src/stm32h7xx_hal_dcmi.c **** static void       DCMI_DMAXferCplt(DMA_HandleTypeDef *hdma);
 148:Drivers/STM32H7xx_HAL_Driver/Src/stm32h7xx_hal_dcmi.c **** static void       DCMI_DMAError(DMA_HandleTypeDef *hdma);
 149:Drivers/STM32H7xx_HAL_Driver/Src/stm32h7xx_hal_dcmi.c **** 
 150:Drivers/STM32H7xx_HAL_Driver/Src/stm32h7xx_hal_dcmi.c **** /* Exported functions --------------------------------------------------------*/
 151:Drivers/STM32H7xx_HAL_Driver/Src/stm32h7xx_hal_dcmi.c **** 
 152:Drivers/STM32H7xx_HAL_Driver/Src/stm32h7xx_hal_dcmi.c **** /** @defgroup DCMI_Exported_Functions DCMI Exported Functions
 153:Drivers/STM32H7xx_HAL_Driver/Src/stm32h7xx_hal_dcmi.c ****   * @{
 154:Drivers/STM32H7xx_HAL_Driver/Src/stm32h7xx_hal_dcmi.c ****   */
 155:Drivers/STM32H7xx_HAL_Driver/Src/stm32h7xx_hal_dcmi.c **** 
 156:Drivers/STM32H7xx_HAL_Driver/Src/stm32h7xx_hal_dcmi.c **** /** @defgroup DCMI_Exported_Functions_Group1 Initialization and Configuration functions
 157:Drivers/STM32H7xx_HAL_Driver/Src/stm32h7xx_hal_dcmi.c ****  *  @brief   Initialization and Configuration functions
 158:Drivers/STM32H7xx_HAL_Driver/Src/stm32h7xx_hal_dcmi.c ****  *
 159:Drivers/STM32H7xx_HAL_Driver/Src/stm32h7xx_hal_dcmi.c **** @verbatim
 160:Drivers/STM32H7xx_HAL_Driver/Src/stm32h7xx_hal_dcmi.c ****  ===============================================================================
 161:Drivers/STM32H7xx_HAL_Driver/Src/stm32h7xx_hal_dcmi.c ****                 ##### Initialization and Configuration functions #####
 162:Drivers/STM32H7xx_HAL_Driver/Src/stm32h7xx_hal_dcmi.c ****  ===============================================================================
 163:Drivers/STM32H7xx_HAL_Driver/Src/stm32h7xx_hal_dcmi.c ****     [..]  This section provides functions allowing to:
 164:Drivers/STM32H7xx_HAL_Driver/Src/stm32h7xx_hal_dcmi.c ****       (+) Initialize and configure the DCMI
 165:Drivers/STM32H7xx_HAL_Driver/Src/stm32h7xx_hal_dcmi.c ****       (+) De-initialize the DCMI
 166:Drivers/STM32H7xx_HAL_Driver/Src/stm32h7xx_hal_dcmi.c **** 
 167:Drivers/STM32H7xx_HAL_Driver/Src/stm32h7xx_hal_dcmi.c **** @endverbatim
 168:Drivers/STM32H7xx_HAL_Driver/Src/stm32h7xx_hal_dcmi.c ****   * @{
 169:Drivers/STM32H7xx_HAL_Driver/Src/stm32h7xx_hal_dcmi.c ****   */
 170:Drivers/STM32H7xx_HAL_Driver/Src/stm32h7xx_hal_dcmi.c **** 
 171:Drivers/STM32H7xx_HAL_Driver/Src/stm32h7xx_hal_dcmi.c **** /**
 172:Drivers/STM32H7xx_HAL_Driver/Src/stm32h7xx_hal_dcmi.c ****   * @brief  Initializes the DCMI according to the specified
 173:Drivers/STM32H7xx_HAL_Driver/Src/stm32h7xx_hal_dcmi.c ****   *         parameters in the DCMI_InitTypeDef and create the associated handle.
 174:Drivers/STM32H7xx_HAL_Driver/Src/stm32h7xx_hal_dcmi.c ****   * @param  hdcmi pointer to a DCMI_HandleTypeDef structure that contains
 175:Drivers/STM32H7xx_HAL_Driver/Src/stm32h7xx_hal_dcmi.c ****   *                the configuration information for DCMI.
 176:Drivers/STM32H7xx_HAL_Driver/Src/stm32h7xx_hal_dcmi.c ****   * @retval HAL status
 177:Drivers/STM32H7xx_HAL_Driver/Src/stm32h7xx_hal_dcmi.c ****   */
 178:Drivers/STM32H7xx_HAL_Driver/Src/stm32h7xx_hal_dcmi.c **** HAL_StatusTypeDef HAL_DCMI_Init(DCMI_HandleTypeDef *hdcmi)
 179:Drivers/STM32H7xx_HAL_Driver/Src/stm32h7xx_hal_dcmi.c **** {
 180:Drivers/STM32H7xx_HAL_Driver/Src/stm32h7xx_hal_dcmi.c ****   /* Check the DCMI peripheral state */
 181:Drivers/STM32H7xx_HAL_Driver/Src/stm32h7xx_hal_dcmi.c ****   if (hdcmi == NULL)
 182:Drivers/STM32H7xx_HAL_Driver/Src/stm32h7xx_hal_dcmi.c ****   {
 183:Drivers/STM32H7xx_HAL_Driver/Src/stm32h7xx_hal_dcmi.c ****     return HAL_ERROR;
 184:Drivers/STM32H7xx_HAL_Driver/Src/stm32h7xx_hal_dcmi.c ****   }
 185:Drivers/STM32H7xx_HAL_Driver/Src/stm32h7xx_hal_dcmi.c **** 
 186:Drivers/STM32H7xx_HAL_Driver/Src/stm32h7xx_hal_dcmi.c ****   /* Check function parameters */
 187:Drivers/STM32H7xx_HAL_Driver/Src/stm32h7xx_hal_dcmi.c ****   assert_param(IS_DCMI_ALL_INSTANCE(hdcmi->Instance));
 188:Drivers/STM32H7xx_HAL_Driver/Src/stm32h7xx_hal_dcmi.c ****   assert_param(IS_DCMI_PCKPOLARITY(hdcmi->Init.PCKPolarity));
 189:Drivers/STM32H7xx_HAL_Driver/Src/stm32h7xx_hal_dcmi.c ****   assert_param(IS_DCMI_VSPOLARITY(hdcmi->Init.VSPolarity));
 190:Drivers/STM32H7xx_HAL_Driver/Src/stm32h7xx_hal_dcmi.c ****   assert_param(IS_DCMI_HSPOLARITY(hdcmi->Init.HSPolarity));
 191:Drivers/STM32H7xx_HAL_Driver/Src/stm32h7xx_hal_dcmi.c ****   assert_param(IS_DCMI_SYNCHRO(hdcmi->Init.SynchroMode));
 192:Drivers/STM32H7xx_HAL_Driver/Src/stm32h7xx_hal_dcmi.c ****   assert_param(IS_DCMI_CAPTURE_RATE(hdcmi->Init.CaptureRate));
 193:Drivers/STM32H7xx_HAL_Driver/Src/stm32h7xx_hal_dcmi.c ****   assert_param(IS_DCMI_EXTENDED_DATA(hdcmi->Init.ExtendedDataMode));
 194:Drivers/STM32H7xx_HAL_Driver/Src/stm32h7xx_hal_dcmi.c ****   assert_param(IS_DCMI_MODE_JPEG(hdcmi->Init.JPEGMode));
 195:Drivers/STM32H7xx_HAL_Driver/Src/stm32h7xx_hal_dcmi.c **** 
 196:Drivers/STM32H7xx_HAL_Driver/Src/stm32h7xx_hal_dcmi.c ****   assert_param(IS_DCMI_BYTE_SELECT_MODE(hdcmi->Init.ByteSelectMode));
 197:Drivers/STM32H7xx_HAL_Driver/Src/stm32h7xx_hal_dcmi.c ****   assert_param(IS_DCMI_BYTE_SELECT_START(hdcmi->Init.ByteSelectStart));
 198:Drivers/STM32H7xx_HAL_Driver/Src/stm32h7xx_hal_dcmi.c ****   assert_param(IS_DCMI_LINE_SELECT_MODE(hdcmi->Init.LineSelectMode));
 199:Drivers/STM32H7xx_HAL_Driver/Src/stm32h7xx_hal_dcmi.c ****   assert_param(IS_DCMI_LINE_SELECT_START(hdcmi->Init.LineSelectStart));
 200:Drivers/STM32H7xx_HAL_Driver/Src/stm32h7xx_hal_dcmi.c **** 
 201:Drivers/STM32H7xx_HAL_Driver/Src/stm32h7xx_hal_dcmi.c ****   if (hdcmi->State == HAL_DCMI_STATE_RESET)
 202:Drivers/STM32H7xx_HAL_Driver/Src/stm32h7xx_hal_dcmi.c ****   {
ARM GAS  C:\Users\theto\AppData\Local\Temp\ccKmbcIV.s 			page 5


 203:Drivers/STM32H7xx_HAL_Driver/Src/stm32h7xx_hal_dcmi.c ****     /* Init the DCMI Callback settings */
 204:Drivers/STM32H7xx_HAL_Driver/Src/stm32h7xx_hal_dcmi.c **** #if (USE_HAL_DCMI_REGISTER_CALLBACKS == 1)
 205:Drivers/STM32H7xx_HAL_Driver/Src/stm32h7xx_hal_dcmi.c ****     /* Reset callback pointers to the weak predefined callbacks */
 206:Drivers/STM32H7xx_HAL_Driver/Src/stm32h7xx_hal_dcmi.c ****     hdcmi->FrameEventCallback = HAL_DCMI_FrameEventCallback; /* Legacy weak FrameEventCallback  */
 207:Drivers/STM32H7xx_HAL_Driver/Src/stm32h7xx_hal_dcmi.c ****     hdcmi->VsyncEventCallback = HAL_DCMI_VsyncEventCallback; /* Legacy weak VsyncEventCallback  */
 208:Drivers/STM32H7xx_HAL_Driver/Src/stm32h7xx_hal_dcmi.c ****     hdcmi->LineEventCallback  = HAL_DCMI_LineEventCallback;  /* Legacy weak LineEventCallback   */
 209:Drivers/STM32H7xx_HAL_Driver/Src/stm32h7xx_hal_dcmi.c ****     hdcmi->ErrorCallback      = HAL_DCMI_ErrorCallback;      /* Legacy weak ErrorCallback       */
 210:Drivers/STM32H7xx_HAL_Driver/Src/stm32h7xx_hal_dcmi.c **** 
 211:Drivers/STM32H7xx_HAL_Driver/Src/stm32h7xx_hal_dcmi.c ****     if (hdcmi->MspInitCallback == NULL)
 212:Drivers/STM32H7xx_HAL_Driver/Src/stm32h7xx_hal_dcmi.c ****     {
 213:Drivers/STM32H7xx_HAL_Driver/Src/stm32h7xx_hal_dcmi.c ****       /* Legacy weak MspInit Callback        */
 214:Drivers/STM32H7xx_HAL_Driver/Src/stm32h7xx_hal_dcmi.c ****       hdcmi->MspInitCallback = HAL_DCMI_MspInit;
 215:Drivers/STM32H7xx_HAL_Driver/Src/stm32h7xx_hal_dcmi.c ****     }
 216:Drivers/STM32H7xx_HAL_Driver/Src/stm32h7xx_hal_dcmi.c ****     /* Initialize the low level hardware (MSP) */
 217:Drivers/STM32H7xx_HAL_Driver/Src/stm32h7xx_hal_dcmi.c ****     hdcmi->MspInitCallback(hdcmi);
 218:Drivers/STM32H7xx_HAL_Driver/Src/stm32h7xx_hal_dcmi.c **** #else
 219:Drivers/STM32H7xx_HAL_Driver/Src/stm32h7xx_hal_dcmi.c ****     /* Init the low level hardware : GPIO, CLOCK, NVIC and DMA */
 220:Drivers/STM32H7xx_HAL_Driver/Src/stm32h7xx_hal_dcmi.c ****     HAL_DCMI_MspInit(hdcmi);
 221:Drivers/STM32H7xx_HAL_Driver/Src/stm32h7xx_hal_dcmi.c **** #endif /* (USE_HAL_DCMI_REGISTER_CALLBACKS) */
 222:Drivers/STM32H7xx_HAL_Driver/Src/stm32h7xx_hal_dcmi.c ****   }
 223:Drivers/STM32H7xx_HAL_Driver/Src/stm32h7xx_hal_dcmi.c **** 
 224:Drivers/STM32H7xx_HAL_Driver/Src/stm32h7xx_hal_dcmi.c ****   /* Change the DCMI state */
 225:Drivers/STM32H7xx_HAL_Driver/Src/stm32h7xx_hal_dcmi.c ****   hdcmi->State = HAL_DCMI_STATE_BUSY;
 226:Drivers/STM32H7xx_HAL_Driver/Src/stm32h7xx_hal_dcmi.c **** 
 227:Drivers/STM32H7xx_HAL_Driver/Src/stm32h7xx_hal_dcmi.c ****   if (hdcmi->Init.ExtendedDataMode != DCMI_EXTEND_DATA_8B)
 228:Drivers/STM32H7xx_HAL_Driver/Src/stm32h7xx_hal_dcmi.c ****   {
 229:Drivers/STM32H7xx_HAL_Driver/Src/stm32h7xx_hal_dcmi.c ****     /* Byte select mode must be programmed to the reset value if the extended mode
 230:Drivers/STM32H7xx_HAL_Driver/Src/stm32h7xx_hal_dcmi.c ****     is not set to 8-bit data capture on every pixel clock */
 231:Drivers/STM32H7xx_HAL_Driver/Src/stm32h7xx_hal_dcmi.c ****     hdcmi->Init.ByteSelectMode = DCMI_BSM_ALL;
 232:Drivers/STM32H7xx_HAL_Driver/Src/stm32h7xx_hal_dcmi.c ****   }
 233:Drivers/STM32H7xx_HAL_Driver/Src/stm32h7xx_hal_dcmi.c ****   /* Configures the HS, VS, DE and PC polarity */
 234:Drivers/STM32H7xx_HAL_Driver/Src/stm32h7xx_hal_dcmi.c ****   hdcmi->Instance->CR &= ~(DCMI_CR_PCKPOL | DCMI_CR_HSPOL  | DCMI_CR_VSPOL  | DCMI_CR_EDM_0 | \
 235:Drivers/STM32H7xx_HAL_Driver/Src/stm32h7xx_hal_dcmi.c ****                            DCMI_CR_EDM_1  | DCMI_CR_FCRC_0 | DCMI_CR_FCRC_1 | DCMI_CR_JPEG  | \
 236:Drivers/STM32H7xx_HAL_Driver/Src/stm32h7xx_hal_dcmi.c ****                            DCMI_CR_ESS | DCMI_CR_BSM_0 | DCMI_CR_BSM_1 | DCMI_CR_OEBS | \
 237:Drivers/STM32H7xx_HAL_Driver/Src/stm32h7xx_hal_dcmi.c ****                            DCMI_CR_LSM | DCMI_CR_OELS);
 238:Drivers/STM32H7xx_HAL_Driver/Src/stm32h7xx_hal_dcmi.c **** 
 239:Drivers/STM32H7xx_HAL_Driver/Src/stm32h7xx_hal_dcmi.c ****   hdcmi->Instance->CR |= (uint32_t)(hdcmi->Init.SynchroMode | hdcmi->Init.CaptureRate | \
 240:Drivers/STM32H7xx_HAL_Driver/Src/stm32h7xx_hal_dcmi.c ****                                     hdcmi->Init.VSPolarity  | hdcmi->Init.HSPolarity  | \
 241:Drivers/STM32H7xx_HAL_Driver/Src/stm32h7xx_hal_dcmi.c ****                                     hdcmi->Init.PCKPolarity | hdcmi->Init.ExtendedDataMode | \
 242:Drivers/STM32H7xx_HAL_Driver/Src/stm32h7xx_hal_dcmi.c ****                                     hdcmi->Init.JPEGMode | hdcmi->Init.ByteSelectMode | \
 243:Drivers/STM32H7xx_HAL_Driver/Src/stm32h7xx_hal_dcmi.c ****                                     hdcmi->Init.ByteSelectStart | hdcmi->Init.LineSelectMode | \
 244:Drivers/STM32H7xx_HAL_Driver/Src/stm32h7xx_hal_dcmi.c ****                                     hdcmi->Init.LineSelectStart);
 245:Drivers/STM32H7xx_HAL_Driver/Src/stm32h7xx_hal_dcmi.c **** 
 246:Drivers/STM32H7xx_HAL_Driver/Src/stm32h7xx_hal_dcmi.c ****   if (hdcmi->Init.SynchroMode == DCMI_SYNCHRO_EMBEDDED)
 247:Drivers/STM32H7xx_HAL_Driver/Src/stm32h7xx_hal_dcmi.c ****   {
 248:Drivers/STM32H7xx_HAL_Driver/Src/stm32h7xx_hal_dcmi.c ****     hdcmi->Instance->ESCR = (((uint32_t)hdcmi->Init.SyncroCode.FrameStartCode)    | \
 249:Drivers/STM32H7xx_HAL_Driver/Src/stm32h7xx_hal_dcmi.c ****                              ((uint32_t)hdcmi->Init.SyncroCode.LineStartCode << DCMI_ESCR_LSC_Pos) 
 250:Drivers/STM32H7xx_HAL_Driver/Src/stm32h7xx_hal_dcmi.c ****                              ((uint32_t)hdcmi->Init.SyncroCode.LineEndCode << DCMI_ESCR_LEC_Pos) | 
 251:Drivers/STM32H7xx_HAL_Driver/Src/stm32h7xx_hal_dcmi.c ****                              ((uint32_t)hdcmi->Init.SyncroCode.FrameEndCode << DCMI_ESCR_FEC_Pos));
 252:Drivers/STM32H7xx_HAL_Driver/Src/stm32h7xx_hal_dcmi.c **** 
 253:Drivers/STM32H7xx_HAL_Driver/Src/stm32h7xx_hal_dcmi.c ****   }
 254:Drivers/STM32H7xx_HAL_Driver/Src/stm32h7xx_hal_dcmi.c **** 
 255:Drivers/STM32H7xx_HAL_Driver/Src/stm32h7xx_hal_dcmi.c ****   /* Enable the Line, Vsync, Error and Overrun interrupts */
 256:Drivers/STM32H7xx_HAL_Driver/Src/stm32h7xx_hal_dcmi.c ****   __HAL_DCMI_ENABLE_IT(hdcmi, DCMI_IT_LINE | DCMI_IT_VSYNC | DCMI_IT_ERR | DCMI_IT_OVR);
 257:Drivers/STM32H7xx_HAL_Driver/Src/stm32h7xx_hal_dcmi.c **** 
 258:Drivers/STM32H7xx_HAL_Driver/Src/stm32h7xx_hal_dcmi.c ****   /* Update error code */
 259:Drivers/STM32H7xx_HAL_Driver/Src/stm32h7xx_hal_dcmi.c ****   hdcmi->ErrorCode = HAL_DCMI_ERROR_NONE;
ARM GAS  C:\Users\theto\AppData\Local\Temp\ccKmbcIV.s 			page 6


 260:Drivers/STM32H7xx_HAL_Driver/Src/stm32h7xx_hal_dcmi.c **** 
 261:Drivers/STM32H7xx_HAL_Driver/Src/stm32h7xx_hal_dcmi.c ****   /* Initialize the DCMI state*/
 262:Drivers/STM32H7xx_HAL_Driver/Src/stm32h7xx_hal_dcmi.c ****   hdcmi->State  = HAL_DCMI_STATE_READY;
 263:Drivers/STM32H7xx_HAL_Driver/Src/stm32h7xx_hal_dcmi.c **** 
 264:Drivers/STM32H7xx_HAL_Driver/Src/stm32h7xx_hal_dcmi.c ****   return HAL_OK;
 265:Drivers/STM32H7xx_HAL_Driver/Src/stm32h7xx_hal_dcmi.c **** }
 266:Drivers/STM32H7xx_HAL_Driver/Src/stm32h7xx_hal_dcmi.c **** 
 267:Drivers/STM32H7xx_HAL_Driver/Src/stm32h7xx_hal_dcmi.c **** /**
 268:Drivers/STM32H7xx_HAL_Driver/Src/stm32h7xx_hal_dcmi.c ****   * @brief  Deinitializes the DCMI peripheral registers to their default reset
 269:Drivers/STM32H7xx_HAL_Driver/Src/stm32h7xx_hal_dcmi.c ****   *         values.
 270:Drivers/STM32H7xx_HAL_Driver/Src/stm32h7xx_hal_dcmi.c ****   * @param  hdcmi pointer to a DCMI_HandleTypeDef structure that contains
 271:Drivers/STM32H7xx_HAL_Driver/Src/stm32h7xx_hal_dcmi.c ****   *                the configuration information for DCMI.
 272:Drivers/STM32H7xx_HAL_Driver/Src/stm32h7xx_hal_dcmi.c ****   * @retval HAL status
 273:Drivers/STM32H7xx_HAL_Driver/Src/stm32h7xx_hal_dcmi.c ****   */
 274:Drivers/STM32H7xx_HAL_Driver/Src/stm32h7xx_hal_dcmi.c **** 
 275:Drivers/STM32H7xx_HAL_Driver/Src/stm32h7xx_hal_dcmi.c **** HAL_StatusTypeDef HAL_DCMI_DeInit(DCMI_HandleTypeDef *hdcmi)
 276:Drivers/STM32H7xx_HAL_Driver/Src/stm32h7xx_hal_dcmi.c **** {
 277:Drivers/STM32H7xx_HAL_Driver/Src/stm32h7xx_hal_dcmi.c **** #if (USE_HAL_DCMI_REGISTER_CALLBACKS == 1)
 278:Drivers/STM32H7xx_HAL_Driver/Src/stm32h7xx_hal_dcmi.c ****   if (hdcmi->MspDeInitCallback == NULL)
 279:Drivers/STM32H7xx_HAL_Driver/Src/stm32h7xx_hal_dcmi.c ****   {
 280:Drivers/STM32H7xx_HAL_Driver/Src/stm32h7xx_hal_dcmi.c ****     hdcmi->MspDeInitCallback = HAL_DCMI_MspDeInit;
 281:Drivers/STM32H7xx_HAL_Driver/Src/stm32h7xx_hal_dcmi.c ****   }
 282:Drivers/STM32H7xx_HAL_Driver/Src/stm32h7xx_hal_dcmi.c ****   /* De-Initialize the low level hardware (MSP) */
 283:Drivers/STM32H7xx_HAL_Driver/Src/stm32h7xx_hal_dcmi.c ****   hdcmi->MspDeInitCallback(hdcmi);
 284:Drivers/STM32H7xx_HAL_Driver/Src/stm32h7xx_hal_dcmi.c **** #else
 285:Drivers/STM32H7xx_HAL_Driver/Src/stm32h7xx_hal_dcmi.c ****   /* DeInit the low level hardware: GPIO, CLOCK, NVIC and DMA */
 286:Drivers/STM32H7xx_HAL_Driver/Src/stm32h7xx_hal_dcmi.c ****   HAL_DCMI_MspDeInit(hdcmi);
 287:Drivers/STM32H7xx_HAL_Driver/Src/stm32h7xx_hal_dcmi.c **** #endif /* (USE_HAL_DCMI_REGISTER_CALLBACKS) */
 288:Drivers/STM32H7xx_HAL_Driver/Src/stm32h7xx_hal_dcmi.c **** 
 289:Drivers/STM32H7xx_HAL_Driver/Src/stm32h7xx_hal_dcmi.c ****   /* Update error code */
 290:Drivers/STM32H7xx_HAL_Driver/Src/stm32h7xx_hal_dcmi.c ****   hdcmi->ErrorCode = HAL_DCMI_ERROR_NONE;
 291:Drivers/STM32H7xx_HAL_Driver/Src/stm32h7xx_hal_dcmi.c **** 
 292:Drivers/STM32H7xx_HAL_Driver/Src/stm32h7xx_hal_dcmi.c ****   /* Initialize the DCMI state*/
 293:Drivers/STM32H7xx_HAL_Driver/Src/stm32h7xx_hal_dcmi.c ****   hdcmi->State = HAL_DCMI_STATE_RESET;
 294:Drivers/STM32H7xx_HAL_Driver/Src/stm32h7xx_hal_dcmi.c **** 
 295:Drivers/STM32H7xx_HAL_Driver/Src/stm32h7xx_hal_dcmi.c ****   /* Release Lock */
 296:Drivers/STM32H7xx_HAL_Driver/Src/stm32h7xx_hal_dcmi.c ****   __HAL_UNLOCK(hdcmi);
 297:Drivers/STM32H7xx_HAL_Driver/Src/stm32h7xx_hal_dcmi.c **** 
 298:Drivers/STM32H7xx_HAL_Driver/Src/stm32h7xx_hal_dcmi.c ****   return HAL_OK;
 299:Drivers/STM32H7xx_HAL_Driver/Src/stm32h7xx_hal_dcmi.c **** }
 300:Drivers/STM32H7xx_HAL_Driver/Src/stm32h7xx_hal_dcmi.c **** 
 301:Drivers/STM32H7xx_HAL_Driver/Src/stm32h7xx_hal_dcmi.c **** /**
 302:Drivers/STM32H7xx_HAL_Driver/Src/stm32h7xx_hal_dcmi.c ****   * @brief  Initializes the DCMI MSP.
 303:Drivers/STM32H7xx_HAL_Driver/Src/stm32h7xx_hal_dcmi.c ****   * @param  hdcmi pointer to a DCMI_HandleTypeDef structure that contains
 304:Drivers/STM32H7xx_HAL_Driver/Src/stm32h7xx_hal_dcmi.c ****   *                the configuration information for DCMI.
 305:Drivers/STM32H7xx_HAL_Driver/Src/stm32h7xx_hal_dcmi.c ****   * @retval None
 306:Drivers/STM32H7xx_HAL_Driver/Src/stm32h7xx_hal_dcmi.c ****   */
 307:Drivers/STM32H7xx_HAL_Driver/Src/stm32h7xx_hal_dcmi.c **** __weak void HAL_DCMI_MspInit(DCMI_HandleTypeDef *hdcmi)
 308:Drivers/STM32H7xx_HAL_Driver/Src/stm32h7xx_hal_dcmi.c **** {
 309:Drivers/STM32H7xx_HAL_Driver/Src/stm32h7xx_hal_dcmi.c ****   /* Prevent unused argument(s) compilation warning */
 310:Drivers/STM32H7xx_HAL_Driver/Src/stm32h7xx_hal_dcmi.c ****   UNUSED(hdcmi);
 311:Drivers/STM32H7xx_HAL_Driver/Src/stm32h7xx_hal_dcmi.c **** 
 312:Drivers/STM32H7xx_HAL_Driver/Src/stm32h7xx_hal_dcmi.c ****   /* NOTE : This function Should not be modified, when the callback is needed,
 313:Drivers/STM32H7xx_HAL_Driver/Src/stm32h7xx_hal_dcmi.c ****             the HAL_DCMI_MspInit could be implemented in the user file
 314:Drivers/STM32H7xx_HAL_Driver/Src/stm32h7xx_hal_dcmi.c ****    */
 315:Drivers/STM32H7xx_HAL_Driver/Src/stm32h7xx_hal_dcmi.c **** }
 316:Drivers/STM32H7xx_HAL_Driver/Src/stm32h7xx_hal_dcmi.c **** 
ARM GAS  C:\Users\theto\AppData\Local\Temp\ccKmbcIV.s 			page 7


 317:Drivers/STM32H7xx_HAL_Driver/Src/stm32h7xx_hal_dcmi.c **** /**
 318:Drivers/STM32H7xx_HAL_Driver/Src/stm32h7xx_hal_dcmi.c ****   * @brief  DeInitializes the DCMI MSP.
 319:Drivers/STM32H7xx_HAL_Driver/Src/stm32h7xx_hal_dcmi.c ****   * @param  hdcmi pointer to a DCMI_HandleTypeDef structure that contains
 320:Drivers/STM32H7xx_HAL_Driver/Src/stm32h7xx_hal_dcmi.c ****   *                the configuration information for DCMI.
 321:Drivers/STM32H7xx_HAL_Driver/Src/stm32h7xx_hal_dcmi.c ****   * @retval None
 322:Drivers/STM32H7xx_HAL_Driver/Src/stm32h7xx_hal_dcmi.c ****   */
 323:Drivers/STM32H7xx_HAL_Driver/Src/stm32h7xx_hal_dcmi.c **** __weak void HAL_DCMI_MspDeInit(DCMI_HandleTypeDef *hdcmi)
 324:Drivers/STM32H7xx_HAL_Driver/Src/stm32h7xx_hal_dcmi.c **** {
 325:Drivers/STM32H7xx_HAL_Driver/Src/stm32h7xx_hal_dcmi.c ****   /* Prevent unused argument(s) compilation warning */
 326:Drivers/STM32H7xx_HAL_Driver/Src/stm32h7xx_hal_dcmi.c ****   UNUSED(hdcmi);
 327:Drivers/STM32H7xx_HAL_Driver/Src/stm32h7xx_hal_dcmi.c **** 
 328:Drivers/STM32H7xx_HAL_Driver/Src/stm32h7xx_hal_dcmi.c ****   /* NOTE : This function Should not be modified, when the callback is needed,
 329:Drivers/STM32H7xx_HAL_Driver/Src/stm32h7xx_hal_dcmi.c ****             the HAL_DCMI_MspDeInit could be implemented in the user file
 330:Drivers/STM32H7xx_HAL_Driver/Src/stm32h7xx_hal_dcmi.c ****    */
 331:Drivers/STM32H7xx_HAL_Driver/Src/stm32h7xx_hal_dcmi.c **** }
 332:Drivers/STM32H7xx_HAL_Driver/Src/stm32h7xx_hal_dcmi.c **** 
 333:Drivers/STM32H7xx_HAL_Driver/Src/stm32h7xx_hal_dcmi.c **** /**
 334:Drivers/STM32H7xx_HAL_Driver/Src/stm32h7xx_hal_dcmi.c ****   * @}
 335:Drivers/STM32H7xx_HAL_Driver/Src/stm32h7xx_hal_dcmi.c ****   */
 336:Drivers/STM32H7xx_HAL_Driver/Src/stm32h7xx_hal_dcmi.c **** /** @defgroup DCMI_Exported_Functions_Group2 IO operation functions
 337:Drivers/STM32H7xx_HAL_Driver/Src/stm32h7xx_hal_dcmi.c ****  *  @brief   IO operation functions
 338:Drivers/STM32H7xx_HAL_Driver/Src/stm32h7xx_hal_dcmi.c ****  *
 339:Drivers/STM32H7xx_HAL_Driver/Src/stm32h7xx_hal_dcmi.c **** @verbatim
 340:Drivers/STM32H7xx_HAL_Driver/Src/stm32h7xx_hal_dcmi.c ****  ===============================================================================
 341:Drivers/STM32H7xx_HAL_Driver/Src/stm32h7xx_hal_dcmi.c ****                       #####  IO operation functions  #####
 342:Drivers/STM32H7xx_HAL_Driver/Src/stm32h7xx_hal_dcmi.c ****  ===============================================================================
 343:Drivers/STM32H7xx_HAL_Driver/Src/stm32h7xx_hal_dcmi.c ****     [..]  This section provides functions allowing to:
 344:Drivers/STM32H7xx_HAL_Driver/Src/stm32h7xx_hal_dcmi.c ****       (+) Configure destination address and data length and
 345:Drivers/STM32H7xx_HAL_Driver/Src/stm32h7xx_hal_dcmi.c ****           Enables DCMI DMA request and enables DCMI capture
 346:Drivers/STM32H7xx_HAL_Driver/Src/stm32h7xx_hal_dcmi.c ****       (+) Stop the DCMI capture.
 347:Drivers/STM32H7xx_HAL_Driver/Src/stm32h7xx_hal_dcmi.c ****       (+) Handles DCMI interrupt request.
 348:Drivers/STM32H7xx_HAL_Driver/Src/stm32h7xx_hal_dcmi.c **** 
 349:Drivers/STM32H7xx_HAL_Driver/Src/stm32h7xx_hal_dcmi.c **** @endverbatim
 350:Drivers/STM32H7xx_HAL_Driver/Src/stm32h7xx_hal_dcmi.c ****   * @{
 351:Drivers/STM32H7xx_HAL_Driver/Src/stm32h7xx_hal_dcmi.c ****   */
 352:Drivers/STM32H7xx_HAL_Driver/Src/stm32h7xx_hal_dcmi.c **** 
 353:Drivers/STM32H7xx_HAL_Driver/Src/stm32h7xx_hal_dcmi.c **** /**
 354:Drivers/STM32H7xx_HAL_Driver/Src/stm32h7xx_hal_dcmi.c ****   * @brief  Enables DCMI DMA request and enables DCMI capture
 355:Drivers/STM32H7xx_HAL_Driver/Src/stm32h7xx_hal_dcmi.c ****   * @param  hdcmi     pointer to a DCMI_HandleTypeDef structure that contains
 356:Drivers/STM32H7xx_HAL_Driver/Src/stm32h7xx_hal_dcmi.c ****   *                    the configuration information for DCMI.
 357:Drivers/STM32H7xx_HAL_Driver/Src/stm32h7xx_hal_dcmi.c ****   * @param  DCMI_Mode DCMI capture mode snapshot or continuous grab.
 358:Drivers/STM32H7xx_HAL_Driver/Src/stm32h7xx_hal_dcmi.c ****   * @param  pData     The destination memory Buffer address (LCD Frame buffer).
 359:Drivers/STM32H7xx_HAL_Driver/Src/stm32h7xx_hal_dcmi.c ****   * @param  Length    The length of capture to be transferred.
 360:Drivers/STM32H7xx_HAL_Driver/Src/stm32h7xx_hal_dcmi.c ****   * @retval HAL status
 361:Drivers/STM32H7xx_HAL_Driver/Src/stm32h7xx_hal_dcmi.c ****   */
 362:Drivers/STM32H7xx_HAL_Driver/Src/stm32h7xx_hal_dcmi.c **** HAL_StatusTypeDef HAL_DCMI_Start_DMA(DCMI_HandleTypeDef *hdcmi, uint32_t DCMI_Mode, uint32_t pData,
 363:Drivers/STM32H7xx_HAL_Driver/Src/stm32h7xx_hal_dcmi.c **** {
 364:Drivers/STM32H7xx_HAL_Driver/Src/stm32h7xx_hal_dcmi.c ****   /* Initialize the second memory address */
 365:Drivers/STM32H7xx_HAL_Driver/Src/stm32h7xx_hal_dcmi.c ****   uint32_t SecondMemAddress;
 366:Drivers/STM32H7xx_HAL_Driver/Src/stm32h7xx_hal_dcmi.c **** 
 367:Drivers/STM32H7xx_HAL_Driver/Src/stm32h7xx_hal_dcmi.c ****   /* Check function parameters */
 368:Drivers/STM32H7xx_HAL_Driver/Src/stm32h7xx_hal_dcmi.c ****   assert_param(IS_DCMI_CAPTURE_MODE(DCMI_Mode));
 369:Drivers/STM32H7xx_HAL_Driver/Src/stm32h7xx_hal_dcmi.c **** 
 370:Drivers/STM32H7xx_HAL_Driver/Src/stm32h7xx_hal_dcmi.c ****   /* Process Locked */
 371:Drivers/STM32H7xx_HAL_Driver/Src/stm32h7xx_hal_dcmi.c ****   __HAL_LOCK(hdcmi);
 372:Drivers/STM32H7xx_HAL_Driver/Src/stm32h7xx_hal_dcmi.c **** 
 373:Drivers/STM32H7xx_HAL_Driver/Src/stm32h7xx_hal_dcmi.c ****   /* Lock the DCMI peripheral state */
ARM GAS  C:\Users\theto\AppData\Local\Temp\ccKmbcIV.s 			page 8


 374:Drivers/STM32H7xx_HAL_Driver/Src/stm32h7xx_hal_dcmi.c ****   hdcmi->State = HAL_DCMI_STATE_BUSY;
 375:Drivers/STM32H7xx_HAL_Driver/Src/stm32h7xx_hal_dcmi.c **** 
 376:Drivers/STM32H7xx_HAL_Driver/Src/stm32h7xx_hal_dcmi.c ****   /* Enable DCMI by setting DCMIEN bit */
 377:Drivers/STM32H7xx_HAL_Driver/Src/stm32h7xx_hal_dcmi.c ****   __HAL_DCMI_ENABLE(hdcmi);
 378:Drivers/STM32H7xx_HAL_Driver/Src/stm32h7xx_hal_dcmi.c **** 
 379:Drivers/STM32H7xx_HAL_Driver/Src/stm32h7xx_hal_dcmi.c ****   /* Configure the DCMI Mode */
 380:Drivers/STM32H7xx_HAL_Driver/Src/stm32h7xx_hal_dcmi.c ****   hdcmi->Instance->CR &= ~(DCMI_CR_CM);
 381:Drivers/STM32H7xx_HAL_Driver/Src/stm32h7xx_hal_dcmi.c ****   hdcmi->Instance->CR |= (uint32_t)(DCMI_Mode);
 382:Drivers/STM32H7xx_HAL_Driver/Src/stm32h7xx_hal_dcmi.c **** 
 383:Drivers/STM32H7xx_HAL_Driver/Src/stm32h7xx_hal_dcmi.c ****   /* Set the DMA memory0 conversion complete callback */
 384:Drivers/STM32H7xx_HAL_Driver/Src/stm32h7xx_hal_dcmi.c ****   hdcmi->DMA_Handle->XferCpltCallback = DCMI_DMAXferCplt;
 385:Drivers/STM32H7xx_HAL_Driver/Src/stm32h7xx_hal_dcmi.c **** 
 386:Drivers/STM32H7xx_HAL_Driver/Src/stm32h7xx_hal_dcmi.c ****   /* Set the DMA error callback */
 387:Drivers/STM32H7xx_HAL_Driver/Src/stm32h7xx_hal_dcmi.c ****   hdcmi->DMA_Handle->XferErrorCallback = DCMI_DMAError;
 388:Drivers/STM32H7xx_HAL_Driver/Src/stm32h7xx_hal_dcmi.c **** 
 389:Drivers/STM32H7xx_HAL_Driver/Src/stm32h7xx_hal_dcmi.c ****   /* Set the dma abort callback */
 390:Drivers/STM32H7xx_HAL_Driver/Src/stm32h7xx_hal_dcmi.c ****   hdcmi->DMA_Handle->XferAbortCallback = NULL;
 391:Drivers/STM32H7xx_HAL_Driver/Src/stm32h7xx_hal_dcmi.c **** 
 392:Drivers/STM32H7xx_HAL_Driver/Src/stm32h7xx_hal_dcmi.c ****   /* Reset transfer counters value */
 393:Drivers/STM32H7xx_HAL_Driver/Src/stm32h7xx_hal_dcmi.c ****   hdcmi->XferCount = 0;
 394:Drivers/STM32H7xx_HAL_Driver/Src/stm32h7xx_hal_dcmi.c ****   hdcmi->XferTransferNumber = 0;
 395:Drivers/STM32H7xx_HAL_Driver/Src/stm32h7xx_hal_dcmi.c ****   hdcmi->XferSize = 0;
 396:Drivers/STM32H7xx_HAL_Driver/Src/stm32h7xx_hal_dcmi.c ****   hdcmi->pBuffPtr = 0;
 397:Drivers/STM32H7xx_HAL_Driver/Src/stm32h7xx_hal_dcmi.c **** 
 398:Drivers/STM32H7xx_HAL_Driver/Src/stm32h7xx_hal_dcmi.c ****   if (Length <= 0xFFFFU)
 399:Drivers/STM32H7xx_HAL_Driver/Src/stm32h7xx_hal_dcmi.c ****   {
 400:Drivers/STM32H7xx_HAL_Driver/Src/stm32h7xx_hal_dcmi.c ****     /* Enable the DMA Stream */
 401:Drivers/STM32H7xx_HAL_Driver/Src/stm32h7xx_hal_dcmi.c ****     if (HAL_DMA_Start_IT(hdcmi->DMA_Handle, (uint32_t)&hdcmi->Instance->DR, (uint32_t)pData, Length
 402:Drivers/STM32H7xx_HAL_Driver/Src/stm32h7xx_hal_dcmi.c ****     {
 403:Drivers/STM32H7xx_HAL_Driver/Src/stm32h7xx_hal_dcmi.c ****       /* Set Error Code */
 404:Drivers/STM32H7xx_HAL_Driver/Src/stm32h7xx_hal_dcmi.c ****       hdcmi->ErrorCode = HAL_DCMI_ERROR_DMA;
 405:Drivers/STM32H7xx_HAL_Driver/Src/stm32h7xx_hal_dcmi.c ****       /* Change DCMI state */
 406:Drivers/STM32H7xx_HAL_Driver/Src/stm32h7xx_hal_dcmi.c ****       hdcmi->State = HAL_DCMI_STATE_READY;
 407:Drivers/STM32H7xx_HAL_Driver/Src/stm32h7xx_hal_dcmi.c ****       /* Release Lock */
 408:Drivers/STM32H7xx_HAL_Driver/Src/stm32h7xx_hal_dcmi.c ****       __HAL_UNLOCK(hdcmi);
 409:Drivers/STM32H7xx_HAL_Driver/Src/stm32h7xx_hal_dcmi.c ****       /* Return function status */
 410:Drivers/STM32H7xx_HAL_Driver/Src/stm32h7xx_hal_dcmi.c ****       return HAL_ERROR;
 411:Drivers/STM32H7xx_HAL_Driver/Src/stm32h7xx_hal_dcmi.c ****     }
 412:Drivers/STM32H7xx_HAL_Driver/Src/stm32h7xx_hal_dcmi.c ****   }
 413:Drivers/STM32H7xx_HAL_Driver/Src/stm32h7xx_hal_dcmi.c ****   else /* DCMI_DOUBLE_BUFFER Mode */
 414:Drivers/STM32H7xx_HAL_Driver/Src/stm32h7xx_hal_dcmi.c ****   {
 415:Drivers/STM32H7xx_HAL_Driver/Src/stm32h7xx_hal_dcmi.c ****     /* Set the DMA memory1 conversion complete callback */
 416:Drivers/STM32H7xx_HAL_Driver/Src/stm32h7xx_hal_dcmi.c ****     hdcmi->DMA_Handle->XferM1CpltCallback = DCMI_DMAXferCplt;
 417:Drivers/STM32H7xx_HAL_Driver/Src/stm32h7xx_hal_dcmi.c **** 
 418:Drivers/STM32H7xx_HAL_Driver/Src/stm32h7xx_hal_dcmi.c ****     /* Initialize transfer parameters */
 419:Drivers/STM32H7xx_HAL_Driver/Src/stm32h7xx_hal_dcmi.c ****     hdcmi->XferCount = 1;
 420:Drivers/STM32H7xx_HAL_Driver/Src/stm32h7xx_hal_dcmi.c ****     hdcmi->XferSize = Length;
 421:Drivers/STM32H7xx_HAL_Driver/Src/stm32h7xx_hal_dcmi.c ****     hdcmi->pBuffPtr = pData;
 422:Drivers/STM32H7xx_HAL_Driver/Src/stm32h7xx_hal_dcmi.c **** 
 423:Drivers/STM32H7xx_HAL_Driver/Src/stm32h7xx_hal_dcmi.c ****     /* Get the number of buffer */
 424:Drivers/STM32H7xx_HAL_Driver/Src/stm32h7xx_hal_dcmi.c ****     while (hdcmi->XferSize > 0xFFFFU)
 425:Drivers/STM32H7xx_HAL_Driver/Src/stm32h7xx_hal_dcmi.c ****     {
 426:Drivers/STM32H7xx_HAL_Driver/Src/stm32h7xx_hal_dcmi.c ****       hdcmi->XferSize = (hdcmi->XferSize / 2U);
 427:Drivers/STM32H7xx_HAL_Driver/Src/stm32h7xx_hal_dcmi.c ****       hdcmi->XferCount = hdcmi->XferCount * 2U;
 428:Drivers/STM32H7xx_HAL_Driver/Src/stm32h7xx_hal_dcmi.c ****     }
 429:Drivers/STM32H7xx_HAL_Driver/Src/stm32h7xx_hal_dcmi.c **** 
 430:Drivers/STM32H7xx_HAL_Driver/Src/stm32h7xx_hal_dcmi.c ****     /* Update DCMI counter  and transfer number*/
ARM GAS  C:\Users\theto\AppData\Local\Temp\ccKmbcIV.s 			page 9


 431:Drivers/STM32H7xx_HAL_Driver/Src/stm32h7xx_hal_dcmi.c ****     hdcmi->XferCount = (hdcmi->XferCount - 2U);
 432:Drivers/STM32H7xx_HAL_Driver/Src/stm32h7xx_hal_dcmi.c ****     hdcmi->XferTransferNumber = hdcmi->XferCount;
 433:Drivers/STM32H7xx_HAL_Driver/Src/stm32h7xx_hal_dcmi.c **** 
 434:Drivers/STM32H7xx_HAL_Driver/Src/stm32h7xx_hal_dcmi.c ****     /* Update second memory address */
 435:Drivers/STM32H7xx_HAL_Driver/Src/stm32h7xx_hal_dcmi.c ****     SecondMemAddress = (uint32_t)(pData + (4U * hdcmi->XferSize));
 436:Drivers/STM32H7xx_HAL_Driver/Src/stm32h7xx_hal_dcmi.c **** 
 437:Drivers/STM32H7xx_HAL_Driver/Src/stm32h7xx_hal_dcmi.c ****     /* Start DMA multi buffer transfer */
 438:Drivers/STM32H7xx_HAL_Driver/Src/stm32h7xx_hal_dcmi.c ****     if (HAL_DMAEx_MultiBufferStart_IT(hdcmi->DMA_Handle, (uint32_t)&hdcmi->Instance->DR, (uint32_t)
 439:Drivers/STM32H7xx_HAL_Driver/Src/stm32h7xx_hal_dcmi.c ****     {
 440:Drivers/STM32H7xx_HAL_Driver/Src/stm32h7xx_hal_dcmi.c ****       /* Set Error Code */
 441:Drivers/STM32H7xx_HAL_Driver/Src/stm32h7xx_hal_dcmi.c ****       hdcmi->ErrorCode = HAL_DCMI_ERROR_DMA;
 442:Drivers/STM32H7xx_HAL_Driver/Src/stm32h7xx_hal_dcmi.c ****       /* Change DCMI state */
 443:Drivers/STM32H7xx_HAL_Driver/Src/stm32h7xx_hal_dcmi.c ****       hdcmi->State = HAL_DCMI_STATE_READY;
 444:Drivers/STM32H7xx_HAL_Driver/Src/stm32h7xx_hal_dcmi.c ****       /* Release Lock */
 445:Drivers/STM32H7xx_HAL_Driver/Src/stm32h7xx_hal_dcmi.c ****       __HAL_UNLOCK(hdcmi);
 446:Drivers/STM32H7xx_HAL_Driver/Src/stm32h7xx_hal_dcmi.c ****       /* Return function status */
 447:Drivers/STM32H7xx_HAL_Driver/Src/stm32h7xx_hal_dcmi.c ****       return HAL_ERROR;
 448:Drivers/STM32H7xx_HAL_Driver/Src/stm32h7xx_hal_dcmi.c ****     }
 449:Drivers/STM32H7xx_HAL_Driver/Src/stm32h7xx_hal_dcmi.c ****   }
 450:Drivers/STM32H7xx_HAL_Driver/Src/stm32h7xx_hal_dcmi.c **** 
 451:Drivers/STM32H7xx_HAL_Driver/Src/stm32h7xx_hal_dcmi.c ****   /* Enable Capture */
 452:Drivers/STM32H7xx_HAL_Driver/Src/stm32h7xx_hal_dcmi.c ****   hdcmi->Instance->CR |= DCMI_CR_CAPTURE;
 453:Drivers/STM32H7xx_HAL_Driver/Src/stm32h7xx_hal_dcmi.c **** 
 454:Drivers/STM32H7xx_HAL_Driver/Src/stm32h7xx_hal_dcmi.c ****   /* Release Lock */
 455:Drivers/STM32H7xx_HAL_Driver/Src/stm32h7xx_hal_dcmi.c ****   __HAL_UNLOCK(hdcmi);
 456:Drivers/STM32H7xx_HAL_Driver/Src/stm32h7xx_hal_dcmi.c **** 
 457:Drivers/STM32H7xx_HAL_Driver/Src/stm32h7xx_hal_dcmi.c ****   /* Return function status */
 458:Drivers/STM32H7xx_HAL_Driver/Src/stm32h7xx_hal_dcmi.c ****   return HAL_OK;
 459:Drivers/STM32H7xx_HAL_Driver/Src/stm32h7xx_hal_dcmi.c **** }
 460:Drivers/STM32H7xx_HAL_Driver/Src/stm32h7xx_hal_dcmi.c **** 
 461:Drivers/STM32H7xx_HAL_Driver/Src/stm32h7xx_hal_dcmi.c **** /**
 462:Drivers/STM32H7xx_HAL_Driver/Src/stm32h7xx_hal_dcmi.c ****   * @brief  Disable DCMI DMA request and Disable DCMI capture
 463:Drivers/STM32H7xx_HAL_Driver/Src/stm32h7xx_hal_dcmi.c ****   * @param  hdcmi pointer to a DCMI_HandleTypeDef structure that contains
 464:Drivers/STM32H7xx_HAL_Driver/Src/stm32h7xx_hal_dcmi.c ****   *                the configuration information for DCMI.
 465:Drivers/STM32H7xx_HAL_Driver/Src/stm32h7xx_hal_dcmi.c ****   * @retval HAL status
 466:Drivers/STM32H7xx_HAL_Driver/Src/stm32h7xx_hal_dcmi.c ****   */
 467:Drivers/STM32H7xx_HAL_Driver/Src/stm32h7xx_hal_dcmi.c **** HAL_StatusTypeDef HAL_DCMI_Stop(DCMI_HandleTypeDef *hdcmi)
 468:Drivers/STM32H7xx_HAL_Driver/Src/stm32h7xx_hal_dcmi.c **** {
 469:Drivers/STM32H7xx_HAL_Driver/Src/stm32h7xx_hal_dcmi.c ****   uint32_t count = HAL_TIMEOUT_DCMI_STOP * (SystemCoreClock / 8U / 1000U);
 470:Drivers/STM32H7xx_HAL_Driver/Src/stm32h7xx_hal_dcmi.c ****   HAL_StatusTypeDef status = HAL_OK;
 471:Drivers/STM32H7xx_HAL_Driver/Src/stm32h7xx_hal_dcmi.c **** 
 472:Drivers/STM32H7xx_HAL_Driver/Src/stm32h7xx_hal_dcmi.c ****   /* Process locked */
 473:Drivers/STM32H7xx_HAL_Driver/Src/stm32h7xx_hal_dcmi.c ****   __HAL_LOCK(hdcmi);
 474:Drivers/STM32H7xx_HAL_Driver/Src/stm32h7xx_hal_dcmi.c **** 
 475:Drivers/STM32H7xx_HAL_Driver/Src/stm32h7xx_hal_dcmi.c ****   /* Lock the DCMI peripheral state */
 476:Drivers/STM32H7xx_HAL_Driver/Src/stm32h7xx_hal_dcmi.c ****   hdcmi->State = HAL_DCMI_STATE_BUSY;
 477:Drivers/STM32H7xx_HAL_Driver/Src/stm32h7xx_hal_dcmi.c **** 
 478:Drivers/STM32H7xx_HAL_Driver/Src/stm32h7xx_hal_dcmi.c ****   /* Disable Capture */
 479:Drivers/STM32H7xx_HAL_Driver/Src/stm32h7xx_hal_dcmi.c ****   hdcmi->Instance->CR &= ~(DCMI_CR_CAPTURE);
 480:Drivers/STM32H7xx_HAL_Driver/Src/stm32h7xx_hal_dcmi.c **** 
 481:Drivers/STM32H7xx_HAL_Driver/Src/stm32h7xx_hal_dcmi.c ****   /* Check if the DCMI capture effectively disabled */
 482:Drivers/STM32H7xx_HAL_Driver/Src/stm32h7xx_hal_dcmi.c ****   do
 483:Drivers/STM32H7xx_HAL_Driver/Src/stm32h7xx_hal_dcmi.c ****   {
 484:Drivers/STM32H7xx_HAL_Driver/Src/stm32h7xx_hal_dcmi.c ****     count-- ;
 485:Drivers/STM32H7xx_HAL_Driver/Src/stm32h7xx_hal_dcmi.c ****     if (count == 0U)
 486:Drivers/STM32H7xx_HAL_Driver/Src/stm32h7xx_hal_dcmi.c ****     {
 487:Drivers/STM32H7xx_HAL_Driver/Src/stm32h7xx_hal_dcmi.c ****       /* Update error code */
ARM GAS  C:\Users\theto\AppData\Local\Temp\ccKmbcIV.s 			page 10


 488:Drivers/STM32H7xx_HAL_Driver/Src/stm32h7xx_hal_dcmi.c ****       hdcmi->ErrorCode |= HAL_DCMI_ERROR_TIMEOUT;
 489:Drivers/STM32H7xx_HAL_Driver/Src/stm32h7xx_hal_dcmi.c **** 
 490:Drivers/STM32H7xx_HAL_Driver/Src/stm32h7xx_hal_dcmi.c ****       status = HAL_TIMEOUT;
 491:Drivers/STM32H7xx_HAL_Driver/Src/stm32h7xx_hal_dcmi.c ****       break;
 492:Drivers/STM32H7xx_HAL_Driver/Src/stm32h7xx_hal_dcmi.c ****     }
 493:Drivers/STM32H7xx_HAL_Driver/Src/stm32h7xx_hal_dcmi.c ****   }
 494:Drivers/STM32H7xx_HAL_Driver/Src/stm32h7xx_hal_dcmi.c ****   while ((hdcmi->Instance->CR & DCMI_CR_CAPTURE) != 0U);
 495:Drivers/STM32H7xx_HAL_Driver/Src/stm32h7xx_hal_dcmi.c **** 
 496:Drivers/STM32H7xx_HAL_Driver/Src/stm32h7xx_hal_dcmi.c ****   /* Disable the DCMI */
 497:Drivers/STM32H7xx_HAL_Driver/Src/stm32h7xx_hal_dcmi.c ****   __HAL_DCMI_DISABLE(hdcmi);
 498:Drivers/STM32H7xx_HAL_Driver/Src/stm32h7xx_hal_dcmi.c **** 
 499:Drivers/STM32H7xx_HAL_Driver/Src/stm32h7xx_hal_dcmi.c ****   /* Disable the DMA */
 500:Drivers/STM32H7xx_HAL_Driver/Src/stm32h7xx_hal_dcmi.c ****   (void)HAL_DMA_Abort(hdcmi->DMA_Handle);
 501:Drivers/STM32H7xx_HAL_Driver/Src/stm32h7xx_hal_dcmi.c **** 
 502:Drivers/STM32H7xx_HAL_Driver/Src/stm32h7xx_hal_dcmi.c ****   /* Update error code */
 503:Drivers/STM32H7xx_HAL_Driver/Src/stm32h7xx_hal_dcmi.c ****   hdcmi->ErrorCode |= HAL_DCMI_ERROR_NONE;
 504:Drivers/STM32H7xx_HAL_Driver/Src/stm32h7xx_hal_dcmi.c **** 
 505:Drivers/STM32H7xx_HAL_Driver/Src/stm32h7xx_hal_dcmi.c ****   /* Change DCMI state */
 506:Drivers/STM32H7xx_HAL_Driver/Src/stm32h7xx_hal_dcmi.c ****   hdcmi->State = HAL_DCMI_STATE_READY;
 507:Drivers/STM32H7xx_HAL_Driver/Src/stm32h7xx_hal_dcmi.c **** 
 508:Drivers/STM32H7xx_HAL_Driver/Src/stm32h7xx_hal_dcmi.c ****   /* Process Unlocked */
 509:Drivers/STM32H7xx_HAL_Driver/Src/stm32h7xx_hal_dcmi.c ****   __HAL_UNLOCK(hdcmi);
 510:Drivers/STM32H7xx_HAL_Driver/Src/stm32h7xx_hal_dcmi.c **** 
 511:Drivers/STM32H7xx_HAL_Driver/Src/stm32h7xx_hal_dcmi.c ****   /* Return function status */
 512:Drivers/STM32H7xx_HAL_Driver/Src/stm32h7xx_hal_dcmi.c ****   return status;
 513:Drivers/STM32H7xx_HAL_Driver/Src/stm32h7xx_hal_dcmi.c **** }
 514:Drivers/STM32H7xx_HAL_Driver/Src/stm32h7xx_hal_dcmi.c **** 
 515:Drivers/STM32H7xx_HAL_Driver/Src/stm32h7xx_hal_dcmi.c **** /**
 516:Drivers/STM32H7xx_HAL_Driver/Src/stm32h7xx_hal_dcmi.c ****   * @brief  Suspend DCMI capture
 517:Drivers/STM32H7xx_HAL_Driver/Src/stm32h7xx_hal_dcmi.c ****   * @param  hdcmi pointer to a DCMI_HandleTypeDef structure that contains
 518:Drivers/STM32H7xx_HAL_Driver/Src/stm32h7xx_hal_dcmi.c ****   *                the configuration information for DCMI.
 519:Drivers/STM32H7xx_HAL_Driver/Src/stm32h7xx_hal_dcmi.c ****   * @retval HAL status
 520:Drivers/STM32H7xx_HAL_Driver/Src/stm32h7xx_hal_dcmi.c ****   */
 521:Drivers/STM32H7xx_HAL_Driver/Src/stm32h7xx_hal_dcmi.c **** HAL_StatusTypeDef HAL_DCMI_Suspend(DCMI_HandleTypeDef *hdcmi)
 522:Drivers/STM32H7xx_HAL_Driver/Src/stm32h7xx_hal_dcmi.c **** {
 523:Drivers/STM32H7xx_HAL_Driver/Src/stm32h7xx_hal_dcmi.c ****   uint32_t count = HAL_TIMEOUT_DCMI_STOP * (SystemCoreClock / 8U / 1000U);
 524:Drivers/STM32H7xx_HAL_Driver/Src/stm32h7xx_hal_dcmi.c ****   HAL_StatusTypeDef status = HAL_OK;
 525:Drivers/STM32H7xx_HAL_Driver/Src/stm32h7xx_hal_dcmi.c **** 
 526:Drivers/STM32H7xx_HAL_Driver/Src/stm32h7xx_hal_dcmi.c ****   /* Process locked */
 527:Drivers/STM32H7xx_HAL_Driver/Src/stm32h7xx_hal_dcmi.c ****   __HAL_LOCK(hdcmi);
 528:Drivers/STM32H7xx_HAL_Driver/Src/stm32h7xx_hal_dcmi.c **** 
 529:Drivers/STM32H7xx_HAL_Driver/Src/stm32h7xx_hal_dcmi.c ****   if (hdcmi->State == HAL_DCMI_STATE_BUSY)
 530:Drivers/STM32H7xx_HAL_Driver/Src/stm32h7xx_hal_dcmi.c ****   {
 531:Drivers/STM32H7xx_HAL_Driver/Src/stm32h7xx_hal_dcmi.c ****     /* Change DCMI state */
 532:Drivers/STM32H7xx_HAL_Driver/Src/stm32h7xx_hal_dcmi.c ****     hdcmi->State = HAL_DCMI_STATE_SUSPENDED;
 533:Drivers/STM32H7xx_HAL_Driver/Src/stm32h7xx_hal_dcmi.c **** 
 534:Drivers/STM32H7xx_HAL_Driver/Src/stm32h7xx_hal_dcmi.c ****     /* Disable Capture */
 535:Drivers/STM32H7xx_HAL_Driver/Src/stm32h7xx_hal_dcmi.c ****     hdcmi->Instance->CR &= ~(DCMI_CR_CAPTURE);
 536:Drivers/STM32H7xx_HAL_Driver/Src/stm32h7xx_hal_dcmi.c **** 
 537:Drivers/STM32H7xx_HAL_Driver/Src/stm32h7xx_hal_dcmi.c ****     /* Check if the DCMI capture effectively disabled */
 538:Drivers/STM32H7xx_HAL_Driver/Src/stm32h7xx_hal_dcmi.c ****     do
 539:Drivers/STM32H7xx_HAL_Driver/Src/stm32h7xx_hal_dcmi.c ****     {
 540:Drivers/STM32H7xx_HAL_Driver/Src/stm32h7xx_hal_dcmi.c ****       count-- ;
 541:Drivers/STM32H7xx_HAL_Driver/Src/stm32h7xx_hal_dcmi.c ****       if (count == 0U)
 542:Drivers/STM32H7xx_HAL_Driver/Src/stm32h7xx_hal_dcmi.c ****       {
 543:Drivers/STM32H7xx_HAL_Driver/Src/stm32h7xx_hal_dcmi.c ****         /* Update error code */
 544:Drivers/STM32H7xx_HAL_Driver/Src/stm32h7xx_hal_dcmi.c ****         hdcmi->ErrorCode |= HAL_DCMI_ERROR_TIMEOUT;
ARM GAS  C:\Users\theto\AppData\Local\Temp\ccKmbcIV.s 			page 11


 545:Drivers/STM32H7xx_HAL_Driver/Src/stm32h7xx_hal_dcmi.c **** 
 546:Drivers/STM32H7xx_HAL_Driver/Src/stm32h7xx_hal_dcmi.c ****         /* Change DCMI state */
 547:Drivers/STM32H7xx_HAL_Driver/Src/stm32h7xx_hal_dcmi.c ****         hdcmi->State = HAL_DCMI_STATE_READY;
 548:Drivers/STM32H7xx_HAL_Driver/Src/stm32h7xx_hal_dcmi.c **** 
 549:Drivers/STM32H7xx_HAL_Driver/Src/stm32h7xx_hal_dcmi.c ****         status = HAL_TIMEOUT;
 550:Drivers/STM32H7xx_HAL_Driver/Src/stm32h7xx_hal_dcmi.c ****         break;
 551:Drivers/STM32H7xx_HAL_Driver/Src/stm32h7xx_hal_dcmi.c ****       }
 552:Drivers/STM32H7xx_HAL_Driver/Src/stm32h7xx_hal_dcmi.c ****     }
 553:Drivers/STM32H7xx_HAL_Driver/Src/stm32h7xx_hal_dcmi.c ****     while ((hdcmi->Instance->CR & DCMI_CR_CAPTURE) != 0U);
 554:Drivers/STM32H7xx_HAL_Driver/Src/stm32h7xx_hal_dcmi.c ****   }
 555:Drivers/STM32H7xx_HAL_Driver/Src/stm32h7xx_hal_dcmi.c ****   /* Process Unlocked */
 556:Drivers/STM32H7xx_HAL_Driver/Src/stm32h7xx_hal_dcmi.c ****   __HAL_UNLOCK(hdcmi);
 557:Drivers/STM32H7xx_HAL_Driver/Src/stm32h7xx_hal_dcmi.c **** 
 558:Drivers/STM32H7xx_HAL_Driver/Src/stm32h7xx_hal_dcmi.c ****   /* Return function status */
 559:Drivers/STM32H7xx_HAL_Driver/Src/stm32h7xx_hal_dcmi.c ****   return status;
 560:Drivers/STM32H7xx_HAL_Driver/Src/stm32h7xx_hal_dcmi.c **** }
 561:Drivers/STM32H7xx_HAL_Driver/Src/stm32h7xx_hal_dcmi.c **** 
 562:Drivers/STM32H7xx_HAL_Driver/Src/stm32h7xx_hal_dcmi.c **** /**
 563:Drivers/STM32H7xx_HAL_Driver/Src/stm32h7xx_hal_dcmi.c ****   * @brief  Resume DCMI capture
 564:Drivers/STM32H7xx_HAL_Driver/Src/stm32h7xx_hal_dcmi.c ****   * @param  hdcmi pointer to a DCMI_HandleTypeDef structure that contains
 565:Drivers/STM32H7xx_HAL_Driver/Src/stm32h7xx_hal_dcmi.c ****   *                the configuration information for DCMI.
 566:Drivers/STM32H7xx_HAL_Driver/Src/stm32h7xx_hal_dcmi.c ****   * @retval HAL status
 567:Drivers/STM32H7xx_HAL_Driver/Src/stm32h7xx_hal_dcmi.c ****   */
 568:Drivers/STM32H7xx_HAL_Driver/Src/stm32h7xx_hal_dcmi.c **** HAL_StatusTypeDef HAL_DCMI_Resume(DCMI_HandleTypeDef *hdcmi)
 569:Drivers/STM32H7xx_HAL_Driver/Src/stm32h7xx_hal_dcmi.c **** {
 570:Drivers/STM32H7xx_HAL_Driver/Src/stm32h7xx_hal_dcmi.c ****   /* Process locked */
 571:Drivers/STM32H7xx_HAL_Driver/Src/stm32h7xx_hal_dcmi.c ****   __HAL_LOCK(hdcmi);
 572:Drivers/STM32H7xx_HAL_Driver/Src/stm32h7xx_hal_dcmi.c **** 
 573:Drivers/STM32H7xx_HAL_Driver/Src/stm32h7xx_hal_dcmi.c ****   if (hdcmi->State == HAL_DCMI_STATE_SUSPENDED)
 574:Drivers/STM32H7xx_HAL_Driver/Src/stm32h7xx_hal_dcmi.c ****   {
 575:Drivers/STM32H7xx_HAL_Driver/Src/stm32h7xx_hal_dcmi.c ****     /* Change DCMI state */
 576:Drivers/STM32H7xx_HAL_Driver/Src/stm32h7xx_hal_dcmi.c ****     hdcmi->State = HAL_DCMI_STATE_BUSY;
 577:Drivers/STM32H7xx_HAL_Driver/Src/stm32h7xx_hal_dcmi.c **** 
 578:Drivers/STM32H7xx_HAL_Driver/Src/stm32h7xx_hal_dcmi.c ****     /* Enable Capture */
 579:Drivers/STM32H7xx_HAL_Driver/Src/stm32h7xx_hal_dcmi.c ****     hdcmi->Instance->CR |= DCMI_CR_CAPTURE;
 580:Drivers/STM32H7xx_HAL_Driver/Src/stm32h7xx_hal_dcmi.c ****   }
 581:Drivers/STM32H7xx_HAL_Driver/Src/stm32h7xx_hal_dcmi.c ****   /* Process Unlocked */
 582:Drivers/STM32H7xx_HAL_Driver/Src/stm32h7xx_hal_dcmi.c ****   __HAL_UNLOCK(hdcmi);
 583:Drivers/STM32H7xx_HAL_Driver/Src/stm32h7xx_hal_dcmi.c **** 
 584:Drivers/STM32H7xx_HAL_Driver/Src/stm32h7xx_hal_dcmi.c ****   /* Return function status */
 585:Drivers/STM32H7xx_HAL_Driver/Src/stm32h7xx_hal_dcmi.c ****   return HAL_OK;
 586:Drivers/STM32H7xx_HAL_Driver/Src/stm32h7xx_hal_dcmi.c **** }
 587:Drivers/STM32H7xx_HAL_Driver/Src/stm32h7xx_hal_dcmi.c **** 
 588:Drivers/STM32H7xx_HAL_Driver/Src/stm32h7xx_hal_dcmi.c **** /**
 589:Drivers/STM32H7xx_HAL_Driver/Src/stm32h7xx_hal_dcmi.c ****   * @brief  Handles DCMI interrupt request.
 590:Drivers/STM32H7xx_HAL_Driver/Src/stm32h7xx_hal_dcmi.c ****   * @param  hdcmi pointer to a DCMI_HandleTypeDef structure that contains
 591:Drivers/STM32H7xx_HAL_Driver/Src/stm32h7xx_hal_dcmi.c ****   *                the configuration information for the DCMI.
 592:Drivers/STM32H7xx_HAL_Driver/Src/stm32h7xx_hal_dcmi.c ****   * @retval None
 593:Drivers/STM32H7xx_HAL_Driver/Src/stm32h7xx_hal_dcmi.c ****   */
 594:Drivers/STM32H7xx_HAL_Driver/Src/stm32h7xx_hal_dcmi.c **** void HAL_DCMI_IRQHandler(DCMI_HandleTypeDef *hdcmi)
 595:Drivers/STM32H7xx_HAL_Driver/Src/stm32h7xx_hal_dcmi.c **** {
 596:Drivers/STM32H7xx_HAL_Driver/Src/stm32h7xx_hal_dcmi.c ****   uint32_t isr_value = READ_REG(hdcmi->Instance->MISR);
 597:Drivers/STM32H7xx_HAL_Driver/Src/stm32h7xx_hal_dcmi.c **** 
 598:Drivers/STM32H7xx_HAL_Driver/Src/stm32h7xx_hal_dcmi.c ****   /* Synchronization error interrupt management *******************************/
 599:Drivers/STM32H7xx_HAL_Driver/Src/stm32h7xx_hal_dcmi.c ****   if ((isr_value & DCMI_FLAG_ERRRI) == DCMI_FLAG_ERRRI)
 600:Drivers/STM32H7xx_HAL_Driver/Src/stm32h7xx_hal_dcmi.c ****   {
 601:Drivers/STM32H7xx_HAL_Driver/Src/stm32h7xx_hal_dcmi.c ****     /* Clear the Synchronization error flag */
ARM GAS  C:\Users\theto\AppData\Local\Temp\ccKmbcIV.s 			page 12


 602:Drivers/STM32H7xx_HAL_Driver/Src/stm32h7xx_hal_dcmi.c ****     __HAL_DCMI_CLEAR_FLAG(hdcmi, DCMI_FLAG_ERRRI);
 603:Drivers/STM32H7xx_HAL_Driver/Src/stm32h7xx_hal_dcmi.c **** 
 604:Drivers/STM32H7xx_HAL_Driver/Src/stm32h7xx_hal_dcmi.c ****     /* Update error code */
 605:Drivers/STM32H7xx_HAL_Driver/Src/stm32h7xx_hal_dcmi.c ****     hdcmi->ErrorCode |= HAL_DCMI_ERROR_SYNC;
 606:Drivers/STM32H7xx_HAL_Driver/Src/stm32h7xx_hal_dcmi.c **** 
 607:Drivers/STM32H7xx_HAL_Driver/Src/stm32h7xx_hal_dcmi.c ****     /* Change DCMI state */
 608:Drivers/STM32H7xx_HAL_Driver/Src/stm32h7xx_hal_dcmi.c ****     hdcmi->State = HAL_DCMI_STATE_ERROR;
 609:Drivers/STM32H7xx_HAL_Driver/Src/stm32h7xx_hal_dcmi.c **** 
 610:Drivers/STM32H7xx_HAL_Driver/Src/stm32h7xx_hal_dcmi.c ****     /* Set the synchronization error callback */
 611:Drivers/STM32H7xx_HAL_Driver/Src/stm32h7xx_hal_dcmi.c ****     hdcmi->DMA_Handle->XferAbortCallback = DCMI_DMAError;
 612:Drivers/STM32H7xx_HAL_Driver/Src/stm32h7xx_hal_dcmi.c **** 
 613:Drivers/STM32H7xx_HAL_Driver/Src/stm32h7xx_hal_dcmi.c ****     /* Abort the DMA Transfer */
 614:Drivers/STM32H7xx_HAL_Driver/Src/stm32h7xx_hal_dcmi.c ****     (void)HAL_DMA_Abort_IT(hdcmi->DMA_Handle);
 615:Drivers/STM32H7xx_HAL_Driver/Src/stm32h7xx_hal_dcmi.c ****   }
 616:Drivers/STM32H7xx_HAL_Driver/Src/stm32h7xx_hal_dcmi.c ****   /* Overflow interrupt management ********************************************/
 617:Drivers/STM32H7xx_HAL_Driver/Src/stm32h7xx_hal_dcmi.c ****   if ((isr_value & DCMI_FLAG_OVRRI) == DCMI_FLAG_OVRRI)
 618:Drivers/STM32H7xx_HAL_Driver/Src/stm32h7xx_hal_dcmi.c ****   {
 619:Drivers/STM32H7xx_HAL_Driver/Src/stm32h7xx_hal_dcmi.c ****     /* Clear the Overflow flag */
 620:Drivers/STM32H7xx_HAL_Driver/Src/stm32h7xx_hal_dcmi.c ****     __HAL_DCMI_CLEAR_FLAG(hdcmi, DCMI_FLAG_OVRRI);
 621:Drivers/STM32H7xx_HAL_Driver/Src/stm32h7xx_hal_dcmi.c **** 
 622:Drivers/STM32H7xx_HAL_Driver/Src/stm32h7xx_hal_dcmi.c ****     /* Update error code */
 623:Drivers/STM32H7xx_HAL_Driver/Src/stm32h7xx_hal_dcmi.c ****     hdcmi->ErrorCode |= HAL_DCMI_ERROR_OVR;
 624:Drivers/STM32H7xx_HAL_Driver/Src/stm32h7xx_hal_dcmi.c **** 
 625:Drivers/STM32H7xx_HAL_Driver/Src/stm32h7xx_hal_dcmi.c ****     /* Change DCMI state */
 626:Drivers/STM32H7xx_HAL_Driver/Src/stm32h7xx_hal_dcmi.c ****     hdcmi->State = HAL_DCMI_STATE_ERROR;
 627:Drivers/STM32H7xx_HAL_Driver/Src/stm32h7xx_hal_dcmi.c **** 
 628:Drivers/STM32H7xx_HAL_Driver/Src/stm32h7xx_hal_dcmi.c ****     /* Set the overflow callback */
 629:Drivers/STM32H7xx_HAL_Driver/Src/stm32h7xx_hal_dcmi.c ****     hdcmi->DMA_Handle->XferAbortCallback = DCMI_DMAError;
 630:Drivers/STM32H7xx_HAL_Driver/Src/stm32h7xx_hal_dcmi.c **** 
 631:Drivers/STM32H7xx_HAL_Driver/Src/stm32h7xx_hal_dcmi.c ****     /* Abort the DMA Transfer */
 632:Drivers/STM32H7xx_HAL_Driver/Src/stm32h7xx_hal_dcmi.c ****     (void)HAL_DMA_Abort_IT(hdcmi->DMA_Handle);
 633:Drivers/STM32H7xx_HAL_Driver/Src/stm32h7xx_hal_dcmi.c ****   }
 634:Drivers/STM32H7xx_HAL_Driver/Src/stm32h7xx_hal_dcmi.c ****   /* Line Interrupt management ************************************************/
 635:Drivers/STM32H7xx_HAL_Driver/Src/stm32h7xx_hal_dcmi.c ****   if ((isr_value & DCMI_FLAG_LINERI) == DCMI_FLAG_LINERI)
 636:Drivers/STM32H7xx_HAL_Driver/Src/stm32h7xx_hal_dcmi.c ****   {
 637:Drivers/STM32H7xx_HAL_Driver/Src/stm32h7xx_hal_dcmi.c ****     /* Clear the Line interrupt flag */
 638:Drivers/STM32H7xx_HAL_Driver/Src/stm32h7xx_hal_dcmi.c ****     __HAL_DCMI_CLEAR_FLAG(hdcmi, DCMI_FLAG_LINERI);
 639:Drivers/STM32H7xx_HAL_Driver/Src/stm32h7xx_hal_dcmi.c **** 
 640:Drivers/STM32H7xx_HAL_Driver/Src/stm32h7xx_hal_dcmi.c ****     /* Line interrupt Callback */
 641:Drivers/STM32H7xx_HAL_Driver/Src/stm32h7xx_hal_dcmi.c **** #if (USE_HAL_DCMI_REGISTER_CALLBACKS == 1)
 642:Drivers/STM32H7xx_HAL_Driver/Src/stm32h7xx_hal_dcmi.c ****     /*Call registered DCMI line event callback*/
 643:Drivers/STM32H7xx_HAL_Driver/Src/stm32h7xx_hal_dcmi.c ****     hdcmi->LineEventCallback(hdcmi);
 644:Drivers/STM32H7xx_HAL_Driver/Src/stm32h7xx_hal_dcmi.c **** #else
 645:Drivers/STM32H7xx_HAL_Driver/Src/stm32h7xx_hal_dcmi.c ****     HAL_DCMI_LineEventCallback(hdcmi);
 646:Drivers/STM32H7xx_HAL_Driver/Src/stm32h7xx_hal_dcmi.c **** #endif /* USE_HAL_DCMI_REGISTER_CALLBACKS */
 647:Drivers/STM32H7xx_HAL_Driver/Src/stm32h7xx_hal_dcmi.c ****   }
 648:Drivers/STM32H7xx_HAL_Driver/Src/stm32h7xx_hal_dcmi.c ****   /* VSYNC interrupt management ***********************************************/
 649:Drivers/STM32H7xx_HAL_Driver/Src/stm32h7xx_hal_dcmi.c ****   if ((isr_value & DCMI_FLAG_VSYNCRI) == DCMI_FLAG_VSYNCRI)
 650:Drivers/STM32H7xx_HAL_Driver/Src/stm32h7xx_hal_dcmi.c ****   {
 651:Drivers/STM32H7xx_HAL_Driver/Src/stm32h7xx_hal_dcmi.c ****     /* Clear the VSYNC flag */
 652:Drivers/STM32H7xx_HAL_Driver/Src/stm32h7xx_hal_dcmi.c ****     __HAL_DCMI_CLEAR_FLAG(hdcmi, DCMI_FLAG_VSYNCRI);
 653:Drivers/STM32H7xx_HAL_Driver/Src/stm32h7xx_hal_dcmi.c **** 
 654:Drivers/STM32H7xx_HAL_Driver/Src/stm32h7xx_hal_dcmi.c ****     /* VSYNC Callback */
 655:Drivers/STM32H7xx_HAL_Driver/Src/stm32h7xx_hal_dcmi.c **** #if (USE_HAL_DCMI_REGISTER_CALLBACKS == 1)
 656:Drivers/STM32H7xx_HAL_Driver/Src/stm32h7xx_hal_dcmi.c ****     /*Call registered DCMI vsync event callback*/
 657:Drivers/STM32H7xx_HAL_Driver/Src/stm32h7xx_hal_dcmi.c ****     hdcmi->VsyncEventCallback(hdcmi);
 658:Drivers/STM32H7xx_HAL_Driver/Src/stm32h7xx_hal_dcmi.c **** #else
ARM GAS  C:\Users\theto\AppData\Local\Temp\ccKmbcIV.s 			page 13


 659:Drivers/STM32H7xx_HAL_Driver/Src/stm32h7xx_hal_dcmi.c ****     HAL_DCMI_VsyncEventCallback(hdcmi);
 660:Drivers/STM32H7xx_HAL_Driver/Src/stm32h7xx_hal_dcmi.c **** #endif /* USE_HAL_DCMI_REGISTER_CALLBACKS */
 661:Drivers/STM32H7xx_HAL_Driver/Src/stm32h7xx_hal_dcmi.c ****   }
 662:Drivers/STM32H7xx_HAL_Driver/Src/stm32h7xx_hal_dcmi.c ****   /* FRAME interrupt management ***********************************************/
 663:Drivers/STM32H7xx_HAL_Driver/Src/stm32h7xx_hal_dcmi.c ****   if ((isr_value & DCMI_FLAG_FRAMERI) == DCMI_FLAG_FRAMERI)
 664:Drivers/STM32H7xx_HAL_Driver/Src/stm32h7xx_hal_dcmi.c ****   {
 665:Drivers/STM32H7xx_HAL_Driver/Src/stm32h7xx_hal_dcmi.c ****     /* When snapshot mode, disable Vsync, Error and Overrun interrupts */
 666:Drivers/STM32H7xx_HAL_Driver/Src/stm32h7xx_hal_dcmi.c ****     if ((hdcmi->Instance->CR & DCMI_CR_CM) == DCMI_MODE_SNAPSHOT)
 667:Drivers/STM32H7xx_HAL_Driver/Src/stm32h7xx_hal_dcmi.c ****     {
 668:Drivers/STM32H7xx_HAL_Driver/Src/stm32h7xx_hal_dcmi.c ****       /* Disable the Line, Vsync, Error and Overrun interrupts */
 669:Drivers/STM32H7xx_HAL_Driver/Src/stm32h7xx_hal_dcmi.c ****       __HAL_DCMI_DISABLE_IT(hdcmi, DCMI_IT_LINE | DCMI_IT_VSYNC | DCMI_IT_ERR | DCMI_IT_OVR);
 670:Drivers/STM32H7xx_HAL_Driver/Src/stm32h7xx_hal_dcmi.c ****     }
 671:Drivers/STM32H7xx_HAL_Driver/Src/stm32h7xx_hal_dcmi.c **** 
 672:Drivers/STM32H7xx_HAL_Driver/Src/stm32h7xx_hal_dcmi.c ****     /* Disable the Frame interrupt */
 673:Drivers/STM32H7xx_HAL_Driver/Src/stm32h7xx_hal_dcmi.c ****     __HAL_DCMI_DISABLE_IT(hdcmi, DCMI_IT_FRAME);
 674:Drivers/STM32H7xx_HAL_Driver/Src/stm32h7xx_hal_dcmi.c **** 
 675:Drivers/STM32H7xx_HAL_Driver/Src/stm32h7xx_hal_dcmi.c ****     /* Clear the End of Frame flag */
 676:Drivers/STM32H7xx_HAL_Driver/Src/stm32h7xx_hal_dcmi.c ****     __HAL_DCMI_CLEAR_FLAG(hdcmi, DCMI_FLAG_FRAMERI);
 677:Drivers/STM32H7xx_HAL_Driver/Src/stm32h7xx_hal_dcmi.c **** 
 678:Drivers/STM32H7xx_HAL_Driver/Src/stm32h7xx_hal_dcmi.c ****     /* Frame Callback */
 679:Drivers/STM32H7xx_HAL_Driver/Src/stm32h7xx_hal_dcmi.c **** #if (USE_HAL_DCMI_REGISTER_CALLBACKS == 1)
 680:Drivers/STM32H7xx_HAL_Driver/Src/stm32h7xx_hal_dcmi.c ****     /*Call registered DCMI frame event callback*/
 681:Drivers/STM32H7xx_HAL_Driver/Src/stm32h7xx_hal_dcmi.c ****     hdcmi->FrameEventCallback(hdcmi);
 682:Drivers/STM32H7xx_HAL_Driver/Src/stm32h7xx_hal_dcmi.c **** #else
 683:Drivers/STM32H7xx_HAL_Driver/Src/stm32h7xx_hal_dcmi.c ****     HAL_DCMI_FrameEventCallback(hdcmi);
 684:Drivers/STM32H7xx_HAL_Driver/Src/stm32h7xx_hal_dcmi.c **** #endif /* USE_HAL_DCMI_REGISTER_CALLBACKS */
 685:Drivers/STM32H7xx_HAL_Driver/Src/stm32h7xx_hal_dcmi.c ****   }
 686:Drivers/STM32H7xx_HAL_Driver/Src/stm32h7xx_hal_dcmi.c **** }
 687:Drivers/STM32H7xx_HAL_Driver/Src/stm32h7xx_hal_dcmi.c **** 
 688:Drivers/STM32H7xx_HAL_Driver/Src/stm32h7xx_hal_dcmi.c **** /**
 689:Drivers/STM32H7xx_HAL_Driver/Src/stm32h7xx_hal_dcmi.c ****   * @brief  Error DCMI callback.
 690:Drivers/STM32H7xx_HAL_Driver/Src/stm32h7xx_hal_dcmi.c ****   * @param  hdcmi pointer to a DCMI_HandleTypeDef structure that contains
 691:Drivers/STM32H7xx_HAL_Driver/Src/stm32h7xx_hal_dcmi.c ****   *                the configuration information for DCMI.
 692:Drivers/STM32H7xx_HAL_Driver/Src/stm32h7xx_hal_dcmi.c ****   * @retval None
 693:Drivers/STM32H7xx_HAL_Driver/Src/stm32h7xx_hal_dcmi.c ****   */
 694:Drivers/STM32H7xx_HAL_Driver/Src/stm32h7xx_hal_dcmi.c **** __weak void HAL_DCMI_ErrorCallback(DCMI_HandleTypeDef *hdcmi)
 695:Drivers/STM32H7xx_HAL_Driver/Src/stm32h7xx_hal_dcmi.c **** {
 696:Drivers/STM32H7xx_HAL_Driver/Src/stm32h7xx_hal_dcmi.c ****   /* Prevent unused argument(s) compilation warning */
 697:Drivers/STM32H7xx_HAL_Driver/Src/stm32h7xx_hal_dcmi.c ****   UNUSED(hdcmi);
 698:Drivers/STM32H7xx_HAL_Driver/Src/stm32h7xx_hal_dcmi.c **** 
 699:Drivers/STM32H7xx_HAL_Driver/Src/stm32h7xx_hal_dcmi.c ****   /* NOTE : This function Should not be modified, when the callback is needed,
 700:Drivers/STM32H7xx_HAL_Driver/Src/stm32h7xx_hal_dcmi.c ****             the HAL_DCMI_ErrorCallback could be implemented in the user file
 701:Drivers/STM32H7xx_HAL_Driver/Src/stm32h7xx_hal_dcmi.c ****    */
 702:Drivers/STM32H7xx_HAL_Driver/Src/stm32h7xx_hal_dcmi.c **** }
 703:Drivers/STM32H7xx_HAL_Driver/Src/stm32h7xx_hal_dcmi.c **** 
 704:Drivers/STM32H7xx_HAL_Driver/Src/stm32h7xx_hal_dcmi.c **** /**
 705:Drivers/STM32H7xx_HAL_Driver/Src/stm32h7xx_hal_dcmi.c ****   * @brief  Line Event callback.
 706:Drivers/STM32H7xx_HAL_Driver/Src/stm32h7xx_hal_dcmi.c ****   * @param  hdcmi pointer to a DCMI_HandleTypeDef structure that contains
 707:Drivers/STM32H7xx_HAL_Driver/Src/stm32h7xx_hal_dcmi.c ****   *                the configuration information for DCMI.
 708:Drivers/STM32H7xx_HAL_Driver/Src/stm32h7xx_hal_dcmi.c ****   * @retval None
 709:Drivers/STM32H7xx_HAL_Driver/Src/stm32h7xx_hal_dcmi.c ****   */
 710:Drivers/STM32H7xx_HAL_Driver/Src/stm32h7xx_hal_dcmi.c **** __weak void HAL_DCMI_LineEventCallback(DCMI_HandleTypeDef *hdcmi)
 711:Drivers/STM32H7xx_HAL_Driver/Src/stm32h7xx_hal_dcmi.c **** {
 712:Drivers/STM32H7xx_HAL_Driver/Src/stm32h7xx_hal_dcmi.c ****   /* Prevent unused argument(s) compilation warning */
 713:Drivers/STM32H7xx_HAL_Driver/Src/stm32h7xx_hal_dcmi.c ****   UNUSED(hdcmi);
 714:Drivers/STM32H7xx_HAL_Driver/Src/stm32h7xx_hal_dcmi.c ****   /* NOTE : This function Should not be modified, when the callback is needed,
 715:Drivers/STM32H7xx_HAL_Driver/Src/stm32h7xx_hal_dcmi.c ****             the HAL_DCMI_LineEventCallback could be implemented in the user file
ARM GAS  C:\Users\theto\AppData\Local\Temp\ccKmbcIV.s 			page 14


 716:Drivers/STM32H7xx_HAL_Driver/Src/stm32h7xx_hal_dcmi.c ****    */
 717:Drivers/STM32H7xx_HAL_Driver/Src/stm32h7xx_hal_dcmi.c **** }
 718:Drivers/STM32H7xx_HAL_Driver/Src/stm32h7xx_hal_dcmi.c **** 
 719:Drivers/STM32H7xx_HAL_Driver/Src/stm32h7xx_hal_dcmi.c **** /**
 720:Drivers/STM32H7xx_HAL_Driver/Src/stm32h7xx_hal_dcmi.c ****   * @brief  VSYNC Event callback.
 721:Drivers/STM32H7xx_HAL_Driver/Src/stm32h7xx_hal_dcmi.c ****   * @param  hdcmi pointer to a DCMI_HandleTypeDef structure that contains
 722:Drivers/STM32H7xx_HAL_Driver/Src/stm32h7xx_hal_dcmi.c ****   *                the configuration information for DCMI.
 723:Drivers/STM32H7xx_HAL_Driver/Src/stm32h7xx_hal_dcmi.c ****   * @retval None
 724:Drivers/STM32H7xx_HAL_Driver/Src/stm32h7xx_hal_dcmi.c ****   */
 725:Drivers/STM32H7xx_HAL_Driver/Src/stm32h7xx_hal_dcmi.c **** __weak void HAL_DCMI_VsyncEventCallback(DCMI_HandleTypeDef *hdcmi)
 726:Drivers/STM32H7xx_HAL_Driver/Src/stm32h7xx_hal_dcmi.c **** {
 727:Drivers/STM32H7xx_HAL_Driver/Src/stm32h7xx_hal_dcmi.c ****   /* Prevent unused argument(s) compilation warning */
 728:Drivers/STM32H7xx_HAL_Driver/Src/stm32h7xx_hal_dcmi.c ****   UNUSED(hdcmi);
 729:Drivers/STM32H7xx_HAL_Driver/Src/stm32h7xx_hal_dcmi.c **** 
 730:Drivers/STM32H7xx_HAL_Driver/Src/stm32h7xx_hal_dcmi.c ****   /* NOTE : This function Should not be modified, when the callback is needed,
 731:Drivers/STM32H7xx_HAL_Driver/Src/stm32h7xx_hal_dcmi.c ****             the HAL_DCMI_VsyncEventCallback could be implemented in the user file
 732:Drivers/STM32H7xx_HAL_Driver/Src/stm32h7xx_hal_dcmi.c ****    */
 733:Drivers/STM32H7xx_HAL_Driver/Src/stm32h7xx_hal_dcmi.c **** }
 734:Drivers/STM32H7xx_HAL_Driver/Src/stm32h7xx_hal_dcmi.c **** 
 735:Drivers/STM32H7xx_HAL_Driver/Src/stm32h7xx_hal_dcmi.c **** /**
 736:Drivers/STM32H7xx_HAL_Driver/Src/stm32h7xx_hal_dcmi.c ****   * @brief  Frame Event callback.
 737:Drivers/STM32H7xx_HAL_Driver/Src/stm32h7xx_hal_dcmi.c ****   * @param  hdcmi pointer to a DCMI_HandleTypeDef structure that contains
 738:Drivers/STM32H7xx_HAL_Driver/Src/stm32h7xx_hal_dcmi.c ****   *                the configuration information for DCMI.
 739:Drivers/STM32H7xx_HAL_Driver/Src/stm32h7xx_hal_dcmi.c ****   * @retval None
 740:Drivers/STM32H7xx_HAL_Driver/Src/stm32h7xx_hal_dcmi.c ****   */
 741:Drivers/STM32H7xx_HAL_Driver/Src/stm32h7xx_hal_dcmi.c **** __weak void HAL_DCMI_FrameEventCallback(DCMI_HandleTypeDef *hdcmi)
 742:Drivers/STM32H7xx_HAL_Driver/Src/stm32h7xx_hal_dcmi.c **** {
 743:Drivers/STM32H7xx_HAL_Driver/Src/stm32h7xx_hal_dcmi.c ****   /* Prevent unused argument(s) compilation warning */
 744:Drivers/STM32H7xx_HAL_Driver/Src/stm32h7xx_hal_dcmi.c ****   UNUSED(hdcmi);
 745:Drivers/STM32H7xx_HAL_Driver/Src/stm32h7xx_hal_dcmi.c **** 
 746:Drivers/STM32H7xx_HAL_Driver/Src/stm32h7xx_hal_dcmi.c ****   /* NOTE : This function Should not be modified, when the callback is needed,
 747:Drivers/STM32H7xx_HAL_Driver/Src/stm32h7xx_hal_dcmi.c ****             the HAL_DCMI_FrameEventCallback could be implemented in the user file
 748:Drivers/STM32H7xx_HAL_Driver/Src/stm32h7xx_hal_dcmi.c ****    */
 749:Drivers/STM32H7xx_HAL_Driver/Src/stm32h7xx_hal_dcmi.c **** }
 750:Drivers/STM32H7xx_HAL_Driver/Src/stm32h7xx_hal_dcmi.c **** 
 751:Drivers/STM32H7xx_HAL_Driver/Src/stm32h7xx_hal_dcmi.c **** /**
 752:Drivers/STM32H7xx_HAL_Driver/Src/stm32h7xx_hal_dcmi.c ****   * @}
 753:Drivers/STM32H7xx_HAL_Driver/Src/stm32h7xx_hal_dcmi.c ****   */
 754:Drivers/STM32H7xx_HAL_Driver/Src/stm32h7xx_hal_dcmi.c **** 
 755:Drivers/STM32H7xx_HAL_Driver/Src/stm32h7xx_hal_dcmi.c **** /** @defgroup DCMI_Exported_Functions_Group3 Peripheral Control functions
 756:Drivers/STM32H7xx_HAL_Driver/Src/stm32h7xx_hal_dcmi.c ****  *  @brief    Peripheral Control functions
 757:Drivers/STM32H7xx_HAL_Driver/Src/stm32h7xx_hal_dcmi.c ****  *
 758:Drivers/STM32H7xx_HAL_Driver/Src/stm32h7xx_hal_dcmi.c **** @verbatim
 759:Drivers/STM32H7xx_HAL_Driver/Src/stm32h7xx_hal_dcmi.c ****  ===============================================================================
 760:Drivers/STM32H7xx_HAL_Driver/Src/stm32h7xx_hal_dcmi.c ****                     ##### Peripheral Control functions #####
 761:Drivers/STM32H7xx_HAL_Driver/Src/stm32h7xx_hal_dcmi.c ****  ===============================================================================
 762:Drivers/STM32H7xx_HAL_Driver/Src/stm32h7xx_hal_dcmi.c **** [..]  This section provides functions allowing to:
 763:Drivers/STM32H7xx_HAL_Driver/Src/stm32h7xx_hal_dcmi.c ****       (+) Configure the CROP feature.
 764:Drivers/STM32H7xx_HAL_Driver/Src/stm32h7xx_hal_dcmi.c ****       (+) Enable/Disable the CROP feature.
 765:Drivers/STM32H7xx_HAL_Driver/Src/stm32h7xx_hal_dcmi.c ****       (+) Set embedded synchronization delimiters unmasks.
 766:Drivers/STM32H7xx_HAL_Driver/Src/stm32h7xx_hal_dcmi.c **** 
 767:Drivers/STM32H7xx_HAL_Driver/Src/stm32h7xx_hal_dcmi.c **** @endverbatim
 768:Drivers/STM32H7xx_HAL_Driver/Src/stm32h7xx_hal_dcmi.c ****   * @{
 769:Drivers/STM32H7xx_HAL_Driver/Src/stm32h7xx_hal_dcmi.c ****   */
 770:Drivers/STM32H7xx_HAL_Driver/Src/stm32h7xx_hal_dcmi.c **** 
 771:Drivers/STM32H7xx_HAL_Driver/Src/stm32h7xx_hal_dcmi.c **** /**
 772:Drivers/STM32H7xx_HAL_Driver/Src/stm32h7xx_hal_dcmi.c ****   * @brief  Configure the DCMI CROP coordinate.
ARM GAS  C:\Users\theto\AppData\Local\Temp\ccKmbcIV.s 			page 15


 773:Drivers/STM32H7xx_HAL_Driver/Src/stm32h7xx_hal_dcmi.c ****   * @param  hdcmi pointer to a DCMI_HandleTypeDef structure that contains
 774:Drivers/STM32H7xx_HAL_Driver/Src/stm32h7xx_hal_dcmi.c ****   *                the configuration information for DCMI.
 775:Drivers/STM32H7xx_HAL_Driver/Src/stm32h7xx_hal_dcmi.c ****   * @param  YSize DCMI Line number
 776:Drivers/STM32H7xx_HAL_Driver/Src/stm32h7xx_hal_dcmi.c ****   * @param  XSize DCMI Pixel per line
 777:Drivers/STM32H7xx_HAL_Driver/Src/stm32h7xx_hal_dcmi.c ****   * @param  X0    DCMI window X offset
 778:Drivers/STM32H7xx_HAL_Driver/Src/stm32h7xx_hal_dcmi.c ****   * @param  Y0    DCMI window Y offset
 779:Drivers/STM32H7xx_HAL_Driver/Src/stm32h7xx_hal_dcmi.c ****   * @retval HAL status
 780:Drivers/STM32H7xx_HAL_Driver/Src/stm32h7xx_hal_dcmi.c ****   */
 781:Drivers/STM32H7xx_HAL_Driver/Src/stm32h7xx_hal_dcmi.c **** HAL_StatusTypeDef HAL_DCMI_ConfigCrop(DCMI_HandleTypeDef *hdcmi, uint32_t X0, uint32_t Y0, uint32_t
 782:Drivers/STM32H7xx_HAL_Driver/Src/stm32h7xx_hal_dcmi.c **** {
 783:Drivers/STM32H7xx_HAL_Driver/Src/stm32h7xx_hal_dcmi.c ****   /* Process Locked */
 784:Drivers/STM32H7xx_HAL_Driver/Src/stm32h7xx_hal_dcmi.c ****   __HAL_LOCK(hdcmi);
 785:Drivers/STM32H7xx_HAL_Driver/Src/stm32h7xx_hal_dcmi.c **** 
 786:Drivers/STM32H7xx_HAL_Driver/Src/stm32h7xx_hal_dcmi.c ****   /* Lock the DCMI peripheral state */
 787:Drivers/STM32H7xx_HAL_Driver/Src/stm32h7xx_hal_dcmi.c ****   hdcmi->State = HAL_DCMI_STATE_BUSY;
 788:Drivers/STM32H7xx_HAL_Driver/Src/stm32h7xx_hal_dcmi.c **** 
 789:Drivers/STM32H7xx_HAL_Driver/Src/stm32h7xx_hal_dcmi.c ****   /* Check the parameters */
 790:Drivers/STM32H7xx_HAL_Driver/Src/stm32h7xx_hal_dcmi.c ****   assert_param(IS_DCMI_WINDOW_COORDINATE(X0));
 791:Drivers/STM32H7xx_HAL_Driver/Src/stm32h7xx_hal_dcmi.c ****   assert_param(IS_DCMI_WINDOW_HEIGHT(Y0));
 792:Drivers/STM32H7xx_HAL_Driver/Src/stm32h7xx_hal_dcmi.c ****   assert_param(IS_DCMI_WINDOW_COORDINATE(XSize));
 793:Drivers/STM32H7xx_HAL_Driver/Src/stm32h7xx_hal_dcmi.c ****   assert_param(IS_DCMI_WINDOW_COORDINATE(YSize));
 794:Drivers/STM32H7xx_HAL_Driver/Src/stm32h7xx_hal_dcmi.c **** 
 795:Drivers/STM32H7xx_HAL_Driver/Src/stm32h7xx_hal_dcmi.c ****   /* Configure CROP */
 796:Drivers/STM32H7xx_HAL_Driver/Src/stm32h7xx_hal_dcmi.c ****   hdcmi->Instance->CWSIZER = (XSize | (YSize << DCMI_CWSIZE_VLINE_Pos));
 797:Drivers/STM32H7xx_HAL_Driver/Src/stm32h7xx_hal_dcmi.c ****   hdcmi->Instance->CWSTRTR = (X0 | (Y0 << DCMI_CWSTRT_VST_Pos));
 798:Drivers/STM32H7xx_HAL_Driver/Src/stm32h7xx_hal_dcmi.c **** 
 799:Drivers/STM32H7xx_HAL_Driver/Src/stm32h7xx_hal_dcmi.c ****   /* Initialize the DCMI state*/
 800:Drivers/STM32H7xx_HAL_Driver/Src/stm32h7xx_hal_dcmi.c ****   hdcmi->State  = HAL_DCMI_STATE_READY;
 801:Drivers/STM32H7xx_HAL_Driver/Src/stm32h7xx_hal_dcmi.c **** 
 802:Drivers/STM32H7xx_HAL_Driver/Src/stm32h7xx_hal_dcmi.c ****   /* Process Unlocked */
 803:Drivers/STM32H7xx_HAL_Driver/Src/stm32h7xx_hal_dcmi.c ****   __HAL_UNLOCK(hdcmi);
 804:Drivers/STM32H7xx_HAL_Driver/Src/stm32h7xx_hal_dcmi.c **** 
 805:Drivers/STM32H7xx_HAL_Driver/Src/stm32h7xx_hal_dcmi.c ****   return HAL_OK;
 806:Drivers/STM32H7xx_HAL_Driver/Src/stm32h7xx_hal_dcmi.c **** }
 807:Drivers/STM32H7xx_HAL_Driver/Src/stm32h7xx_hal_dcmi.c **** 
 808:Drivers/STM32H7xx_HAL_Driver/Src/stm32h7xx_hal_dcmi.c **** /**
 809:Drivers/STM32H7xx_HAL_Driver/Src/stm32h7xx_hal_dcmi.c ****   * @brief  Disable the Crop feature.
 810:Drivers/STM32H7xx_HAL_Driver/Src/stm32h7xx_hal_dcmi.c ****   * @param  hdcmi pointer to a DCMI_HandleTypeDef structure that contains
 811:Drivers/STM32H7xx_HAL_Driver/Src/stm32h7xx_hal_dcmi.c ****   *                the configuration information for DCMI.
 812:Drivers/STM32H7xx_HAL_Driver/Src/stm32h7xx_hal_dcmi.c ****   * @retval HAL status
 813:Drivers/STM32H7xx_HAL_Driver/Src/stm32h7xx_hal_dcmi.c ****   */
 814:Drivers/STM32H7xx_HAL_Driver/Src/stm32h7xx_hal_dcmi.c **** HAL_StatusTypeDef HAL_DCMI_DisableCrop(DCMI_HandleTypeDef *hdcmi)
 815:Drivers/STM32H7xx_HAL_Driver/Src/stm32h7xx_hal_dcmi.c **** {
 816:Drivers/STM32H7xx_HAL_Driver/Src/stm32h7xx_hal_dcmi.c ****   /* Process Locked */
 817:Drivers/STM32H7xx_HAL_Driver/Src/stm32h7xx_hal_dcmi.c ****   __HAL_LOCK(hdcmi);
 818:Drivers/STM32H7xx_HAL_Driver/Src/stm32h7xx_hal_dcmi.c **** 
 819:Drivers/STM32H7xx_HAL_Driver/Src/stm32h7xx_hal_dcmi.c ****   /* Lock the DCMI peripheral state */
 820:Drivers/STM32H7xx_HAL_Driver/Src/stm32h7xx_hal_dcmi.c ****   hdcmi->State = HAL_DCMI_STATE_BUSY;
 821:Drivers/STM32H7xx_HAL_Driver/Src/stm32h7xx_hal_dcmi.c **** 
 822:Drivers/STM32H7xx_HAL_Driver/Src/stm32h7xx_hal_dcmi.c ****   /* Disable DCMI Crop feature */
 823:Drivers/STM32H7xx_HAL_Driver/Src/stm32h7xx_hal_dcmi.c ****   hdcmi->Instance->CR &= ~(uint32_t)DCMI_CR_CROP;
 824:Drivers/STM32H7xx_HAL_Driver/Src/stm32h7xx_hal_dcmi.c **** 
 825:Drivers/STM32H7xx_HAL_Driver/Src/stm32h7xx_hal_dcmi.c ****   /* Change the DCMI state*/
 826:Drivers/STM32H7xx_HAL_Driver/Src/stm32h7xx_hal_dcmi.c ****   hdcmi->State = HAL_DCMI_STATE_READY;
 827:Drivers/STM32H7xx_HAL_Driver/Src/stm32h7xx_hal_dcmi.c **** 
 828:Drivers/STM32H7xx_HAL_Driver/Src/stm32h7xx_hal_dcmi.c ****   /* Process Unlocked */
 829:Drivers/STM32H7xx_HAL_Driver/Src/stm32h7xx_hal_dcmi.c ****   __HAL_UNLOCK(hdcmi);
ARM GAS  C:\Users\theto\AppData\Local\Temp\ccKmbcIV.s 			page 16


 830:Drivers/STM32H7xx_HAL_Driver/Src/stm32h7xx_hal_dcmi.c **** 
 831:Drivers/STM32H7xx_HAL_Driver/Src/stm32h7xx_hal_dcmi.c ****   return HAL_OK;
 832:Drivers/STM32H7xx_HAL_Driver/Src/stm32h7xx_hal_dcmi.c **** }
 833:Drivers/STM32H7xx_HAL_Driver/Src/stm32h7xx_hal_dcmi.c **** 
 834:Drivers/STM32H7xx_HAL_Driver/Src/stm32h7xx_hal_dcmi.c **** /**
 835:Drivers/STM32H7xx_HAL_Driver/Src/stm32h7xx_hal_dcmi.c ****   * @brief  Enable the Crop feature.
 836:Drivers/STM32H7xx_HAL_Driver/Src/stm32h7xx_hal_dcmi.c ****   * @param  hdcmi pointer to a DCMI_HandleTypeDef structure that contains
 837:Drivers/STM32H7xx_HAL_Driver/Src/stm32h7xx_hal_dcmi.c ****   *                the configuration information for DCMI.
 838:Drivers/STM32H7xx_HAL_Driver/Src/stm32h7xx_hal_dcmi.c ****   * @retval HAL status
 839:Drivers/STM32H7xx_HAL_Driver/Src/stm32h7xx_hal_dcmi.c ****   */
 840:Drivers/STM32H7xx_HAL_Driver/Src/stm32h7xx_hal_dcmi.c **** HAL_StatusTypeDef HAL_DCMI_EnableCrop(DCMI_HandleTypeDef *hdcmi)
 841:Drivers/STM32H7xx_HAL_Driver/Src/stm32h7xx_hal_dcmi.c **** {
 842:Drivers/STM32H7xx_HAL_Driver/Src/stm32h7xx_hal_dcmi.c ****   /* Process Locked */
 843:Drivers/STM32H7xx_HAL_Driver/Src/stm32h7xx_hal_dcmi.c ****   __HAL_LOCK(hdcmi);
 844:Drivers/STM32H7xx_HAL_Driver/Src/stm32h7xx_hal_dcmi.c **** 
 845:Drivers/STM32H7xx_HAL_Driver/Src/stm32h7xx_hal_dcmi.c ****   /* Lock the DCMI peripheral state */
 846:Drivers/STM32H7xx_HAL_Driver/Src/stm32h7xx_hal_dcmi.c ****   hdcmi->State = HAL_DCMI_STATE_BUSY;
 847:Drivers/STM32H7xx_HAL_Driver/Src/stm32h7xx_hal_dcmi.c **** 
 848:Drivers/STM32H7xx_HAL_Driver/Src/stm32h7xx_hal_dcmi.c ****   /* Enable DCMI Crop feature */
 849:Drivers/STM32H7xx_HAL_Driver/Src/stm32h7xx_hal_dcmi.c ****   hdcmi->Instance->CR |= (uint32_t)DCMI_CR_CROP;
 850:Drivers/STM32H7xx_HAL_Driver/Src/stm32h7xx_hal_dcmi.c **** 
 851:Drivers/STM32H7xx_HAL_Driver/Src/stm32h7xx_hal_dcmi.c ****   /* Change the DCMI state*/
 852:Drivers/STM32H7xx_HAL_Driver/Src/stm32h7xx_hal_dcmi.c ****   hdcmi->State = HAL_DCMI_STATE_READY;
 853:Drivers/STM32H7xx_HAL_Driver/Src/stm32h7xx_hal_dcmi.c **** 
 854:Drivers/STM32H7xx_HAL_Driver/Src/stm32h7xx_hal_dcmi.c ****   /* Process Unlocked */
 855:Drivers/STM32H7xx_HAL_Driver/Src/stm32h7xx_hal_dcmi.c ****   __HAL_UNLOCK(hdcmi);
 856:Drivers/STM32H7xx_HAL_Driver/Src/stm32h7xx_hal_dcmi.c **** 
 857:Drivers/STM32H7xx_HAL_Driver/Src/stm32h7xx_hal_dcmi.c ****   return HAL_OK;
 858:Drivers/STM32H7xx_HAL_Driver/Src/stm32h7xx_hal_dcmi.c **** }
 859:Drivers/STM32H7xx_HAL_Driver/Src/stm32h7xx_hal_dcmi.c **** 
 860:Drivers/STM32H7xx_HAL_Driver/Src/stm32h7xx_hal_dcmi.c **** /**
 861:Drivers/STM32H7xx_HAL_Driver/Src/stm32h7xx_hal_dcmi.c ****   * @brief  Set embedded synchronization delimiters unmasks.
 862:Drivers/STM32H7xx_HAL_Driver/Src/stm32h7xx_hal_dcmi.c ****   * @param  hdcmi pointer to a DCMI_HandleTypeDef structure that contains
 863:Drivers/STM32H7xx_HAL_Driver/Src/stm32h7xx_hal_dcmi.c ****   *               the configuration information for DCMI.
 864:Drivers/STM32H7xx_HAL_Driver/Src/stm32h7xx_hal_dcmi.c ****   * @param  SyncUnmask pointer to a DCMI_SyncUnmaskTypeDef structure that contains
 865:Drivers/STM32H7xx_HAL_Driver/Src/stm32h7xx_hal_dcmi.c ****   *                    the embedded synchronization delimiters unmasks.
 866:Drivers/STM32H7xx_HAL_Driver/Src/stm32h7xx_hal_dcmi.c ****   * @retval HAL status
 867:Drivers/STM32H7xx_HAL_Driver/Src/stm32h7xx_hal_dcmi.c ****   */
 868:Drivers/STM32H7xx_HAL_Driver/Src/stm32h7xx_hal_dcmi.c **** HAL_StatusTypeDef  HAL_DCMI_ConfigSyncUnmask(DCMI_HandleTypeDef *hdcmi, DCMI_SyncUnmaskTypeDef *Syn
 869:Drivers/STM32H7xx_HAL_Driver/Src/stm32h7xx_hal_dcmi.c **** {
 870:Drivers/STM32H7xx_HAL_Driver/Src/stm32h7xx_hal_dcmi.c ****   /* Process Locked */
 871:Drivers/STM32H7xx_HAL_Driver/Src/stm32h7xx_hal_dcmi.c ****   __HAL_LOCK(hdcmi);
 872:Drivers/STM32H7xx_HAL_Driver/Src/stm32h7xx_hal_dcmi.c **** 
 873:Drivers/STM32H7xx_HAL_Driver/Src/stm32h7xx_hal_dcmi.c ****   /* Lock the DCMI peripheral state */
 874:Drivers/STM32H7xx_HAL_Driver/Src/stm32h7xx_hal_dcmi.c ****   hdcmi->State = HAL_DCMI_STATE_BUSY;
 875:Drivers/STM32H7xx_HAL_Driver/Src/stm32h7xx_hal_dcmi.c **** 
 876:Drivers/STM32H7xx_HAL_Driver/Src/stm32h7xx_hal_dcmi.c ****   /* Write DCMI embedded synchronization unmask register */
 877:Drivers/STM32H7xx_HAL_Driver/Src/stm32h7xx_hal_dcmi.c ****   hdcmi->Instance->ESUR = (((uint32_t)SyncUnmask->FrameStartUnmask) | \
 878:Drivers/STM32H7xx_HAL_Driver/Src/stm32h7xx_hal_dcmi.c ****                            ((uint32_t)SyncUnmask->LineStartUnmask << DCMI_ESUR_LSU_Pos) | \
 879:Drivers/STM32H7xx_HAL_Driver/Src/stm32h7xx_hal_dcmi.c ****                            ((uint32_t)SyncUnmask->LineEndUnmask << DCMI_ESUR_LEU_Pos) | \
 880:Drivers/STM32H7xx_HAL_Driver/Src/stm32h7xx_hal_dcmi.c ****                            ((uint32_t)SyncUnmask->FrameEndUnmask << DCMI_ESUR_FEU_Pos));
 881:Drivers/STM32H7xx_HAL_Driver/Src/stm32h7xx_hal_dcmi.c **** 
 882:Drivers/STM32H7xx_HAL_Driver/Src/stm32h7xx_hal_dcmi.c ****   /* Change the DCMI state*/
 883:Drivers/STM32H7xx_HAL_Driver/Src/stm32h7xx_hal_dcmi.c ****   hdcmi->State = HAL_DCMI_STATE_READY;
 884:Drivers/STM32H7xx_HAL_Driver/Src/stm32h7xx_hal_dcmi.c **** 
 885:Drivers/STM32H7xx_HAL_Driver/Src/stm32h7xx_hal_dcmi.c ****   /* Process Unlocked */
 886:Drivers/STM32H7xx_HAL_Driver/Src/stm32h7xx_hal_dcmi.c ****   __HAL_UNLOCK(hdcmi);
ARM GAS  C:\Users\theto\AppData\Local\Temp\ccKmbcIV.s 			page 17


 887:Drivers/STM32H7xx_HAL_Driver/Src/stm32h7xx_hal_dcmi.c **** 
 888:Drivers/STM32H7xx_HAL_Driver/Src/stm32h7xx_hal_dcmi.c ****   return HAL_OK;
 889:Drivers/STM32H7xx_HAL_Driver/Src/stm32h7xx_hal_dcmi.c **** }
 890:Drivers/STM32H7xx_HAL_Driver/Src/stm32h7xx_hal_dcmi.c **** 
 891:Drivers/STM32H7xx_HAL_Driver/Src/stm32h7xx_hal_dcmi.c **** /**
 892:Drivers/STM32H7xx_HAL_Driver/Src/stm32h7xx_hal_dcmi.c ****   * @}
 893:Drivers/STM32H7xx_HAL_Driver/Src/stm32h7xx_hal_dcmi.c ****   */
 894:Drivers/STM32H7xx_HAL_Driver/Src/stm32h7xx_hal_dcmi.c **** 
 895:Drivers/STM32H7xx_HAL_Driver/Src/stm32h7xx_hal_dcmi.c **** /** @defgroup DCMI_Exported_Functions_Group4 Peripheral State functions
 896:Drivers/STM32H7xx_HAL_Driver/Src/stm32h7xx_hal_dcmi.c ****  *  @brief    Peripheral State functions
 897:Drivers/STM32H7xx_HAL_Driver/Src/stm32h7xx_hal_dcmi.c ****  *
 898:Drivers/STM32H7xx_HAL_Driver/Src/stm32h7xx_hal_dcmi.c **** @verbatim
 899:Drivers/STM32H7xx_HAL_Driver/Src/stm32h7xx_hal_dcmi.c ****  ===============================================================================
 900:Drivers/STM32H7xx_HAL_Driver/Src/stm32h7xx_hal_dcmi.c ****                ##### Peripheral State and Errors functions #####
 901:Drivers/STM32H7xx_HAL_Driver/Src/stm32h7xx_hal_dcmi.c ****  ===============================================================================
 902:Drivers/STM32H7xx_HAL_Driver/Src/stm32h7xx_hal_dcmi.c ****     [..]
 903:Drivers/STM32H7xx_HAL_Driver/Src/stm32h7xx_hal_dcmi.c ****     This subsection provides functions allowing to
 904:Drivers/STM32H7xx_HAL_Driver/Src/stm32h7xx_hal_dcmi.c ****       (+) Check the DCMI state.
 905:Drivers/STM32H7xx_HAL_Driver/Src/stm32h7xx_hal_dcmi.c ****       (+) Get the specific DCMI error flag.
 906:Drivers/STM32H7xx_HAL_Driver/Src/stm32h7xx_hal_dcmi.c **** 
 907:Drivers/STM32H7xx_HAL_Driver/Src/stm32h7xx_hal_dcmi.c **** @endverbatim
 908:Drivers/STM32H7xx_HAL_Driver/Src/stm32h7xx_hal_dcmi.c ****   * @{
 909:Drivers/STM32H7xx_HAL_Driver/Src/stm32h7xx_hal_dcmi.c ****   */
 910:Drivers/STM32H7xx_HAL_Driver/Src/stm32h7xx_hal_dcmi.c **** 
 911:Drivers/STM32H7xx_HAL_Driver/Src/stm32h7xx_hal_dcmi.c **** /**
 912:Drivers/STM32H7xx_HAL_Driver/Src/stm32h7xx_hal_dcmi.c ****   * @brief  Return the DCMI state
 913:Drivers/STM32H7xx_HAL_Driver/Src/stm32h7xx_hal_dcmi.c ****   * @param  hdcmi pointer to a DCMI_HandleTypeDef structure that contains
 914:Drivers/STM32H7xx_HAL_Driver/Src/stm32h7xx_hal_dcmi.c ****   *                the configuration information for DCMI.
 915:Drivers/STM32H7xx_HAL_Driver/Src/stm32h7xx_hal_dcmi.c ****   * @retval HAL state
 916:Drivers/STM32H7xx_HAL_Driver/Src/stm32h7xx_hal_dcmi.c ****   */
 917:Drivers/STM32H7xx_HAL_Driver/Src/stm32h7xx_hal_dcmi.c **** HAL_DCMI_StateTypeDef HAL_DCMI_GetState(DCMI_HandleTypeDef *hdcmi)
 918:Drivers/STM32H7xx_HAL_Driver/Src/stm32h7xx_hal_dcmi.c **** {
 919:Drivers/STM32H7xx_HAL_Driver/Src/stm32h7xx_hal_dcmi.c ****   return hdcmi->State;
 920:Drivers/STM32H7xx_HAL_Driver/Src/stm32h7xx_hal_dcmi.c **** }
 921:Drivers/STM32H7xx_HAL_Driver/Src/stm32h7xx_hal_dcmi.c **** 
 922:Drivers/STM32H7xx_HAL_Driver/Src/stm32h7xx_hal_dcmi.c **** /**
 923:Drivers/STM32H7xx_HAL_Driver/Src/stm32h7xx_hal_dcmi.c **** * @brief  Return the DCMI error code
 924:Drivers/STM32H7xx_HAL_Driver/Src/stm32h7xx_hal_dcmi.c **** * @param  hdcmi  pointer to a DCMI_HandleTypeDef structure that contains
 925:Drivers/STM32H7xx_HAL_Driver/Src/stm32h7xx_hal_dcmi.c ****   *               the configuration information for DCMI.
 926:Drivers/STM32H7xx_HAL_Driver/Src/stm32h7xx_hal_dcmi.c **** * @retval DCMI Error Code
 927:Drivers/STM32H7xx_HAL_Driver/Src/stm32h7xx_hal_dcmi.c **** */
 928:Drivers/STM32H7xx_HAL_Driver/Src/stm32h7xx_hal_dcmi.c **** uint32_t HAL_DCMI_GetError(DCMI_HandleTypeDef *hdcmi)
 929:Drivers/STM32H7xx_HAL_Driver/Src/stm32h7xx_hal_dcmi.c **** {
 930:Drivers/STM32H7xx_HAL_Driver/Src/stm32h7xx_hal_dcmi.c ****   return hdcmi->ErrorCode;
 931:Drivers/STM32H7xx_HAL_Driver/Src/stm32h7xx_hal_dcmi.c **** }
 932:Drivers/STM32H7xx_HAL_Driver/Src/stm32h7xx_hal_dcmi.c **** 
 933:Drivers/STM32H7xx_HAL_Driver/Src/stm32h7xx_hal_dcmi.c **** #if (USE_HAL_DCMI_REGISTER_CALLBACKS == 1)
 934:Drivers/STM32H7xx_HAL_Driver/Src/stm32h7xx_hal_dcmi.c **** /**
 935:Drivers/STM32H7xx_HAL_Driver/Src/stm32h7xx_hal_dcmi.c ****   * @brief  Register a User DCMI Callback
 936:Drivers/STM32H7xx_HAL_Driver/Src/stm32h7xx_hal_dcmi.c ****   *         To be used instead of the weak predefined callback
 937:Drivers/STM32H7xx_HAL_Driver/Src/stm32h7xx_hal_dcmi.c ****   * @param  hdcmi DCMI handle
 938:Drivers/STM32H7xx_HAL_Driver/Src/stm32h7xx_hal_dcmi.c ****   * @param  CallbackID ID of the callback to be registered
 939:Drivers/STM32H7xx_HAL_Driver/Src/stm32h7xx_hal_dcmi.c ****   *         This parameter can be one of the following values:
 940:Drivers/STM32H7xx_HAL_Driver/Src/stm32h7xx_hal_dcmi.c ****   *          @arg @ref HAL_DCMI_LINE_EVENT_CB_ID Line Event callback ID
 941:Drivers/STM32H7xx_HAL_Driver/Src/stm32h7xx_hal_dcmi.c ****   *          @arg @ref HAL_DCMI_FRAME_EVENT_CB_ID Frame Event callback ID
 942:Drivers/STM32H7xx_HAL_Driver/Src/stm32h7xx_hal_dcmi.c ****   *          @arg @ref HAL_DCMI_VSYNC_EVENT_CB_ID Vsync Event callback ID
 943:Drivers/STM32H7xx_HAL_Driver/Src/stm32h7xx_hal_dcmi.c ****   *          @arg @ref HAL_DCMI_ERROR_CB_ID Error callback ID
ARM GAS  C:\Users\theto\AppData\Local\Temp\ccKmbcIV.s 			page 18


 944:Drivers/STM32H7xx_HAL_Driver/Src/stm32h7xx_hal_dcmi.c ****   *          @arg @ref HAL_DCMI_MSPINIT_CB_ID MspInit callback ID
 945:Drivers/STM32H7xx_HAL_Driver/Src/stm32h7xx_hal_dcmi.c ****   *          @arg @ref HAL_DCMI_MSPDEINIT_CB_ID MspDeInit callback ID
 946:Drivers/STM32H7xx_HAL_Driver/Src/stm32h7xx_hal_dcmi.c ****   * @param  pCallback pointer to the Callback function
 947:Drivers/STM32H7xx_HAL_Driver/Src/stm32h7xx_hal_dcmi.c ****   * @retval HAL status
 948:Drivers/STM32H7xx_HAL_Driver/Src/stm32h7xx_hal_dcmi.c ****   */
 949:Drivers/STM32H7xx_HAL_Driver/Src/stm32h7xx_hal_dcmi.c **** HAL_StatusTypeDef HAL_DCMI_RegisterCallback(DCMI_HandleTypeDef *hdcmi, HAL_DCMI_CallbackIDTypeDef C
 950:Drivers/STM32H7xx_HAL_Driver/Src/stm32h7xx_hal_dcmi.c **** {
 951:Drivers/STM32H7xx_HAL_Driver/Src/stm32h7xx_hal_dcmi.c ****   HAL_StatusTypeDef status = HAL_OK;
 952:Drivers/STM32H7xx_HAL_Driver/Src/stm32h7xx_hal_dcmi.c **** 
 953:Drivers/STM32H7xx_HAL_Driver/Src/stm32h7xx_hal_dcmi.c ****   if (pCallback == NULL)
 954:Drivers/STM32H7xx_HAL_Driver/Src/stm32h7xx_hal_dcmi.c ****   {
 955:Drivers/STM32H7xx_HAL_Driver/Src/stm32h7xx_hal_dcmi.c ****     /* update the error code */
 956:Drivers/STM32H7xx_HAL_Driver/Src/stm32h7xx_hal_dcmi.c ****     hdcmi->ErrorCode |= HAL_DCMI_ERROR_INVALID_CALLBACK;
 957:Drivers/STM32H7xx_HAL_Driver/Src/stm32h7xx_hal_dcmi.c ****     /* update return status */
 958:Drivers/STM32H7xx_HAL_Driver/Src/stm32h7xx_hal_dcmi.c ****     status = HAL_ERROR;
 959:Drivers/STM32H7xx_HAL_Driver/Src/stm32h7xx_hal_dcmi.c ****   }
 960:Drivers/STM32H7xx_HAL_Driver/Src/stm32h7xx_hal_dcmi.c ****   else
 961:Drivers/STM32H7xx_HAL_Driver/Src/stm32h7xx_hal_dcmi.c ****   {
 962:Drivers/STM32H7xx_HAL_Driver/Src/stm32h7xx_hal_dcmi.c ****     if (hdcmi->State == HAL_DCMI_STATE_READY)
 963:Drivers/STM32H7xx_HAL_Driver/Src/stm32h7xx_hal_dcmi.c ****     {
 964:Drivers/STM32H7xx_HAL_Driver/Src/stm32h7xx_hal_dcmi.c ****       switch (CallbackID)
 965:Drivers/STM32H7xx_HAL_Driver/Src/stm32h7xx_hal_dcmi.c ****       {
 966:Drivers/STM32H7xx_HAL_Driver/Src/stm32h7xx_hal_dcmi.c ****         case HAL_DCMI_FRAME_EVENT_CB_ID :
 967:Drivers/STM32H7xx_HAL_Driver/Src/stm32h7xx_hal_dcmi.c ****           hdcmi->FrameEventCallback = pCallback;
 968:Drivers/STM32H7xx_HAL_Driver/Src/stm32h7xx_hal_dcmi.c ****           break;
 969:Drivers/STM32H7xx_HAL_Driver/Src/stm32h7xx_hal_dcmi.c **** 
 970:Drivers/STM32H7xx_HAL_Driver/Src/stm32h7xx_hal_dcmi.c ****         case HAL_DCMI_VSYNC_EVENT_CB_ID :
 971:Drivers/STM32H7xx_HAL_Driver/Src/stm32h7xx_hal_dcmi.c ****           hdcmi->VsyncEventCallback = pCallback;
 972:Drivers/STM32H7xx_HAL_Driver/Src/stm32h7xx_hal_dcmi.c ****           break;
 973:Drivers/STM32H7xx_HAL_Driver/Src/stm32h7xx_hal_dcmi.c **** 
 974:Drivers/STM32H7xx_HAL_Driver/Src/stm32h7xx_hal_dcmi.c ****         case HAL_DCMI_LINE_EVENT_CB_ID :
 975:Drivers/STM32H7xx_HAL_Driver/Src/stm32h7xx_hal_dcmi.c ****           hdcmi->LineEventCallback = pCallback;
 976:Drivers/STM32H7xx_HAL_Driver/Src/stm32h7xx_hal_dcmi.c ****           break;
 977:Drivers/STM32H7xx_HAL_Driver/Src/stm32h7xx_hal_dcmi.c **** 
 978:Drivers/STM32H7xx_HAL_Driver/Src/stm32h7xx_hal_dcmi.c ****         case HAL_DCMI_ERROR_CB_ID :
 979:Drivers/STM32H7xx_HAL_Driver/Src/stm32h7xx_hal_dcmi.c ****           hdcmi->ErrorCallback = pCallback;
 980:Drivers/STM32H7xx_HAL_Driver/Src/stm32h7xx_hal_dcmi.c ****           break;
 981:Drivers/STM32H7xx_HAL_Driver/Src/stm32h7xx_hal_dcmi.c **** 
 982:Drivers/STM32H7xx_HAL_Driver/Src/stm32h7xx_hal_dcmi.c ****         case HAL_DCMI_MSPINIT_CB_ID :
 983:Drivers/STM32H7xx_HAL_Driver/Src/stm32h7xx_hal_dcmi.c ****           hdcmi->MspInitCallback = pCallback;
 984:Drivers/STM32H7xx_HAL_Driver/Src/stm32h7xx_hal_dcmi.c ****           break;
 985:Drivers/STM32H7xx_HAL_Driver/Src/stm32h7xx_hal_dcmi.c **** 
 986:Drivers/STM32H7xx_HAL_Driver/Src/stm32h7xx_hal_dcmi.c ****         case HAL_DCMI_MSPDEINIT_CB_ID :
 987:Drivers/STM32H7xx_HAL_Driver/Src/stm32h7xx_hal_dcmi.c ****           hdcmi->MspDeInitCallback = pCallback;
 988:Drivers/STM32H7xx_HAL_Driver/Src/stm32h7xx_hal_dcmi.c ****           break;
 989:Drivers/STM32H7xx_HAL_Driver/Src/stm32h7xx_hal_dcmi.c **** 
 990:Drivers/STM32H7xx_HAL_Driver/Src/stm32h7xx_hal_dcmi.c ****         default :
 991:Drivers/STM32H7xx_HAL_Driver/Src/stm32h7xx_hal_dcmi.c ****           /* Return error status */
 992:Drivers/STM32H7xx_HAL_Driver/Src/stm32h7xx_hal_dcmi.c ****           status =  HAL_ERROR;
 993:Drivers/STM32H7xx_HAL_Driver/Src/stm32h7xx_hal_dcmi.c ****           break;
 994:Drivers/STM32H7xx_HAL_Driver/Src/stm32h7xx_hal_dcmi.c ****       }
 995:Drivers/STM32H7xx_HAL_Driver/Src/stm32h7xx_hal_dcmi.c ****     }
 996:Drivers/STM32H7xx_HAL_Driver/Src/stm32h7xx_hal_dcmi.c ****     else if (hdcmi->State == HAL_DCMI_STATE_RESET)
 997:Drivers/STM32H7xx_HAL_Driver/Src/stm32h7xx_hal_dcmi.c ****     {
 998:Drivers/STM32H7xx_HAL_Driver/Src/stm32h7xx_hal_dcmi.c ****       switch (CallbackID)
 999:Drivers/STM32H7xx_HAL_Driver/Src/stm32h7xx_hal_dcmi.c ****       {
1000:Drivers/STM32H7xx_HAL_Driver/Src/stm32h7xx_hal_dcmi.c ****         case HAL_DCMI_MSPINIT_CB_ID :
ARM GAS  C:\Users\theto\AppData\Local\Temp\ccKmbcIV.s 			page 19


1001:Drivers/STM32H7xx_HAL_Driver/Src/stm32h7xx_hal_dcmi.c ****           hdcmi->MspInitCallback = pCallback;
1002:Drivers/STM32H7xx_HAL_Driver/Src/stm32h7xx_hal_dcmi.c ****           break;
1003:Drivers/STM32H7xx_HAL_Driver/Src/stm32h7xx_hal_dcmi.c **** 
1004:Drivers/STM32H7xx_HAL_Driver/Src/stm32h7xx_hal_dcmi.c ****         case HAL_DCMI_MSPDEINIT_CB_ID :
1005:Drivers/STM32H7xx_HAL_Driver/Src/stm32h7xx_hal_dcmi.c ****           hdcmi->MspDeInitCallback = pCallback;
1006:Drivers/STM32H7xx_HAL_Driver/Src/stm32h7xx_hal_dcmi.c ****           break;
1007:Drivers/STM32H7xx_HAL_Driver/Src/stm32h7xx_hal_dcmi.c **** 
1008:Drivers/STM32H7xx_HAL_Driver/Src/stm32h7xx_hal_dcmi.c ****         default :
1009:Drivers/STM32H7xx_HAL_Driver/Src/stm32h7xx_hal_dcmi.c ****           /* update the error code */
1010:Drivers/STM32H7xx_HAL_Driver/Src/stm32h7xx_hal_dcmi.c ****           hdcmi->ErrorCode |= HAL_DCMI_ERROR_INVALID_CALLBACK;
1011:Drivers/STM32H7xx_HAL_Driver/Src/stm32h7xx_hal_dcmi.c ****           /* update return status */
1012:Drivers/STM32H7xx_HAL_Driver/Src/stm32h7xx_hal_dcmi.c ****           status = HAL_ERROR;
1013:Drivers/STM32H7xx_HAL_Driver/Src/stm32h7xx_hal_dcmi.c ****           break;
1014:Drivers/STM32H7xx_HAL_Driver/Src/stm32h7xx_hal_dcmi.c ****       }
1015:Drivers/STM32H7xx_HAL_Driver/Src/stm32h7xx_hal_dcmi.c ****     }
1016:Drivers/STM32H7xx_HAL_Driver/Src/stm32h7xx_hal_dcmi.c ****     else
1017:Drivers/STM32H7xx_HAL_Driver/Src/stm32h7xx_hal_dcmi.c ****     {
1018:Drivers/STM32H7xx_HAL_Driver/Src/stm32h7xx_hal_dcmi.c ****       /* update the error code */
1019:Drivers/STM32H7xx_HAL_Driver/Src/stm32h7xx_hal_dcmi.c ****       hdcmi->ErrorCode |= HAL_DCMI_ERROR_INVALID_CALLBACK;
1020:Drivers/STM32H7xx_HAL_Driver/Src/stm32h7xx_hal_dcmi.c ****       /* update return status */
1021:Drivers/STM32H7xx_HAL_Driver/Src/stm32h7xx_hal_dcmi.c ****       status = HAL_ERROR;
1022:Drivers/STM32H7xx_HAL_Driver/Src/stm32h7xx_hal_dcmi.c ****     }
1023:Drivers/STM32H7xx_HAL_Driver/Src/stm32h7xx_hal_dcmi.c ****   }
1024:Drivers/STM32H7xx_HAL_Driver/Src/stm32h7xx_hal_dcmi.c **** 
1025:Drivers/STM32H7xx_HAL_Driver/Src/stm32h7xx_hal_dcmi.c ****   return status;
1026:Drivers/STM32H7xx_HAL_Driver/Src/stm32h7xx_hal_dcmi.c **** }
1027:Drivers/STM32H7xx_HAL_Driver/Src/stm32h7xx_hal_dcmi.c **** 
1028:Drivers/STM32H7xx_HAL_Driver/Src/stm32h7xx_hal_dcmi.c **** /**
1029:Drivers/STM32H7xx_HAL_Driver/Src/stm32h7xx_hal_dcmi.c ****   * @brief  Unregister a DCMI Callback
1030:Drivers/STM32H7xx_HAL_Driver/Src/stm32h7xx_hal_dcmi.c ****   *         DCMI callback is redirected to the weak predefined callback
1031:Drivers/STM32H7xx_HAL_Driver/Src/stm32h7xx_hal_dcmi.c ****   * @param  hdcmi DCMI handle
1032:Drivers/STM32H7xx_HAL_Driver/Src/stm32h7xx_hal_dcmi.c ****   * @param  CallbackID ID of the callback to be registered
1033:Drivers/STM32H7xx_HAL_Driver/Src/stm32h7xx_hal_dcmi.c ****   *         This parameter can be one of the following values:
1034:Drivers/STM32H7xx_HAL_Driver/Src/stm32h7xx_hal_dcmi.c ****   *          @arg @ref HAL_DCMI_LINE_EVENT_CB_ID Line Event callback ID
1035:Drivers/STM32H7xx_HAL_Driver/Src/stm32h7xx_hal_dcmi.c ****   *          @arg @ref HAL_DCMI_FRAME_EVENT_CB_ID Frame Event callback ID
1036:Drivers/STM32H7xx_HAL_Driver/Src/stm32h7xx_hal_dcmi.c ****   *          @arg @ref HAL_DCMI_VSYNC_EVENT_CB_ID Vsync Event callback ID
1037:Drivers/STM32H7xx_HAL_Driver/Src/stm32h7xx_hal_dcmi.c ****   *          @arg @ref HAL_DCMI_ERROR_CB_ID Error callback ID
1038:Drivers/STM32H7xx_HAL_Driver/Src/stm32h7xx_hal_dcmi.c ****   *          @arg @ref HAL_DCMI_MSPINIT_CB_ID MspInit callback ID
1039:Drivers/STM32H7xx_HAL_Driver/Src/stm32h7xx_hal_dcmi.c ****   *          @arg @ref HAL_DCMI_MSPDEINIT_CB_ID MspDeInit callback ID
1040:Drivers/STM32H7xx_HAL_Driver/Src/stm32h7xx_hal_dcmi.c ****   * @retval HAL status
1041:Drivers/STM32H7xx_HAL_Driver/Src/stm32h7xx_hal_dcmi.c ****   */
1042:Drivers/STM32H7xx_HAL_Driver/Src/stm32h7xx_hal_dcmi.c **** HAL_StatusTypeDef HAL_DCMI_UnRegisterCallback(DCMI_HandleTypeDef *hdcmi, HAL_DCMI_CallbackIDTypeDef
1043:Drivers/STM32H7xx_HAL_Driver/Src/stm32h7xx_hal_dcmi.c **** {
1044:Drivers/STM32H7xx_HAL_Driver/Src/stm32h7xx_hal_dcmi.c ****   HAL_StatusTypeDef status = HAL_OK;
1045:Drivers/STM32H7xx_HAL_Driver/Src/stm32h7xx_hal_dcmi.c **** 
1046:Drivers/STM32H7xx_HAL_Driver/Src/stm32h7xx_hal_dcmi.c ****   if (hdcmi->State == HAL_DCMI_STATE_READY)
1047:Drivers/STM32H7xx_HAL_Driver/Src/stm32h7xx_hal_dcmi.c ****   {
1048:Drivers/STM32H7xx_HAL_Driver/Src/stm32h7xx_hal_dcmi.c ****     switch (CallbackID)
1049:Drivers/STM32H7xx_HAL_Driver/Src/stm32h7xx_hal_dcmi.c ****     {
1050:Drivers/STM32H7xx_HAL_Driver/Src/stm32h7xx_hal_dcmi.c ****       case HAL_DCMI_FRAME_EVENT_CB_ID :
1051:Drivers/STM32H7xx_HAL_Driver/Src/stm32h7xx_hal_dcmi.c ****         hdcmi->FrameEventCallback = HAL_DCMI_FrameEventCallback;  /* Legacy weak  FrameEventCallbac
1052:Drivers/STM32H7xx_HAL_Driver/Src/stm32h7xx_hal_dcmi.c ****         break;
1053:Drivers/STM32H7xx_HAL_Driver/Src/stm32h7xx_hal_dcmi.c **** 
1054:Drivers/STM32H7xx_HAL_Driver/Src/stm32h7xx_hal_dcmi.c ****       case HAL_DCMI_VSYNC_EVENT_CB_ID :
1055:Drivers/STM32H7xx_HAL_Driver/Src/stm32h7xx_hal_dcmi.c ****         hdcmi->VsyncEventCallback = HAL_DCMI_VsyncEventCallback;  /* Legacy weak VsyncEventCallback
1056:Drivers/STM32H7xx_HAL_Driver/Src/stm32h7xx_hal_dcmi.c ****         break;
1057:Drivers/STM32H7xx_HAL_Driver/Src/stm32h7xx_hal_dcmi.c **** 
ARM GAS  C:\Users\theto\AppData\Local\Temp\ccKmbcIV.s 			page 20


1058:Drivers/STM32H7xx_HAL_Driver/Src/stm32h7xx_hal_dcmi.c ****       case HAL_DCMI_LINE_EVENT_CB_ID :
1059:Drivers/STM32H7xx_HAL_Driver/Src/stm32h7xx_hal_dcmi.c ****         hdcmi->LineEventCallback = HAL_DCMI_LineEventCallback;    /* Legacy weak LineEventCallback 
1060:Drivers/STM32H7xx_HAL_Driver/Src/stm32h7xx_hal_dcmi.c ****         break;
1061:Drivers/STM32H7xx_HAL_Driver/Src/stm32h7xx_hal_dcmi.c **** 
1062:Drivers/STM32H7xx_HAL_Driver/Src/stm32h7xx_hal_dcmi.c ****       case HAL_DCMI_ERROR_CB_ID :
1063:Drivers/STM32H7xx_HAL_Driver/Src/stm32h7xx_hal_dcmi.c ****         hdcmi->ErrorCallback = HAL_DCMI_ErrorCallback;           /* Legacy weak ErrorCallback      
1064:Drivers/STM32H7xx_HAL_Driver/Src/stm32h7xx_hal_dcmi.c ****         break;
1065:Drivers/STM32H7xx_HAL_Driver/Src/stm32h7xx_hal_dcmi.c **** 
1066:Drivers/STM32H7xx_HAL_Driver/Src/stm32h7xx_hal_dcmi.c ****       case HAL_DCMI_MSPINIT_CB_ID :
1067:Drivers/STM32H7xx_HAL_Driver/Src/stm32h7xx_hal_dcmi.c ****         hdcmi->MspInitCallback = HAL_DCMI_MspInit;
1068:Drivers/STM32H7xx_HAL_Driver/Src/stm32h7xx_hal_dcmi.c ****         break;
1069:Drivers/STM32H7xx_HAL_Driver/Src/stm32h7xx_hal_dcmi.c **** 
1070:Drivers/STM32H7xx_HAL_Driver/Src/stm32h7xx_hal_dcmi.c ****       case HAL_DCMI_MSPDEINIT_CB_ID :
1071:Drivers/STM32H7xx_HAL_Driver/Src/stm32h7xx_hal_dcmi.c ****         hdcmi->MspDeInitCallback = HAL_DCMI_MspDeInit;
1072:Drivers/STM32H7xx_HAL_Driver/Src/stm32h7xx_hal_dcmi.c ****         break;
1073:Drivers/STM32H7xx_HAL_Driver/Src/stm32h7xx_hal_dcmi.c **** 
1074:Drivers/STM32H7xx_HAL_Driver/Src/stm32h7xx_hal_dcmi.c ****       default :
1075:Drivers/STM32H7xx_HAL_Driver/Src/stm32h7xx_hal_dcmi.c ****         /* update the error code */
1076:Drivers/STM32H7xx_HAL_Driver/Src/stm32h7xx_hal_dcmi.c ****         hdcmi->ErrorCode |= HAL_DCMI_ERROR_INVALID_CALLBACK;
1077:Drivers/STM32H7xx_HAL_Driver/Src/stm32h7xx_hal_dcmi.c ****         /* update return status */
1078:Drivers/STM32H7xx_HAL_Driver/Src/stm32h7xx_hal_dcmi.c ****         status = HAL_ERROR;
1079:Drivers/STM32H7xx_HAL_Driver/Src/stm32h7xx_hal_dcmi.c ****         break;
1080:Drivers/STM32H7xx_HAL_Driver/Src/stm32h7xx_hal_dcmi.c ****     }
1081:Drivers/STM32H7xx_HAL_Driver/Src/stm32h7xx_hal_dcmi.c ****   }
1082:Drivers/STM32H7xx_HAL_Driver/Src/stm32h7xx_hal_dcmi.c ****   else if (hdcmi->State == HAL_DCMI_STATE_RESET)
1083:Drivers/STM32H7xx_HAL_Driver/Src/stm32h7xx_hal_dcmi.c ****   {
1084:Drivers/STM32H7xx_HAL_Driver/Src/stm32h7xx_hal_dcmi.c ****     switch (CallbackID)
1085:Drivers/STM32H7xx_HAL_Driver/Src/stm32h7xx_hal_dcmi.c ****     {
1086:Drivers/STM32H7xx_HAL_Driver/Src/stm32h7xx_hal_dcmi.c ****       case HAL_DCMI_MSPINIT_CB_ID :
1087:Drivers/STM32H7xx_HAL_Driver/Src/stm32h7xx_hal_dcmi.c ****         hdcmi->MspInitCallback = HAL_DCMI_MspInit;
1088:Drivers/STM32H7xx_HAL_Driver/Src/stm32h7xx_hal_dcmi.c ****         break;
1089:Drivers/STM32H7xx_HAL_Driver/Src/stm32h7xx_hal_dcmi.c **** 
1090:Drivers/STM32H7xx_HAL_Driver/Src/stm32h7xx_hal_dcmi.c ****       case HAL_DCMI_MSPDEINIT_CB_ID :
1091:Drivers/STM32H7xx_HAL_Driver/Src/stm32h7xx_hal_dcmi.c ****         hdcmi->MspDeInitCallback = HAL_DCMI_MspDeInit;
1092:Drivers/STM32H7xx_HAL_Driver/Src/stm32h7xx_hal_dcmi.c ****         break;
1093:Drivers/STM32H7xx_HAL_Driver/Src/stm32h7xx_hal_dcmi.c **** 
1094:Drivers/STM32H7xx_HAL_Driver/Src/stm32h7xx_hal_dcmi.c ****       default :
1095:Drivers/STM32H7xx_HAL_Driver/Src/stm32h7xx_hal_dcmi.c ****         /* update the error code */
1096:Drivers/STM32H7xx_HAL_Driver/Src/stm32h7xx_hal_dcmi.c ****         hdcmi->ErrorCode |= HAL_DCMI_ERROR_INVALID_CALLBACK;
1097:Drivers/STM32H7xx_HAL_Driver/Src/stm32h7xx_hal_dcmi.c ****         /* update return status */
1098:Drivers/STM32H7xx_HAL_Driver/Src/stm32h7xx_hal_dcmi.c ****         status = HAL_ERROR;
1099:Drivers/STM32H7xx_HAL_Driver/Src/stm32h7xx_hal_dcmi.c ****         break;
1100:Drivers/STM32H7xx_HAL_Driver/Src/stm32h7xx_hal_dcmi.c ****     }
1101:Drivers/STM32H7xx_HAL_Driver/Src/stm32h7xx_hal_dcmi.c ****   }
1102:Drivers/STM32H7xx_HAL_Driver/Src/stm32h7xx_hal_dcmi.c ****   else
1103:Drivers/STM32H7xx_HAL_Driver/Src/stm32h7xx_hal_dcmi.c ****   {
1104:Drivers/STM32H7xx_HAL_Driver/Src/stm32h7xx_hal_dcmi.c ****     /* update the error code */
1105:Drivers/STM32H7xx_HAL_Driver/Src/stm32h7xx_hal_dcmi.c ****     hdcmi->ErrorCode |= HAL_DCMI_ERROR_INVALID_CALLBACK;
1106:Drivers/STM32H7xx_HAL_Driver/Src/stm32h7xx_hal_dcmi.c ****     /* update return status */
1107:Drivers/STM32H7xx_HAL_Driver/Src/stm32h7xx_hal_dcmi.c ****     status = HAL_ERROR;
1108:Drivers/STM32H7xx_HAL_Driver/Src/stm32h7xx_hal_dcmi.c ****   }
1109:Drivers/STM32H7xx_HAL_Driver/Src/stm32h7xx_hal_dcmi.c **** 
1110:Drivers/STM32H7xx_HAL_Driver/Src/stm32h7xx_hal_dcmi.c ****   return status;
1111:Drivers/STM32H7xx_HAL_Driver/Src/stm32h7xx_hal_dcmi.c **** }
1112:Drivers/STM32H7xx_HAL_Driver/Src/stm32h7xx_hal_dcmi.c **** #endif /* USE_HAL_DCMI_REGISTER_CALLBACKS */
1113:Drivers/STM32H7xx_HAL_Driver/Src/stm32h7xx_hal_dcmi.c **** 
1114:Drivers/STM32H7xx_HAL_Driver/Src/stm32h7xx_hal_dcmi.c **** /**
ARM GAS  C:\Users\theto\AppData\Local\Temp\ccKmbcIV.s 			page 21


1115:Drivers/STM32H7xx_HAL_Driver/Src/stm32h7xx_hal_dcmi.c ****   * @}
1116:Drivers/STM32H7xx_HAL_Driver/Src/stm32h7xx_hal_dcmi.c ****   */
1117:Drivers/STM32H7xx_HAL_Driver/Src/stm32h7xx_hal_dcmi.c **** 
1118:Drivers/STM32H7xx_HAL_Driver/Src/stm32h7xx_hal_dcmi.c **** /**
1119:Drivers/STM32H7xx_HAL_Driver/Src/stm32h7xx_hal_dcmi.c ****   * @}
1120:Drivers/STM32H7xx_HAL_Driver/Src/stm32h7xx_hal_dcmi.c ****   */
1121:Drivers/STM32H7xx_HAL_Driver/Src/stm32h7xx_hal_dcmi.c **** /* Private functions ---------------------------------------------------------*/
1122:Drivers/STM32H7xx_HAL_Driver/Src/stm32h7xx_hal_dcmi.c **** /** @defgroup DCMI_Private_Functions DCMI Private Functions
1123:Drivers/STM32H7xx_HAL_Driver/Src/stm32h7xx_hal_dcmi.c ****   * @{
1124:Drivers/STM32H7xx_HAL_Driver/Src/stm32h7xx_hal_dcmi.c ****   */
1125:Drivers/STM32H7xx_HAL_Driver/Src/stm32h7xx_hal_dcmi.c **** /**
1126:Drivers/STM32H7xx_HAL_Driver/Src/stm32h7xx_hal_dcmi.c ****   * @brief  DMA conversion complete callback.
1127:Drivers/STM32H7xx_HAL_Driver/Src/stm32h7xx_hal_dcmi.c ****   * @param  hdma pointer to a DMA_HandleTypeDef structure that contains
1128:Drivers/STM32H7xx_HAL_Driver/Src/stm32h7xx_hal_dcmi.c ****   *                the configuration information for the specified DMA module.
1129:Drivers/STM32H7xx_HAL_Driver/Src/stm32h7xx_hal_dcmi.c ****   * @retval None
1130:Drivers/STM32H7xx_HAL_Driver/Src/stm32h7xx_hal_dcmi.c ****   */
1131:Drivers/STM32H7xx_HAL_Driver/Src/stm32h7xx_hal_dcmi.c **** static void DCMI_DMAXferCplt(DMA_HandleTypeDef *hdma)
1132:Drivers/STM32H7xx_HAL_Driver/Src/stm32h7xx_hal_dcmi.c **** {
  28              		.loc 1 1132 1 view -0
  29              		.cfi_startproc
  30              		@ args = 0, pretend = 0, frame = 0
  31              		@ frame_needed = 0, uses_anonymous_args = 0
  32              		.loc 1 1132 1 is_stmt 0 view .LVU1
  33 0000 10B5     		push	{r4, lr}
  34              	.LCFI0:
  35              		.cfi_def_cfa_offset 8
  36              		.cfi_offset 4, -8
  37              		.cfi_offset 14, -4
1133:Drivers/STM32H7xx_HAL_Driver/Src/stm32h7xx_hal_dcmi.c ****   uint32_t tmp ;
  38              		.loc 1 1133 3 is_stmt 1 view .LVU2
1134:Drivers/STM32H7xx_HAL_Driver/Src/stm32h7xx_hal_dcmi.c **** 
1135:Drivers/STM32H7xx_HAL_Driver/Src/stm32h7xx_hal_dcmi.c ****   DCMI_HandleTypeDef *hdcmi = (DCMI_HandleTypeDef *)((DMA_HandleTypeDef *)hdma)->Parent;
  39              		.loc 1 1135 3 view .LVU3
  40              		.loc 1 1135 23 is_stmt 0 view .LVU4
  41 0002 846B     		ldr	r4, [r0, #56]
  42              	.LVL1:
1136:Drivers/STM32H7xx_HAL_Driver/Src/stm32h7xx_hal_dcmi.c **** 
1137:Drivers/STM32H7xx_HAL_Driver/Src/stm32h7xx_hal_dcmi.c ****   if (hdcmi->XferCount != 0U)
  43              		.loc 1 1137 3 is_stmt 1 view .LVU5
  44              		.loc 1 1137 12 is_stmt 0 view .LVU6
  45 0004 A36B     		ldr	r3, [r4, #56]
  46              		.loc 1 1137 6 view .LVU7
  47 0006 43B3     		cbz	r3, .L2
1138:Drivers/STM32H7xx_HAL_Driver/Src/stm32h7xx_hal_dcmi.c ****   {
1139:Drivers/STM32H7xx_HAL_Driver/Src/stm32h7xx_hal_dcmi.c ****     /* Update memory 0 address location */
1140:Drivers/STM32H7xx_HAL_Driver/Src/stm32h7xx_hal_dcmi.c ****     tmp = ((((DMA_Stream_TypeDef *)(hdcmi->DMA_Handle->Instance))->CR) & DMA_SxCR_CT);
  48              		.loc 1 1140 5 is_stmt 1 view .LVU8
  49              		.loc 1 1140 42 is_stmt 0 view .LVU9
  50 0008 A06C     		ldr	r0, [r4, #72]
  51              	.LVL2:
  52              		.loc 1 1140 54 view .LVU10
  53 000a 0268     		ldr	r2, [r0]
  54              		.loc 1 1140 66 view .LVU11
  55 000c 1368     		ldr	r3, [r2]
  56              		.loc 1 1140 9 view .LVU12
  57 000e 03F40023 		and	r3, r3, #524288
  58              	.LVL3:
ARM GAS  C:\Users\theto\AppData\Local\Temp\ccKmbcIV.s 			page 22


1141:Drivers/STM32H7xx_HAL_Driver/Src/stm32h7xx_hal_dcmi.c ****     if (((hdcmi->XferCount % 2U) == 0U) && (tmp != 0U))
  59              		.loc 1 1141 5 is_stmt 1 view .LVU13
  60              		.loc 1 1141 16 is_stmt 0 view .LVU14
  61 0012 A16B     		ldr	r1, [r4, #56]
  62              		.loc 1 1141 8 view .LVU15
  63 0014 11F0010F 		tst	r1, #1
  64 0018 00D1     		bne	.L3
  65              		.loc 1 1141 41 discriminator 1 view .LVU16
  66 001a 43B9     		cbnz	r3, .L8
  67              	.L3:
1142:Drivers/STM32H7xx_HAL_Driver/Src/stm32h7xx_hal_dcmi.c ****     {
1143:Drivers/STM32H7xx_HAL_Driver/Src/stm32h7xx_hal_dcmi.c ****       tmp = ((DMA_Stream_TypeDef *)(hdcmi->DMA_Handle->Instance))->M0AR;
1144:Drivers/STM32H7xx_HAL_Driver/Src/stm32h7xx_hal_dcmi.c ****       (void)HAL_DMAEx_ChangeMemory(hdcmi->DMA_Handle, (tmp + (8U * hdcmi->XferSize)), MEMORY0);
1145:Drivers/STM32H7xx_HAL_Driver/Src/stm32h7xx_hal_dcmi.c ****       hdcmi->XferCount--;
1146:Drivers/STM32H7xx_HAL_Driver/Src/stm32h7xx_hal_dcmi.c ****     }
1147:Drivers/STM32H7xx_HAL_Driver/Src/stm32h7xx_hal_dcmi.c ****     /* Update memory 1 address location */
1148:Drivers/STM32H7xx_HAL_Driver/Src/stm32h7xx_hal_dcmi.c ****     else if ((((DMA_Stream_TypeDef *)(hdcmi->DMA_Handle->Instance))->CR & DMA_SxCR_CT) == 0U)
  68              		.loc 1 1148 10 is_stmt 1 view .LVU17
  69              		.loc 1 1148 68 is_stmt 0 view .LVU18
  70 001c 1368     		ldr	r3, [r2]
  71              	.LVL4:
  72              		.loc 1 1148 13 view .LVU19
  73 001e 13F4002F 		tst	r3, #524288
  74 0022 0FD0     		beq	.L9
  75              	.L4:
1149:Drivers/STM32H7xx_HAL_Driver/Src/stm32h7xx_hal_dcmi.c ****     {
1150:Drivers/STM32H7xx_HAL_Driver/Src/stm32h7xx_hal_dcmi.c ****       tmp = ((DMA_Stream_TypeDef *)(hdcmi->DMA_Handle->Instance))->M1AR;
1151:Drivers/STM32H7xx_HAL_Driver/Src/stm32h7xx_hal_dcmi.c ****       (void)HAL_DMAEx_ChangeMemory(hdcmi->DMA_Handle, (tmp + (8U * hdcmi->XferSize)), MEMORY1);
1152:Drivers/STM32H7xx_HAL_Driver/Src/stm32h7xx_hal_dcmi.c ****       hdcmi->XferCount--;
1153:Drivers/STM32H7xx_HAL_Driver/Src/stm32h7xx_hal_dcmi.c ****     }
1154:Drivers/STM32H7xx_HAL_Driver/Src/stm32h7xx_hal_dcmi.c ****     else
1155:Drivers/STM32H7xx_HAL_Driver/Src/stm32h7xx_hal_dcmi.c ****     {
1156:Drivers/STM32H7xx_HAL_Driver/Src/stm32h7xx_hal_dcmi.c ****       /* Nothing to do */
1157:Drivers/STM32H7xx_HAL_Driver/Src/stm32h7xx_hal_dcmi.c ****     }
1158:Drivers/STM32H7xx_HAL_Driver/Src/stm32h7xx_hal_dcmi.c ****   }
1159:Drivers/STM32H7xx_HAL_Driver/Src/stm32h7xx_hal_dcmi.c ****   /* Update memory 0 address location */
1160:Drivers/STM32H7xx_HAL_Driver/Src/stm32h7xx_hal_dcmi.c ****   else if ((((DMA_Stream_TypeDef *)(hdcmi->DMA_Handle->Instance))->CR & DMA_SxCR_CT) != 0U)
1161:Drivers/STM32H7xx_HAL_Driver/Src/stm32h7xx_hal_dcmi.c ****   {
1162:Drivers/STM32H7xx_HAL_Driver/Src/stm32h7xx_hal_dcmi.c ****     ((DMA_Stream_TypeDef *)(hdcmi->DMA_Handle->Instance))->M0AR = hdcmi->pBuffPtr;
1163:Drivers/STM32H7xx_HAL_Driver/Src/stm32h7xx_hal_dcmi.c ****   }
1164:Drivers/STM32H7xx_HAL_Driver/Src/stm32h7xx_hal_dcmi.c ****   /* Update memory 1 address location */
1165:Drivers/STM32H7xx_HAL_Driver/Src/stm32h7xx_hal_dcmi.c ****   else if ((((DMA_Stream_TypeDef *)(hdcmi->DMA_Handle->Instance))->CR & DMA_SxCR_CT) == 0U)
1166:Drivers/STM32H7xx_HAL_Driver/Src/stm32h7xx_hal_dcmi.c ****   {
1167:Drivers/STM32H7xx_HAL_Driver/Src/stm32h7xx_hal_dcmi.c ****     tmp = hdcmi->pBuffPtr;
1168:Drivers/STM32H7xx_HAL_Driver/Src/stm32h7xx_hal_dcmi.c ****     ((DMA_Stream_TypeDef *)(hdcmi->DMA_Handle->Instance))->M1AR = (tmp + (4U * hdcmi->XferSize));
1169:Drivers/STM32H7xx_HAL_Driver/Src/stm32h7xx_hal_dcmi.c ****     hdcmi->XferCount = hdcmi->XferTransferNumber;
1170:Drivers/STM32H7xx_HAL_Driver/Src/stm32h7xx_hal_dcmi.c ****   }
1171:Drivers/STM32H7xx_HAL_Driver/Src/stm32h7xx_hal_dcmi.c ****   else
1172:Drivers/STM32H7xx_HAL_Driver/Src/stm32h7xx_hal_dcmi.c ****   {
1173:Drivers/STM32H7xx_HAL_Driver/Src/stm32h7xx_hal_dcmi.c ****     /* Nothing to do */
1174:Drivers/STM32H7xx_HAL_Driver/Src/stm32h7xx_hal_dcmi.c ****   }
  76              		.loc 1 1174 3 is_stmt 1 view .LVU20
1175:Drivers/STM32H7xx_HAL_Driver/Src/stm32h7xx_hal_dcmi.c **** 
1176:Drivers/STM32H7xx_HAL_Driver/Src/stm32h7xx_hal_dcmi.c ****   /* Check if the frame is transferred */
1177:Drivers/STM32H7xx_HAL_Driver/Src/stm32h7xx_hal_dcmi.c ****   if (hdcmi->XferCount == hdcmi->XferTransferNumber)
  77              		.loc 1 1177 3 view .LVU21
  78              		.loc 1 1177 12 is_stmt 0 view .LVU22
ARM GAS  C:\Users\theto\AppData\Local\Temp\ccKmbcIV.s 			page 23


  79 0024 A26B     		ldr	r2, [r4, #56]
  80              		.loc 1 1177 32 view .LVU23
  81 0026 236C     		ldr	r3, [r4, #64]
  82              		.loc 1 1177 6 view .LVU24
  83 0028 9A42     		cmp	r2, r3
  84 002a 2BD0     		beq	.L10
  85              	.L1:
1178:Drivers/STM32H7xx_HAL_Driver/Src/stm32h7xx_hal_dcmi.c ****   {
1179:Drivers/STM32H7xx_HAL_Driver/Src/stm32h7xx_hal_dcmi.c ****     /* Enable the Frame interrupt */
1180:Drivers/STM32H7xx_HAL_Driver/Src/stm32h7xx_hal_dcmi.c ****     __HAL_DCMI_ENABLE_IT(hdcmi, DCMI_IT_FRAME);
1181:Drivers/STM32H7xx_HAL_Driver/Src/stm32h7xx_hal_dcmi.c **** 
1182:Drivers/STM32H7xx_HAL_Driver/Src/stm32h7xx_hal_dcmi.c ****     /* When snapshot mode, set dcmi state to ready */
1183:Drivers/STM32H7xx_HAL_Driver/Src/stm32h7xx_hal_dcmi.c ****     if ((hdcmi->Instance->CR & DCMI_CR_CM) == DCMI_MODE_SNAPSHOT)
1184:Drivers/STM32H7xx_HAL_Driver/Src/stm32h7xx_hal_dcmi.c ****     {
1185:Drivers/STM32H7xx_HAL_Driver/Src/stm32h7xx_hal_dcmi.c ****       hdcmi->State = HAL_DCMI_STATE_READY;
1186:Drivers/STM32H7xx_HAL_Driver/Src/stm32h7xx_hal_dcmi.c ****     }
1187:Drivers/STM32H7xx_HAL_Driver/Src/stm32h7xx_hal_dcmi.c ****   }
1188:Drivers/STM32H7xx_HAL_Driver/Src/stm32h7xx_hal_dcmi.c **** }
  86              		.loc 1 1188 1 view .LVU25
  87 002c 10BD     		pop	{r4, pc}
  88              	.LVL5:
  89              	.L8:
1143:Drivers/STM32H7xx_HAL_Driver/Src/stm32h7xx_hal_dcmi.c ****       (void)HAL_DMAEx_ChangeMemory(hdcmi->DMA_Handle, (tmp + (8U * hdcmi->XferSize)), MEMORY0);
  90              		.loc 1 1143 7 is_stmt 1 view .LVU26
1143:Drivers/STM32H7xx_HAL_Driver/Src/stm32h7xx_hal_dcmi.c ****       (void)HAL_DMAEx_ChangeMemory(hdcmi->DMA_Handle, (tmp + (8U * hdcmi->XferSize)), MEMORY0);
  91              		.loc 1 1143 11 is_stmt 0 view .LVU27
  92 002e D368     		ldr	r3, [r2, #12]
  93              	.LVL6:
1144:Drivers/STM32H7xx_HAL_Driver/Src/stm32h7xx_hal_dcmi.c ****       hdcmi->XferCount--;
  94              		.loc 1 1144 7 is_stmt 1 view .LVU28
1144:Drivers/STM32H7xx_HAL_Driver/Src/stm32h7xx_hal_dcmi.c ****       hdcmi->XferCount--;
  95              		.loc 1 1144 73 is_stmt 0 view .LVU29
  96 0030 E16B     		ldr	r1, [r4, #60]
1144:Drivers/STM32H7xx_HAL_Driver/Src/stm32h7xx_hal_dcmi.c ****       hdcmi->XferCount--;
  97              		.loc 1 1144 13 view .LVU30
  98 0032 0022     		movs	r2, #0
  99 0034 03EBC101 		add	r1, r3, r1, lsl #3
 100 0038 FFF7FEFF 		bl	HAL_DMAEx_ChangeMemory
 101              	.LVL7:
1145:Drivers/STM32H7xx_HAL_Driver/Src/stm32h7xx_hal_dcmi.c ****     }
 102              		.loc 1 1145 7 is_stmt 1 view .LVU31
1145:Drivers/STM32H7xx_HAL_Driver/Src/stm32h7xx_hal_dcmi.c ****     }
 103              		.loc 1 1145 12 is_stmt 0 view .LVU32
 104 003c A36B     		ldr	r3, [r4, #56]
1145:Drivers/STM32H7xx_HAL_Driver/Src/stm32h7xx_hal_dcmi.c ****     }
 105              		.loc 1 1145 23 view .LVU33
 106 003e 013B     		subs	r3, r3, #1
 107 0040 A363     		str	r3, [r4, #56]
 108 0042 EFE7     		b	.L4
 109              	.L9:
1150:Drivers/STM32H7xx_HAL_Driver/Src/stm32h7xx_hal_dcmi.c ****       (void)HAL_DMAEx_ChangeMemory(hdcmi->DMA_Handle, (tmp + (8U * hdcmi->XferSize)), MEMORY1);
 110              		.loc 1 1150 7 is_stmt 1 view .LVU34
1150:Drivers/STM32H7xx_HAL_Driver/Src/stm32h7xx_hal_dcmi.c ****       (void)HAL_DMAEx_ChangeMemory(hdcmi->DMA_Handle, (tmp + (8U * hdcmi->XferSize)), MEMORY1);
 111              		.loc 1 1150 11 is_stmt 0 view .LVU35
 112 0044 1369     		ldr	r3, [r2, #16]
 113              	.LVL8:
1151:Drivers/STM32H7xx_HAL_Driver/Src/stm32h7xx_hal_dcmi.c ****       hdcmi->XferCount--;
ARM GAS  C:\Users\theto\AppData\Local\Temp\ccKmbcIV.s 			page 24


 114              		.loc 1 1151 7 is_stmt 1 view .LVU36
1151:Drivers/STM32H7xx_HAL_Driver/Src/stm32h7xx_hal_dcmi.c ****       hdcmi->XferCount--;
 115              		.loc 1 1151 73 is_stmt 0 view .LVU37
 116 0046 E16B     		ldr	r1, [r4, #60]
1151:Drivers/STM32H7xx_HAL_Driver/Src/stm32h7xx_hal_dcmi.c ****       hdcmi->XferCount--;
 117              		.loc 1 1151 13 view .LVU38
 118 0048 0122     		movs	r2, #1
 119 004a 03EBC101 		add	r1, r3, r1, lsl #3
 120 004e FFF7FEFF 		bl	HAL_DMAEx_ChangeMemory
 121              	.LVL9:
1152:Drivers/STM32H7xx_HAL_Driver/Src/stm32h7xx_hal_dcmi.c ****     }
 122              		.loc 1 1152 7 is_stmt 1 view .LVU39
1152:Drivers/STM32H7xx_HAL_Driver/Src/stm32h7xx_hal_dcmi.c ****     }
 123              		.loc 1 1152 12 is_stmt 0 view .LVU40
 124 0052 A36B     		ldr	r3, [r4, #56]
1152:Drivers/STM32H7xx_HAL_Driver/Src/stm32h7xx_hal_dcmi.c ****     }
 125              		.loc 1 1152 23 view .LVU41
 126 0054 013B     		subs	r3, r3, #1
 127 0056 A363     		str	r3, [r4, #56]
 128 0058 E4E7     		b	.L4
 129              	.LVL10:
 130              	.L2:
1160:Drivers/STM32H7xx_HAL_Driver/Src/stm32h7xx_hal_dcmi.c ****   {
 131              		.loc 1 1160 8 is_stmt 1 view .LVU42
1160:Drivers/STM32H7xx_HAL_Driver/Src/stm32h7xx_hal_dcmi.c ****   {
 132              		.loc 1 1160 42 is_stmt 0 view .LVU43
 133 005a A36C     		ldr	r3, [r4, #72]
1160:Drivers/STM32H7xx_HAL_Driver/Src/stm32h7xx_hal_dcmi.c ****   {
 134              		.loc 1 1160 54 view .LVU44
 135 005c 1B68     		ldr	r3, [r3]
1160:Drivers/STM32H7xx_HAL_Driver/Src/stm32h7xx_hal_dcmi.c ****   {
 136              		.loc 1 1160 66 view .LVU45
 137 005e 1A68     		ldr	r2, [r3]
1160:Drivers/STM32H7xx_HAL_Driver/Src/stm32h7xx_hal_dcmi.c ****   {
 138              		.loc 1 1160 11 view .LVU46
 139 0060 12F4002F 		tst	r2, #524288
 140 0064 02D0     		beq	.L5
1162:Drivers/STM32H7xx_HAL_Driver/Src/stm32h7xx_hal_dcmi.c ****   }
 141              		.loc 1 1162 5 is_stmt 1 view .LVU47
1162:Drivers/STM32H7xx_HAL_Driver/Src/stm32h7xx_hal_dcmi.c ****   }
 142              		.loc 1 1162 72 is_stmt 0 view .LVU48
 143 0066 626C     		ldr	r2, [r4, #68]
1162:Drivers/STM32H7xx_HAL_Driver/Src/stm32h7xx_hal_dcmi.c ****   }
 144              		.loc 1 1162 65 view .LVU49
 145 0068 DA60     		str	r2, [r3, #12]
 146 006a DBE7     		b	.L4
 147              	.L5:
1165:Drivers/STM32H7xx_HAL_Driver/Src/stm32h7xx_hal_dcmi.c ****   {
 148              		.loc 1 1165 8 is_stmt 1 view .LVU50
1165:Drivers/STM32H7xx_HAL_Driver/Src/stm32h7xx_hal_dcmi.c ****   {
 149              		.loc 1 1165 66 is_stmt 0 view .LVU51
 150 006c 1A68     		ldr	r2, [r3]
1165:Drivers/STM32H7xx_HAL_Driver/Src/stm32h7xx_hal_dcmi.c ****   {
 151              		.loc 1 1165 11 view .LVU52
 152 006e 12F4002F 		tst	r2, #524288
 153 0072 D7D1     		bne	.L4
1167:Drivers/STM32H7xx_HAL_Driver/Src/stm32h7xx_hal_dcmi.c ****     ((DMA_Stream_TypeDef *)(hdcmi->DMA_Handle->Instance))->M1AR = (tmp + (4U * hdcmi->XferSize));
ARM GAS  C:\Users\theto\AppData\Local\Temp\ccKmbcIV.s 			page 25


 154              		.loc 1 1167 5 is_stmt 1 view .LVU53
1167:Drivers/STM32H7xx_HAL_Driver/Src/stm32h7xx_hal_dcmi.c ****     ((DMA_Stream_TypeDef *)(hdcmi->DMA_Handle->Instance))->M1AR = (tmp + (4U * hdcmi->XferSize));
 155              		.loc 1 1167 9 is_stmt 0 view .LVU54
 156 0074 626C     		ldr	r2, [r4, #68]
 157              	.LVL11:
1168:Drivers/STM32H7xx_HAL_Driver/Src/stm32h7xx_hal_dcmi.c ****     hdcmi->XferCount = hdcmi->XferTransferNumber;
 158              		.loc 1 1168 5 is_stmt 1 view .LVU55
1168:Drivers/STM32H7xx_HAL_Driver/Src/stm32h7xx_hal_dcmi.c ****     hdcmi->XferCount = hdcmi->XferTransferNumber;
 159              		.loc 1 1168 85 is_stmt 0 view .LVU56
 160 0076 E16B     		ldr	r1, [r4, #60]
1168:Drivers/STM32H7xx_HAL_Driver/Src/stm32h7xx_hal_dcmi.c ****     hdcmi->XferCount = hdcmi->XferTransferNumber;
 161              		.loc 1 1168 72 view .LVU57
 162 0078 02EB8102 		add	r2, r2, r1, lsl #2
 163              	.LVL12:
1168:Drivers/STM32H7xx_HAL_Driver/Src/stm32h7xx_hal_dcmi.c ****     hdcmi->XferCount = hdcmi->XferTransferNumber;
 164              		.loc 1 1168 65 view .LVU58
 165 007c 1A61     		str	r2, [r3, #16]
 166              	.LVL13:
1169:Drivers/STM32H7xx_HAL_Driver/Src/stm32h7xx_hal_dcmi.c ****   }
 167              		.loc 1 1169 5 is_stmt 1 view .LVU59
1169:Drivers/STM32H7xx_HAL_Driver/Src/stm32h7xx_hal_dcmi.c ****   }
 168              		.loc 1 1169 29 is_stmt 0 view .LVU60
 169 007e 236C     		ldr	r3, [r4, #64]
1169:Drivers/STM32H7xx_HAL_Driver/Src/stm32h7xx_hal_dcmi.c ****   }
 170              		.loc 1 1169 22 view .LVU61
 171 0080 A363     		str	r3, [r4, #56]
 172 0082 CFE7     		b	.L4
 173              	.LVL14:
 174              	.L10:
1180:Drivers/STM32H7xx_HAL_Driver/Src/stm32h7xx_hal_dcmi.c **** 
 175              		.loc 1 1180 5 is_stmt 1 view .LVU62
 176 0084 2268     		ldr	r2, [r4]
 177 0086 D368     		ldr	r3, [r2, #12]
 178 0088 43F00103 		orr	r3, r3, #1
 179 008c D360     		str	r3, [r2, #12]
1183:Drivers/STM32H7xx_HAL_Driver/Src/stm32h7xx_hal_dcmi.c ****     {
 180              		.loc 1 1183 5 view .LVU63
1183:Drivers/STM32H7xx_HAL_Driver/Src/stm32h7xx_hal_dcmi.c ****     {
 181              		.loc 1 1183 15 is_stmt 0 view .LVU64
 182 008e 2368     		ldr	r3, [r4]
1183:Drivers/STM32H7xx_HAL_Driver/Src/stm32h7xx_hal_dcmi.c ****     {
 183              		.loc 1 1183 25 view .LVU65
 184 0090 1B68     		ldr	r3, [r3]
1183:Drivers/STM32H7xx_HAL_Driver/Src/stm32h7xx_hal_dcmi.c ****     {
 185              		.loc 1 1183 8 view .LVU66
 186 0092 13F0020F 		tst	r3, #2
 187 0096 C9D0     		beq	.L1
1185:Drivers/STM32H7xx_HAL_Driver/Src/stm32h7xx_hal_dcmi.c ****     }
 188              		.loc 1 1185 7 is_stmt 1 view .LVU67
1185:Drivers/STM32H7xx_HAL_Driver/Src/stm32h7xx_hal_dcmi.c ****     }
 189              		.loc 1 1185 20 is_stmt 0 view .LVU68
 190 0098 0123     		movs	r3, #1
 191 009a 84F83530 		strb	r3, [r4, #53]
 192              		.loc 1 1188 1 view .LVU69
 193 009e C5E7     		b	.L1
 194              		.cfi_endproc
 195              	.LFE163:
ARM GAS  C:\Users\theto\AppData\Local\Temp\ccKmbcIV.s 			page 26


 197              		.section	.text.HAL_DCMI_MspInit,"ax",%progbits
 198              		.align	1
 199              		.weak	HAL_DCMI_MspInit
 200              		.syntax unified
 201              		.thumb
 202              		.thumb_func
 204              	HAL_DCMI_MspInit:
 205              	.LVL15:
 206              	.LFB146:
 308:Drivers/STM32H7xx_HAL_Driver/Src/stm32h7xx_hal_dcmi.c ****   /* Prevent unused argument(s) compilation warning */
 207              		.loc 1 308 1 is_stmt 1 view -0
 208              		.cfi_startproc
 209              		@ args = 0, pretend = 0, frame = 0
 210              		@ frame_needed = 0, uses_anonymous_args = 0
 211              		@ link register save eliminated.
 310:Drivers/STM32H7xx_HAL_Driver/Src/stm32h7xx_hal_dcmi.c **** 
 212              		.loc 1 310 3 view .LVU71
 315:Drivers/STM32H7xx_HAL_Driver/Src/stm32h7xx_hal_dcmi.c **** 
 213              		.loc 1 315 1 is_stmt 0 view .LVU72
 214 0000 7047     		bx	lr
 215              		.cfi_endproc
 216              	.LFE146:
 218              		.section	.text.HAL_DCMI_Init,"ax",%progbits
 219              		.align	1
 220              		.global	HAL_DCMI_Init
 221              		.syntax unified
 222              		.thumb
 223              		.thumb_func
 225              	HAL_DCMI_Init:
 226              	.LVL16:
 227              	.LFB144:
 179:Drivers/STM32H7xx_HAL_Driver/Src/stm32h7xx_hal_dcmi.c ****   /* Check the DCMI peripheral state */
 228              		.loc 1 179 1 is_stmt 1 view -0
 229              		.cfi_startproc
 230              		@ args = 0, pretend = 0, frame = 0
 231              		@ frame_needed = 0, uses_anonymous_args = 0
 181:Drivers/STM32H7xx_HAL_Driver/Src/stm32h7xx_hal_dcmi.c ****   {
 232              		.loc 1 181 3 view .LVU74
 181:Drivers/STM32H7xx_HAL_Driver/Src/stm32h7xx_hal_dcmi.c ****   {
 233              		.loc 1 181 6 is_stmt 0 view .LVU75
 234 0000 0028     		cmp	r0, #0
 235 0002 48D0     		beq	.L17
 179:Drivers/STM32H7xx_HAL_Driver/Src/stm32h7xx_hal_dcmi.c ****   /* Check the DCMI peripheral state */
 236              		.loc 1 179 1 view .LVU76
 237 0004 10B5     		push	{r4, lr}
 238              	.LCFI1:
 239              		.cfi_def_cfa_offset 8
 240              		.cfi_offset 4, -8
 241              		.cfi_offset 14, -4
 242 0006 0446     		mov	r4, r0
 187:Drivers/STM32H7xx_HAL_Driver/Src/stm32h7xx_hal_dcmi.c ****   assert_param(IS_DCMI_PCKPOLARITY(hdcmi->Init.PCKPolarity));
 243              		.loc 1 187 3 is_stmt 1 view .LVU77
 188:Drivers/STM32H7xx_HAL_Driver/Src/stm32h7xx_hal_dcmi.c ****   assert_param(IS_DCMI_VSPOLARITY(hdcmi->Init.VSPolarity));
 244              		.loc 1 188 3 view .LVU78
 189:Drivers/STM32H7xx_HAL_Driver/Src/stm32h7xx_hal_dcmi.c ****   assert_param(IS_DCMI_HSPOLARITY(hdcmi->Init.HSPolarity));
 245              		.loc 1 189 3 view .LVU79
 190:Drivers/STM32H7xx_HAL_Driver/Src/stm32h7xx_hal_dcmi.c ****   assert_param(IS_DCMI_SYNCHRO(hdcmi->Init.SynchroMode));
ARM GAS  C:\Users\theto\AppData\Local\Temp\ccKmbcIV.s 			page 27


 246              		.loc 1 190 3 view .LVU80
 191:Drivers/STM32H7xx_HAL_Driver/Src/stm32h7xx_hal_dcmi.c ****   assert_param(IS_DCMI_CAPTURE_RATE(hdcmi->Init.CaptureRate));
 247              		.loc 1 191 3 view .LVU81
 192:Drivers/STM32H7xx_HAL_Driver/Src/stm32h7xx_hal_dcmi.c ****   assert_param(IS_DCMI_EXTENDED_DATA(hdcmi->Init.ExtendedDataMode));
 248              		.loc 1 192 3 view .LVU82
 193:Drivers/STM32H7xx_HAL_Driver/Src/stm32h7xx_hal_dcmi.c ****   assert_param(IS_DCMI_MODE_JPEG(hdcmi->Init.JPEGMode));
 249              		.loc 1 193 3 view .LVU83
 194:Drivers/STM32H7xx_HAL_Driver/Src/stm32h7xx_hal_dcmi.c **** 
 250              		.loc 1 194 3 view .LVU84
 196:Drivers/STM32H7xx_HAL_Driver/Src/stm32h7xx_hal_dcmi.c ****   assert_param(IS_DCMI_BYTE_SELECT_START(hdcmi->Init.ByteSelectStart));
 251              		.loc 1 196 3 view .LVU85
 197:Drivers/STM32H7xx_HAL_Driver/Src/stm32h7xx_hal_dcmi.c ****   assert_param(IS_DCMI_LINE_SELECT_MODE(hdcmi->Init.LineSelectMode));
 252              		.loc 1 197 3 view .LVU86
 198:Drivers/STM32H7xx_HAL_Driver/Src/stm32h7xx_hal_dcmi.c ****   assert_param(IS_DCMI_LINE_SELECT_START(hdcmi->Init.LineSelectStart));
 253              		.loc 1 198 3 view .LVU87
 199:Drivers/STM32H7xx_HAL_Driver/Src/stm32h7xx_hal_dcmi.c **** 
 254              		.loc 1 199 3 view .LVU88
 201:Drivers/STM32H7xx_HAL_Driver/Src/stm32h7xx_hal_dcmi.c ****   {
 255              		.loc 1 201 3 view .LVU89
 201:Drivers/STM32H7xx_HAL_Driver/Src/stm32h7xx_hal_dcmi.c ****   {
 256              		.loc 1 201 12 is_stmt 0 view .LVU90
 257 0008 90F83530 		ldrb	r3, [r0, #53]	@ zero_extendqisi2
 201:Drivers/STM32H7xx_HAL_Driver/Src/stm32h7xx_hal_dcmi.c ****   {
 258              		.loc 1 201 6 view .LVU91
 259 000c 002B     		cmp	r3, #0
 260 000e 32D0     		beq	.L22
 261              	.LVL17:
 262              	.L14:
 225:Drivers/STM32H7xx_HAL_Driver/Src/stm32h7xx_hal_dcmi.c **** 
 263              		.loc 1 225 3 is_stmt 1 view .LVU92
 225:Drivers/STM32H7xx_HAL_Driver/Src/stm32h7xx_hal_dcmi.c **** 
 264              		.loc 1 225 16 is_stmt 0 view .LVU93
 265 0010 0223     		movs	r3, #2
 266 0012 84F83530 		strb	r3, [r4, #53]
 227:Drivers/STM32H7xx_HAL_Driver/Src/stm32h7xx_hal_dcmi.c ****   {
 267              		.loc 1 227 3 is_stmt 1 view .LVU94
 227:Drivers/STM32H7xx_HAL_Driver/Src/stm32h7xx_hal_dcmi.c ****   {
 268              		.loc 1 227 18 is_stmt 0 view .LVU95
 269 0016 A369     		ldr	r3, [r4, #24]
 227:Drivers/STM32H7xx_HAL_Driver/Src/stm32h7xx_hal_dcmi.c ****   {
 270              		.loc 1 227 6 view .LVU96
 271 0018 0BB1     		cbz	r3, .L15
 231:Drivers/STM32H7xx_HAL_Driver/Src/stm32h7xx_hal_dcmi.c ****   }
 272              		.loc 1 231 5 is_stmt 1 view .LVU97
 231:Drivers/STM32H7xx_HAL_Driver/Src/stm32h7xx_hal_dcmi.c ****   }
 273              		.loc 1 231 32 is_stmt 0 view .LVU98
 274 001a 0023     		movs	r3, #0
 275 001c 6362     		str	r3, [r4, #36]
 276              	.L15:
 234:Drivers/STM32H7xx_HAL_Driver/Src/stm32h7xx_hal_dcmi.c ****                            DCMI_CR_EDM_1  | DCMI_CR_FCRC_0 | DCMI_CR_FCRC_1 | DCMI_CR_JPEG  | \
 277              		.loc 1 234 3 is_stmt 1 view .LVU99
 234:Drivers/STM32H7xx_HAL_Driver/Src/stm32h7xx_hal_dcmi.c ****                            DCMI_CR_EDM_1  | DCMI_CR_FCRC_0 | DCMI_CR_FCRC_1 | DCMI_CR_JPEG  | \
 278              		.loc 1 234 8 is_stmt 0 view .LVU100
 279 001e 2268     		ldr	r2, [r4]
 234:Drivers/STM32H7xx_HAL_Driver/Src/stm32h7xx_hal_dcmi.c ****                            DCMI_CR_EDM_1  | DCMI_CR_FCRC_0 | DCMI_CR_FCRC_1 | DCMI_CR_JPEG  | \
 280              		.loc 1 234 23 view .LVU101
 281 0020 1168     		ldr	r1, [r2]
ARM GAS  C:\Users\theto\AppData\Local\Temp\ccKmbcIV.s 			page 28


 282 0022 1E4B     		ldr	r3, .L24
 283 0024 0B40     		ands	r3, r3, r1
 284 0026 1360     		str	r3, [r2]
 239:Drivers/STM32H7xx_HAL_Driver/Src/stm32h7xx_hal_dcmi.c ****                                     hdcmi->Init.VSPolarity  | hdcmi->Init.HSPolarity  | \
 285              		.loc 1 239 3 is_stmt 1 view .LVU102
 239:Drivers/STM32H7xx_HAL_Driver/Src/stm32h7xx_hal_dcmi.c ****                                     hdcmi->Init.VSPolarity  | hdcmi->Init.HSPolarity  | \
 286              		.loc 1 239 8 is_stmt 0 view .LVU103
 287 0028 2268     		ldr	r2, [r4]
 239:Drivers/STM32H7xx_HAL_Driver/Src/stm32h7xx_hal_dcmi.c ****                                     hdcmi->Init.VSPolarity  | hdcmi->Init.HSPolarity  | \
 288              		.loc 1 239 23 view .LVU104
 289 002a 1168     		ldr	r1, [r2]
 239:Drivers/STM32H7xx_HAL_Driver/Src/stm32h7xx_hal_dcmi.c ****                                     hdcmi->Init.VSPolarity  | hdcmi->Init.HSPolarity  | \
 290              		.loc 1 239 48 view .LVU105
 291 002c 6368     		ldr	r3, [r4, #4]
 239:Drivers/STM32H7xx_HAL_Driver/Src/stm32h7xx_hal_dcmi.c ****                                     hdcmi->Init.VSPolarity  | hdcmi->Init.HSPolarity  | \
 292              		.loc 1 239 74 view .LVU106
 293 002e 6069     		ldr	r0, [r4, #20]
 239:Drivers/STM32H7xx_HAL_Driver/Src/stm32h7xx_hal_dcmi.c ****                                     hdcmi->Init.VSPolarity  | hdcmi->Init.HSPolarity  | \
 294              		.loc 1 239 61 view .LVU107
 295 0030 0343     		orrs	r3, r3, r0
 240:Drivers/STM32H7xx_HAL_Driver/Src/stm32h7xx_hal_dcmi.c ****                                     hdcmi->Init.PCKPolarity | hdcmi->Init.ExtendedDataMode | \
 296              		.loc 1 240 48 view .LVU108
 297 0032 E068     		ldr	r0, [r4, #12]
 239:Drivers/STM32H7xx_HAL_Driver/Src/stm32h7xx_hal_dcmi.c ****                                     hdcmi->Init.VSPolarity  | hdcmi->Init.HSPolarity  | \
 298              		.loc 1 239 87 view .LVU109
 299 0034 0343     		orrs	r3, r3, r0
 240:Drivers/STM32H7xx_HAL_Driver/Src/stm32h7xx_hal_dcmi.c ****                                     hdcmi->Init.PCKPolarity | hdcmi->Init.ExtendedDataMode | \
 300              		.loc 1 240 74 view .LVU110
 301 0036 2069     		ldr	r0, [r4, #16]
 240:Drivers/STM32H7xx_HAL_Driver/Src/stm32h7xx_hal_dcmi.c ****                                     hdcmi->Init.PCKPolarity | hdcmi->Init.ExtendedDataMode | \
 302              		.loc 1 240 61 view .LVU111
 303 0038 0343     		orrs	r3, r3, r0
 241:Drivers/STM32H7xx_HAL_Driver/Src/stm32h7xx_hal_dcmi.c ****                                     hdcmi->Init.JPEGMode | hdcmi->Init.ByteSelectMode | \
 304              		.loc 1 241 48 view .LVU112
 305 003a A068     		ldr	r0, [r4, #8]
 240:Drivers/STM32H7xx_HAL_Driver/Src/stm32h7xx_hal_dcmi.c ****                                     hdcmi->Init.PCKPolarity | hdcmi->Init.ExtendedDataMode | \
 306              		.loc 1 240 87 view .LVU113
 307 003c 0343     		orrs	r3, r3, r0
 241:Drivers/STM32H7xx_HAL_Driver/Src/stm32h7xx_hal_dcmi.c ****                                     hdcmi->Init.JPEGMode | hdcmi->Init.ByteSelectMode | \
 308              		.loc 1 241 74 view .LVU114
 309 003e A069     		ldr	r0, [r4, #24]
 241:Drivers/STM32H7xx_HAL_Driver/Src/stm32h7xx_hal_dcmi.c ****                                     hdcmi->Init.JPEGMode | hdcmi->Init.ByteSelectMode | \
 310              		.loc 1 241 61 view .LVU115
 311 0040 0343     		orrs	r3, r3, r0
 242:Drivers/STM32H7xx_HAL_Driver/Src/stm32h7xx_hal_dcmi.c ****                                     hdcmi->Init.ByteSelectStart | hdcmi->Init.LineSelectMode | \
 312              		.loc 1 242 48 view .LVU116
 313 0042 206A     		ldr	r0, [r4, #32]
 241:Drivers/STM32H7xx_HAL_Driver/Src/stm32h7xx_hal_dcmi.c ****                                     hdcmi->Init.JPEGMode | hdcmi->Init.ByteSelectMode | \
 314              		.loc 1 241 92 view .LVU117
 315 0044 0343     		orrs	r3, r3, r0
 242:Drivers/STM32H7xx_HAL_Driver/Src/stm32h7xx_hal_dcmi.c ****                                     hdcmi->Init.ByteSelectStart | hdcmi->Init.LineSelectMode | \
 316              		.loc 1 242 71 view .LVU118
 317 0046 606A     		ldr	r0, [r4, #36]
 242:Drivers/STM32H7xx_HAL_Driver/Src/stm32h7xx_hal_dcmi.c ****                                     hdcmi->Init.ByteSelectStart | hdcmi->Init.LineSelectMode | \
 318              		.loc 1 242 58 view .LVU119
 319 0048 0343     		orrs	r3, r3, r0
 243:Drivers/STM32H7xx_HAL_Driver/Src/stm32h7xx_hal_dcmi.c ****                                     hdcmi->Init.LineSelectStart);
ARM GAS  C:\Users\theto\AppData\Local\Temp\ccKmbcIV.s 			page 29


 320              		.loc 1 243 48 view .LVU120
 321 004a A06A     		ldr	r0, [r4, #40]
 242:Drivers/STM32H7xx_HAL_Driver/Src/stm32h7xx_hal_dcmi.c ****                                     hdcmi->Init.ByteSelectStart | hdcmi->Init.LineSelectMode | \
 322              		.loc 1 242 87 view .LVU121
 323 004c 0343     		orrs	r3, r3, r0
 243:Drivers/STM32H7xx_HAL_Driver/Src/stm32h7xx_hal_dcmi.c ****                                     hdcmi->Init.LineSelectStart);
 324              		.loc 1 243 78 view .LVU122
 325 004e E06A     		ldr	r0, [r4, #44]
 243:Drivers/STM32H7xx_HAL_Driver/Src/stm32h7xx_hal_dcmi.c ****                                     hdcmi->Init.LineSelectStart);
 326              		.loc 1 243 65 view .LVU123
 327 0050 0343     		orrs	r3, r3, r0
 244:Drivers/STM32H7xx_HAL_Driver/Src/stm32h7xx_hal_dcmi.c **** 
 328              		.loc 1 244 48 view .LVU124
 329 0052 206B     		ldr	r0, [r4, #48]
 243:Drivers/STM32H7xx_HAL_Driver/Src/stm32h7xx_hal_dcmi.c ****                                     hdcmi->Init.LineSelectStart);
 330              		.loc 1 243 94 view .LVU125
 331 0054 0343     		orrs	r3, r3, r0
 239:Drivers/STM32H7xx_HAL_Driver/Src/stm32h7xx_hal_dcmi.c ****                                     hdcmi->Init.VSPolarity  | hdcmi->Init.HSPolarity  | \
 332              		.loc 1 239 23 view .LVU126
 333 0056 0B43     		orrs	r3, r3, r1
 334 0058 1360     		str	r3, [r2]
 246:Drivers/STM32H7xx_HAL_Driver/Src/stm32h7xx_hal_dcmi.c ****   {
 335              		.loc 1 246 3 is_stmt 1 view .LVU127
 246:Drivers/STM32H7xx_HAL_Driver/Src/stm32h7xx_hal_dcmi.c ****   {
 336              		.loc 1 246 18 is_stmt 0 view .LVU128
 337 005a 6368     		ldr	r3, [r4, #4]
 246:Drivers/STM32H7xx_HAL_Driver/Src/stm32h7xx_hal_dcmi.c ****   {
 338              		.loc 1 246 6 view .LVU129
 339 005c 102B     		cmp	r3, #16
 340 005e 0DD0     		beq	.L23
 341              	.L16:
 256:Drivers/STM32H7xx_HAL_Driver/Src/stm32h7xx_hal_dcmi.c **** 
 342              		.loc 1 256 3 is_stmt 1 view .LVU130
 343 0060 2268     		ldr	r2, [r4]
 344 0062 D368     		ldr	r3, [r2, #12]
 345 0064 43F01E03 		orr	r3, r3, #30
 346 0068 D360     		str	r3, [r2, #12]
 259:Drivers/STM32H7xx_HAL_Driver/Src/stm32h7xx_hal_dcmi.c **** 
 347              		.loc 1 259 3 view .LVU131
 259:Drivers/STM32H7xx_HAL_Driver/Src/stm32h7xx_hal_dcmi.c **** 
 348              		.loc 1 259 20 is_stmt 0 view .LVU132
 349 006a 0020     		movs	r0, #0
 350 006c E064     		str	r0, [r4, #76]
 262:Drivers/STM32H7xx_HAL_Driver/Src/stm32h7xx_hal_dcmi.c **** 
 351              		.loc 1 262 3 is_stmt 1 view .LVU133
 262:Drivers/STM32H7xx_HAL_Driver/Src/stm32h7xx_hal_dcmi.c **** 
 352              		.loc 1 262 17 is_stmt 0 view .LVU134
 353 006e 0123     		movs	r3, #1
 354 0070 84F83530 		strb	r3, [r4, #53]
 264:Drivers/STM32H7xx_HAL_Driver/Src/stm32h7xx_hal_dcmi.c **** }
 355              		.loc 1 264 3 is_stmt 1 view .LVU135
 265:Drivers/STM32H7xx_HAL_Driver/Src/stm32h7xx_hal_dcmi.c **** 
 356              		.loc 1 265 1 is_stmt 0 view .LVU136
 357 0074 10BD     		pop	{r4, pc}
 358              	.LVL18:
 359              	.L22:
 220:Drivers/STM32H7xx_HAL_Driver/Src/stm32h7xx_hal_dcmi.c **** #endif /* (USE_HAL_DCMI_REGISTER_CALLBACKS) */
ARM GAS  C:\Users\theto\AppData\Local\Temp\ccKmbcIV.s 			page 30


 360              		.loc 1 220 5 is_stmt 1 view .LVU137
 361 0076 FFF7FEFF 		bl	HAL_DCMI_MspInit
 362              	.LVL19:
 220:Drivers/STM32H7xx_HAL_Driver/Src/stm32h7xx_hal_dcmi.c **** #endif /* (USE_HAL_DCMI_REGISTER_CALLBACKS) */
 363              		.loc 1 220 5 is_stmt 0 view .LVU138
 364 007a C9E7     		b	.L14
 365              	.L23:
 248:Drivers/STM32H7xx_HAL_Driver/Src/stm32h7xx_hal_dcmi.c ****                              ((uint32_t)hdcmi->Init.SyncroCode.LineStartCode << DCMI_ESCR_LSC_Pos) 
 366              		.loc 1 248 5 is_stmt 1 view .LVU139
 248:Drivers/STM32H7xx_HAL_Driver/Src/stm32h7xx_hal_dcmi.c ****                              ((uint32_t)hdcmi->Init.SyncroCode.LineStartCode << DCMI_ESCR_LSC_Pos) 
 367              		.loc 1 248 63 is_stmt 0 view .LVU140
 368 007c 237F     		ldrb	r3, [r4, #28]	@ zero_extendqisi2
 249:Drivers/STM32H7xx_HAL_Driver/Src/stm32h7xx_hal_dcmi.c ****                              ((uint32_t)hdcmi->Init.SyncroCode.LineEndCode << DCMI_ESCR_LEC_Pos) | 
 369              		.loc 1 249 63 view .LVU141
 370 007e 627F     		ldrb	r2, [r4, #29]	@ zero_extendqisi2
 248:Drivers/STM32H7xx_HAL_Driver/Src/stm32h7xx_hal_dcmi.c ****                              ((uint32_t)hdcmi->Init.SyncroCode.LineStartCode << DCMI_ESCR_LSC_Pos) 
 371              		.loc 1 248 83 view .LVU142
 372 0080 43EA0223 		orr	r3, r3, r2, lsl #8
 250:Drivers/STM32H7xx_HAL_Driver/Src/stm32h7xx_hal_dcmi.c ****                              ((uint32_t)hdcmi->Init.SyncroCode.FrameEndCode << DCMI_ESCR_FEC_Pos));
 373              		.loc 1 250 63 view .LVU143
 374 0084 A27F     		ldrb	r2, [r4, #30]	@ zero_extendqisi2
 249:Drivers/STM32H7xx_HAL_Driver/Src/stm32h7xx_hal_dcmi.c ****                              ((uint32_t)hdcmi->Init.SyncroCode.LineEndCode << DCMI_ESCR_LEC_Pos) | 
 375              		.loc 1 249 100 view .LVU144
 376 0086 43EA0243 		orr	r3, r3, r2, lsl #16
 251:Drivers/STM32H7xx_HAL_Driver/Src/stm32h7xx_hal_dcmi.c **** 
 377              		.loc 1 251 63 view .LVU145
 378 008a E17F     		ldrb	r1, [r4, #31]	@ zero_extendqisi2
 248:Drivers/STM32H7xx_HAL_Driver/Src/stm32h7xx_hal_dcmi.c ****                              ((uint32_t)hdcmi->Init.SyncroCode.LineStartCode << DCMI_ESCR_LSC_Pos) 
 379              		.loc 1 248 10 view .LVU146
 380 008c 2268     		ldr	r2, [r4]
 250:Drivers/STM32H7xx_HAL_Driver/Src/stm32h7xx_hal_dcmi.c ****                              ((uint32_t)hdcmi->Init.SyncroCode.FrameEndCode << DCMI_ESCR_FEC_Pos));
 381              		.loc 1 250 98 view .LVU147
 382 008e 43EA0163 		orr	r3, r3, r1, lsl #24
 248:Drivers/STM32H7xx_HAL_Driver/Src/stm32h7xx_hal_dcmi.c ****                              ((uint32_t)hdcmi->Init.SyncroCode.LineStartCode << DCMI_ESCR_LSC_Pos) 
 383              		.loc 1 248 27 view .LVU148
 384 0092 9361     		str	r3, [r2, #24]
 385 0094 E4E7     		b	.L16
 386              	.LVL20:
 387              	.L17:
 388              	.LCFI2:
 389              		.cfi_def_cfa_offset 0
 390              		.cfi_restore 4
 391              		.cfi_restore 14
 183:Drivers/STM32H7xx_HAL_Driver/Src/stm32h7xx_hal_dcmi.c ****   }
 392              		.loc 1 183 12 view .LVU149
 393 0096 0120     		movs	r0, #1
 394              	.LVL21:
 265:Drivers/STM32H7xx_HAL_Driver/Src/stm32h7xx_hal_dcmi.c **** 
 395              		.loc 1 265 1 view .LVU150
 396 0098 7047     		bx	lr
 397              	.L25:
 398 009a 00BF     		.align	2
 399              	.L24:
 400 009c 07F0E0FF 		.word	-2035705
 401              		.cfi_endproc
 402              	.LFE144:
 404              		.section	.text.HAL_DCMI_MspDeInit,"ax",%progbits
ARM GAS  C:\Users\theto\AppData\Local\Temp\ccKmbcIV.s 			page 31


 405              		.align	1
 406              		.weak	HAL_DCMI_MspDeInit
 407              		.syntax unified
 408              		.thumb
 409              		.thumb_func
 411              	HAL_DCMI_MspDeInit:
 412              	.LVL22:
 413              	.LFB147:
 324:Drivers/STM32H7xx_HAL_Driver/Src/stm32h7xx_hal_dcmi.c ****   /* Prevent unused argument(s) compilation warning */
 414              		.loc 1 324 1 is_stmt 1 view -0
 415              		.cfi_startproc
 416              		@ args = 0, pretend = 0, frame = 0
 417              		@ frame_needed = 0, uses_anonymous_args = 0
 418              		@ link register save eliminated.
 326:Drivers/STM32H7xx_HAL_Driver/Src/stm32h7xx_hal_dcmi.c **** 
 419              		.loc 1 326 3 view .LVU152
 331:Drivers/STM32H7xx_HAL_Driver/Src/stm32h7xx_hal_dcmi.c **** 
 420              		.loc 1 331 1 is_stmt 0 view .LVU153
 421 0000 7047     		bx	lr
 422              		.cfi_endproc
 423              	.LFE147:
 425              		.section	.text.HAL_DCMI_DeInit,"ax",%progbits
 426              		.align	1
 427              		.global	HAL_DCMI_DeInit
 428              		.syntax unified
 429              		.thumb
 430              		.thumb_func
 432              	HAL_DCMI_DeInit:
 433              	.LVL23:
 434              	.LFB145:
 276:Drivers/STM32H7xx_HAL_Driver/Src/stm32h7xx_hal_dcmi.c **** #if (USE_HAL_DCMI_REGISTER_CALLBACKS == 1)
 435              		.loc 1 276 1 is_stmt 1 view -0
 436              		.cfi_startproc
 437              		@ args = 0, pretend = 0, frame = 0
 438              		@ frame_needed = 0, uses_anonymous_args = 0
 276:Drivers/STM32H7xx_HAL_Driver/Src/stm32h7xx_hal_dcmi.c **** #if (USE_HAL_DCMI_REGISTER_CALLBACKS == 1)
 439              		.loc 1 276 1 is_stmt 0 view .LVU155
 440 0000 10B5     		push	{r4, lr}
 441              	.LCFI3:
 442              		.cfi_def_cfa_offset 8
 443              		.cfi_offset 4, -8
 444              		.cfi_offset 14, -4
 445 0002 0446     		mov	r4, r0
 286:Drivers/STM32H7xx_HAL_Driver/Src/stm32h7xx_hal_dcmi.c **** #endif /* (USE_HAL_DCMI_REGISTER_CALLBACKS) */
 446              		.loc 1 286 3 is_stmt 1 view .LVU156
 447 0004 FFF7FEFF 		bl	HAL_DCMI_MspDeInit
 448              	.LVL24:
 290:Drivers/STM32H7xx_HAL_Driver/Src/stm32h7xx_hal_dcmi.c **** 
 449              		.loc 1 290 3 view .LVU157
 290:Drivers/STM32H7xx_HAL_Driver/Src/stm32h7xx_hal_dcmi.c **** 
 450              		.loc 1 290 20 is_stmt 0 view .LVU158
 451 0008 0020     		movs	r0, #0
 452 000a E064     		str	r0, [r4, #76]
 293:Drivers/STM32H7xx_HAL_Driver/Src/stm32h7xx_hal_dcmi.c **** 
 453              		.loc 1 293 3 is_stmt 1 view .LVU159
 293:Drivers/STM32H7xx_HAL_Driver/Src/stm32h7xx_hal_dcmi.c **** 
 454              		.loc 1 293 16 is_stmt 0 view .LVU160
ARM GAS  C:\Users\theto\AppData\Local\Temp\ccKmbcIV.s 			page 32


 455 000c 84F83500 		strb	r0, [r4, #53]
 296:Drivers/STM32H7xx_HAL_Driver/Src/stm32h7xx_hal_dcmi.c **** 
 456              		.loc 1 296 3 is_stmt 1 view .LVU161
 296:Drivers/STM32H7xx_HAL_Driver/Src/stm32h7xx_hal_dcmi.c **** 
 457              		.loc 1 296 3 view .LVU162
 458 0010 84F83400 		strb	r0, [r4, #52]
 296:Drivers/STM32H7xx_HAL_Driver/Src/stm32h7xx_hal_dcmi.c **** 
 459              		.loc 1 296 3 view .LVU163
 298:Drivers/STM32H7xx_HAL_Driver/Src/stm32h7xx_hal_dcmi.c **** }
 460              		.loc 1 298 3 view .LVU164
 299:Drivers/STM32H7xx_HAL_Driver/Src/stm32h7xx_hal_dcmi.c **** 
 461              		.loc 1 299 1 is_stmt 0 view .LVU165
 462 0014 10BD     		pop	{r4, pc}
 299:Drivers/STM32H7xx_HAL_Driver/Src/stm32h7xx_hal_dcmi.c **** 
 463              		.loc 1 299 1 view .LVU166
 464              		.cfi_endproc
 465              	.LFE145:
 467              		.section	.text.HAL_DCMI_Start_DMA,"ax",%progbits
 468              		.align	1
 469              		.global	HAL_DCMI_Start_DMA
 470              		.syntax unified
 471              		.thumb
 472              		.thumb_func
 474              	HAL_DCMI_Start_DMA:
 475              	.LVL25:
 476              	.LFB148:
 363:Drivers/STM32H7xx_HAL_Driver/Src/stm32h7xx_hal_dcmi.c ****   /* Initialize the second memory address */
 477              		.loc 1 363 1 is_stmt 1 view -0
 478              		.cfi_startproc
 479              		@ args = 0, pretend = 0, frame = 0
 480              		@ frame_needed = 0, uses_anonymous_args = 0
 363:Drivers/STM32H7xx_HAL_Driver/Src/stm32h7xx_hal_dcmi.c ****   /* Initialize the second memory address */
 481              		.loc 1 363 1 is_stmt 0 view .LVU168
 482 0000 30B5     		push	{r4, r5, lr}
 483              	.LCFI4:
 484              		.cfi_def_cfa_offset 12
 485              		.cfi_offset 4, -12
 486              		.cfi_offset 5, -8
 487              		.cfi_offset 14, -4
 488 0002 83B0     		sub	sp, sp, #12
 489              	.LCFI5:
 490              		.cfi_def_cfa_offset 24
 491 0004 0446     		mov	r4, r0
 365:Drivers/STM32H7xx_HAL_Driver/Src/stm32h7xx_hal_dcmi.c **** 
 492              		.loc 1 365 3 is_stmt 1 view .LVU169
 368:Drivers/STM32H7xx_HAL_Driver/Src/stm32h7xx_hal_dcmi.c **** 
 493              		.loc 1 368 3 view .LVU170
 371:Drivers/STM32H7xx_HAL_Driver/Src/stm32h7xx_hal_dcmi.c **** 
 494              		.loc 1 371 3 view .LVU171
 371:Drivers/STM32H7xx_HAL_Driver/Src/stm32h7xx_hal_dcmi.c **** 
 495              		.loc 1 371 3 view .LVU172
 496 0006 90F83400 		ldrb	r0, [r0, #52]	@ zero_extendqisi2
 497              	.LVL26:
 371:Drivers/STM32H7xx_HAL_Driver/Src/stm32h7xx_hal_dcmi.c **** 
 498              		.loc 1 371 3 is_stmt 0 view .LVU173
 499 000a 0128     		cmp	r0, #1
 500 000c 67D0     		beq	.L35
ARM GAS  C:\Users\theto\AppData\Local\Temp\ccKmbcIV.s 			page 33


 371:Drivers/STM32H7xx_HAL_Driver/Src/stm32h7xx_hal_dcmi.c **** 
 501              		.loc 1 371 3 is_stmt 1 discriminator 2 view .LVU174
 502 000e 0120     		movs	r0, #1
 503 0010 84F83400 		strb	r0, [r4, #52]
 371:Drivers/STM32H7xx_HAL_Driver/Src/stm32h7xx_hal_dcmi.c **** 
 504              		.loc 1 371 3 discriminator 2 view .LVU175
 374:Drivers/STM32H7xx_HAL_Driver/Src/stm32h7xx_hal_dcmi.c **** 
 505              		.loc 1 374 3 discriminator 2 view .LVU176
 374:Drivers/STM32H7xx_HAL_Driver/Src/stm32h7xx_hal_dcmi.c **** 
 506              		.loc 1 374 16 is_stmt 0 discriminator 2 view .LVU177
 507 0014 0220     		movs	r0, #2
 508 0016 84F83500 		strb	r0, [r4, #53]
 377:Drivers/STM32H7xx_HAL_Driver/Src/stm32h7xx_hal_dcmi.c **** 
 509              		.loc 1 377 3 is_stmt 1 discriminator 2 view .LVU178
 510 001a 2568     		ldr	r5, [r4]
 511 001c 2868     		ldr	r0, [r5]
 512 001e 40F48040 		orr	r0, r0, #16384
 513 0022 2860     		str	r0, [r5]
 380:Drivers/STM32H7xx_HAL_Driver/Src/stm32h7xx_hal_dcmi.c ****   hdcmi->Instance->CR |= (uint32_t)(DCMI_Mode);
 514              		.loc 1 380 3 discriminator 2 view .LVU179
 380:Drivers/STM32H7xx_HAL_Driver/Src/stm32h7xx_hal_dcmi.c ****   hdcmi->Instance->CR |= (uint32_t)(DCMI_Mode);
 515              		.loc 1 380 8 is_stmt 0 discriminator 2 view .LVU180
 516 0024 2568     		ldr	r5, [r4]
 380:Drivers/STM32H7xx_HAL_Driver/Src/stm32h7xx_hal_dcmi.c ****   hdcmi->Instance->CR |= (uint32_t)(DCMI_Mode);
 517              		.loc 1 380 23 discriminator 2 view .LVU181
 518 0026 2868     		ldr	r0, [r5]
 519 0028 20F00200 		bic	r0, r0, #2
 520 002c 2860     		str	r0, [r5]
 381:Drivers/STM32H7xx_HAL_Driver/Src/stm32h7xx_hal_dcmi.c **** 
 521              		.loc 1 381 3 is_stmt 1 discriminator 2 view .LVU182
 381:Drivers/STM32H7xx_HAL_Driver/Src/stm32h7xx_hal_dcmi.c **** 
 522              		.loc 1 381 8 is_stmt 0 discriminator 2 view .LVU183
 523 002e 2568     		ldr	r5, [r4]
 381:Drivers/STM32H7xx_HAL_Driver/Src/stm32h7xx_hal_dcmi.c **** 
 524              		.loc 1 381 23 discriminator 2 view .LVU184
 525 0030 2868     		ldr	r0, [r5]
 526 0032 0143     		orrs	r1, r1, r0
 527              	.LVL27:
 381:Drivers/STM32H7xx_HAL_Driver/Src/stm32h7xx_hal_dcmi.c **** 
 528              		.loc 1 381 23 discriminator 2 view .LVU185
 529 0034 2960     		str	r1, [r5]
 384:Drivers/STM32H7xx_HAL_Driver/Src/stm32h7xx_hal_dcmi.c **** 
 530              		.loc 1 384 3 is_stmt 1 discriminator 2 view .LVU186
 384:Drivers/STM32H7xx_HAL_Driver/Src/stm32h7xx_hal_dcmi.c **** 
 531              		.loc 1 384 8 is_stmt 0 discriminator 2 view .LVU187
 532 0036 A16C     		ldr	r1, [r4, #72]
 384:Drivers/STM32H7xx_HAL_Driver/Src/stm32h7xx_hal_dcmi.c **** 
 533              		.loc 1 384 39 discriminator 2 view .LVU188
 534 0038 2A48     		ldr	r0, .L39
 535 003a C863     		str	r0, [r1, #60]
 387:Drivers/STM32H7xx_HAL_Driver/Src/stm32h7xx_hal_dcmi.c **** 
 536              		.loc 1 387 3 is_stmt 1 discriminator 2 view .LVU189
 387:Drivers/STM32H7xx_HAL_Driver/Src/stm32h7xx_hal_dcmi.c **** 
 537              		.loc 1 387 8 is_stmt 0 discriminator 2 view .LVU190
 538 003c A16C     		ldr	r1, [r4, #72]
 387:Drivers/STM32H7xx_HAL_Driver/Src/stm32h7xx_hal_dcmi.c **** 
 539              		.loc 1 387 40 discriminator 2 view .LVU191
ARM GAS  C:\Users\theto\AppData\Local\Temp\ccKmbcIV.s 			page 34


 540 003e 2A48     		ldr	r0, .L39+4
 541 0040 C864     		str	r0, [r1, #76]
 390:Drivers/STM32H7xx_HAL_Driver/Src/stm32h7xx_hal_dcmi.c **** 
 542              		.loc 1 390 3 is_stmt 1 discriminator 2 view .LVU192
 390:Drivers/STM32H7xx_HAL_Driver/Src/stm32h7xx_hal_dcmi.c **** 
 543              		.loc 1 390 8 is_stmt 0 discriminator 2 view .LVU193
 544 0042 A06C     		ldr	r0, [r4, #72]
 390:Drivers/STM32H7xx_HAL_Driver/Src/stm32h7xx_hal_dcmi.c **** 
 545              		.loc 1 390 40 discriminator 2 view .LVU194
 546 0044 0021     		movs	r1, #0
 547 0046 0165     		str	r1, [r0, #80]
 393:Drivers/STM32H7xx_HAL_Driver/Src/stm32h7xx_hal_dcmi.c ****   hdcmi->XferTransferNumber = 0;
 548              		.loc 1 393 3 is_stmt 1 discriminator 2 view .LVU195
 393:Drivers/STM32H7xx_HAL_Driver/Src/stm32h7xx_hal_dcmi.c ****   hdcmi->XferTransferNumber = 0;
 549              		.loc 1 393 20 is_stmt 0 discriminator 2 view .LVU196
 550 0048 A163     		str	r1, [r4, #56]
 394:Drivers/STM32H7xx_HAL_Driver/Src/stm32h7xx_hal_dcmi.c ****   hdcmi->XferSize = 0;
 551              		.loc 1 394 3 is_stmt 1 discriminator 2 view .LVU197
 394:Drivers/STM32H7xx_HAL_Driver/Src/stm32h7xx_hal_dcmi.c ****   hdcmi->XferSize = 0;
 552              		.loc 1 394 29 is_stmt 0 discriminator 2 view .LVU198
 553 004a 2164     		str	r1, [r4, #64]
 395:Drivers/STM32H7xx_HAL_Driver/Src/stm32h7xx_hal_dcmi.c ****   hdcmi->pBuffPtr = 0;
 554              		.loc 1 395 3 is_stmt 1 discriminator 2 view .LVU199
 395:Drivers/STM32H7xx_HAL_Driver/Src/stm32h7xx_hal_dcmi.c ****   hdcmi->pBuffPtr = 0;
 555              		.loc 1 395 19 is_stmt 0 discriminator 2 view .LVU200
 556 004c E163     		str	r1, [r4, #60]
 396:Drivers/STM32H7xx_HAL_Driver/Src/stm32h7xx_hal_dcmi.c **** 
 557              		.loc 1 396 3 is_stmt 1 discriminator 2 view .LVU201
 396:Drivers/STM32H7xx_HAL_Driver/Src/stm32h7xx_hal_dcmi.c **** 
 558              		.loc 1 396 19 is_stmt 0 discriminator 2 view .LVU202
 559 004e 6164     		str	r1, [r4, #68]
 398:Drivers/STM32H7xx_HAL_Driver/Src/stm32h7xx_hal_dcmi.c ****   {
 560              		.loc 1 398 3 is_stmt 1 discriminator 2 view .LVU203
 398:Drivers/STM32H7xx_HAL_Driver/Src/stm32h7xx_hal_dcmi.c ****   {
 561              		.loc 1 398 6 is_stmt 0 discriminator 2 view .LVU204
 562 0050 B3F5803F 		cmp	r3, #65536
 563 0054 07D3     		bcc	.L37
 416:Drivers/STM32H7xx_HAL_Driver/Src/stm32h7xx_hal_dcmi.c **** 
 564              		.loc 1 416 5 is_stmt 1 view .LVU205
 416:Drivers/STM32H7xx_HAL_Driver/Src/stm32h7xx_hal_dcmi.c **** 
 565              		.loc 1 416 10 is_stmt 0 view .LVU206
 566 0056 A16C     		ldr	r1, [r4, #72]
 416:Drivers/STM32H7xx_HAL_Driver/Src/stm32h7xx_hal_dcmi.c **** 
 567              		.loc 1 416 43 view .LVU207
 568 0058 2248     		ldr	r0, .L39
 569 005a 4864     		str	r0, [r1, #68]
 419:Drivers/STM32H7xx_HAL_Driver/Src/stm32h7xx_hal_dcmi.c ****     hdcmi->XferSize = Length;
 570              		.loc 1 419 5 is_stmt 1 view .LVU208
 419:Drivers/STM32H7xx_HAL_Driver/Src/stm32h7xx_hal_dcmi.c ****     hdcmi->XferSize = Length;
 571              		.loc 1 419 22 is_stmt 0 view .LVU209
 572 005c 0121     		movs	r1, #1
 573 005e A163     		str	r1, [r4, #56]
 420:Drivers/STM32H7xx_HAL_Driver/Src/stm32h7xx_hal_dcmi.c ****     hdcmi->pBuffPtr = pData;
 574              		.loc 1 420 5 is_stmt 1 view .LVU210
 420:Drivers/STM32H7xx_HAL_Driver/Src/stm32h7xx_hal_dcmi.c ****     hdcmi->pBuffPtr = pData;
 575              		.loc 1 420 21 is_stmt 0 view .LVU211
 576 0060 E363     		str	r3, [r4, #60]
ARM GAS  C:\Users\theto\AppData\Local\Temp\ccKmbcIV.s 			page 35


 421:Drivers/STM32H7xx_HAL_Driver/Src/stm32h7xx_hal_dcmi.c **** 
 577              		.loc 1 421 5 is_stmt 1 view .LVU212
 421:Drivers/STM32H7xx_HAL_Driver/Src/stm32h7xx_hal_dcmi.c **** 
 578              		.loc 1 421 21 is_stmt 0 view .LVU213
 579 0062 6264     		str	r2, [r4, #68]
 424:Drivers/STM32H7xx_HAL_Driver/Src/stm32h7xx_hal_dcmi.c ****     {
 580              		.loc 1 424 5 is_stmt 1 view .LVU214
 424:Drivers/STM32H7xx_HAL_Driver/Src/stm32h7xx_hal_dcmi.c ****     {
 581              		.loc 1 424 11 is_stmt 0 view .LVU215
 582 0064 14E0     		b	.L33
 583              	.L37:
 401:Drivers/STM32H7xx_HAL_Driver/Src/stm32h7xx_hal_dcmi.c ****     {
 584              		.loc 1 401 5 is_stmt 1 view .LVU216
 401:Drivers/STM32H7xx_HAL_Driver/Src/stm32h7xx_hal_dcmi.c ****     {
 585              		.loc 1 401 61 is_stmt 0 view .LVU217
 586 0066 2168     		ldr	r1, [r4]
 401:Drivers/STM32H7xx_HAL_Driver/Src/stm32h7xx_hal_dcmi.c ****     {
 587              		.loc 1 401 9 view .LVU218
 588 0068 2831     		adds	r1, r1, #40
 589 006a A06C     		ldr	r0, [r4, #72]
 590 006c FFF7FEFF 		bl	HAL_DMA_Start_IT
 591              	.LVL28:
 401:Drivers/STM32H7xx_HAL_Driver/Src/stm32h7xx_hal_dcmi.c ****     {
 592              		.loc 1 401 8 view .LVU219
 593 0070 10B3     		cbz	r0, .L32
 404:Drivers/STM32H7xx_HAL_Driver/Src/stm32h7xx_hal_dcmi.c ****       /* Change DCMI state */
 594              		.loc 1 404 7 is_stmt 1 view .LVU220
 404:Drivers/STM32H7xx_HAL_Driver/Src/stm32h7xx_hal_dcmi.c ****       /* Change DCMI state */
 595              		.loc 1 404 24 is_stmt 0 view .LVU221
 596 0072 4023     		movs	r3, #64
 597 0074 E364     		str	r3, [r4, #76]
 406:Drivers/STM32H7xx_HAL_Driver/Src/stm32h7xx_hal_dcmi.c ****       /* Release Lock */
 598              		.loc 1 406 7 is_stmt 1 view .LVU222
 406:Drivers/STM32H7xx_HAL_Driver/Src/stm32h7xx_hal_dcmi.c ****       /* Release Lock */
 599              		.loc 1 406 20 is_stmt 0 view .LVU223
 600 0076 0120     		movs	r0, #1
 601 0078 84F83500 		strb	r0, [r4, #53]
 408:Drivers/STM32H7xx_HAL_Driver/Src/stm32h7xx_hal_dcmi.c ****       /* Return function status */
 602              		.loc 1 408 7 is_stmt 1 view .LVU224
 408:Drivers/STM32H7xx_HAL_Driver/Src/stm32h7xx_hal_dcmi.c ****       /* Return function status */
 603              		.loc 1 408 7 view .LVU225
 604 007c 0023     		movs	r3, #0
 605 007e 84F83430 		strb	r3, [r4, #52]
 408:Drivers/STM32H7xx_HAL_Driver/Src/stm32h7xx_hal_dcmi.c ****       /* Return function status */
 606              		.loc 1 408 7 view .LVU226
 410:Drivers/STM32H7xx_HAL_Driver/Src/stm32h7xx_hal_dcmi.c ****     }
 607              		.loc 1 410 7 view .LVU227
 410:Drivers/STM32H7xx_HAL_Driver/Src/stm32h7xx_hal_dcmi.c ****     }
 608              		.loc 1 410 14 is_stmt 0 view .LVU228
 609 0082 21E0     		b	.L30
 610              	.LVL29:
 611              	.L34:
 426:Drivers/STM32H7xx_HAL_Driver/Src/stm32h7xx_hal_dcmi.c ****       hdcmi->XferCount = hdcmi->XferCount * 2U;
 612              		.loc 1 426 7 is_stmt 1 view .LVU229
 426:Drivers/STM32H7xx_HAL_Driver/Src/stm32h7xx_hal_dcmi.c ****       hdcmi->XferCount = hdcmi->XferCount * 2U;
 613              		.loc 1 426 31 is_stmt 0 view .LVU230
 614 0084 E36B     		ldr	r3, [r4, #60]
ARM GAS  C:\Users\theto\AppData\Local\Temp\ccKmbcIV.s 			page 36


 426:Drivers/STM32H7xx_HAL_Driver/Src/stm32h7xx_hal_dcmi.c ****       hdcmi->XferCount = hdcmi->XferCount * 2U;
 615              		.loc 1 426 42 view .LVU231
 616 0086 5B08     		lsrs	r3, r3, #1
 426:Drivers/STM32H7xx_HAL_Driver/Src/stm32h7xx_hal_dcmi.c ****       hdcmi->XferCount = hdcmi->XferCount * 2U;
 617              		.loc 1 426 23 view .LVU232
 618 0088 E363     		str	r3, [r4, #60]
 427:Drivers/STM32H7xx_HAL_Driver/Src/stm32h7xx_hal_dcmi.c ****     }
 619              		.loc 1 427 7 is_stmt 1 view .LVU233
 427:Drivers/STM32H7xx_HAL_Driver/Src/stm32h7xx_hal_dcmi.c ****     }
 620              		.loc 1 427 31 is_stmt 0 view .LVU234
 621 008a A36B     		ldr	r3, [r4, #56]
 427:Drivers/STM32H7xx_HAL_Driver/Src/stm32h7xx_hal_dcmi.c ****     }
 622              		.loc 1 427 43 view .LVU235
 623 008c 5B00     		lsls	r3, r3, #1
 427:Drivers/STM32H7xx_HAL_Driver/Src/stm32h7xx_hal_dcmi.c ****     }
 624              		.loc 1 427 24 view .LVU236
 625 008e A363     		str	r3, [r4, #56]
 626              	.L33:
 424:Drivers/STM32H7xx_HAL_Driver/Src/stm32h7xx_hal_dcmi.c ****     {
 627              		.loc 1 424 11 is_stmt 1 view .LVU237
 424:Drivers/STM32H7xx_HAL_Driver/Src/stm32h7xx_hal_dcmi.c ****     {
 628              		.loc 1 424 17 is_stmt 0 view .LVU238
 629 0090 E36B     		ldr	r3, [r4, #60]
 424:Drivers/STM32H7xx_HAL_Driver/Src/stm32h7xx_hal_dcmi.c ****     {
 630              		.loc 1 424 11 view .LVU239
 631 0092 B3F5803F 		cmp	r3, #65536
 632 0096 F5D2     		bcs	.L34
 431:Drivers/STM32H7xx_HAL_Driver/Src/stm32h7xx_hal_dcmi.c ****     hdcmi->XferTransferNumber = hdcmi->XferCount;
 633              		.loc 1 431 5 is_stmt 1 view .LVU240
 431:Drivers/STM32H7xx_HAL_Driver/Src/stm32h7xx_hal_dcmi.c ****     hdcmi->XferTransferNumber = hdcmi->XferCount;
 634              		.loc 1 431 30 is_stmt 0 view .LVU241
 635 0098 A36B     		ldr	r3, [r4, #56]
 431:Drivers/STM32H7xx_HAL_Driver/Src/stm32h7xx_hal_dcmi.c ****     hdcmi->XferTransferNumber = hdcmi->XferCount;
 636              		.loc 1 431 42 view .LVU242
 637 009a 023B     		subs	r3, r3, #2
 431:Drivers/STM32H7xx_HAL_Driver/Src/stm32h7xx_hal_dcmi.c ****     hdcmi->XferTransferNumber = hdcmi->XferCount;
 638              		.loc 1 431 22 view .LVU243
 639 009c A363     		str	r3, [r4, #56]
 432:Drivers/STM32H7xx_HAL_Driver/Src/stm32h7xx_hal_dcmi.c **** 
 640              		.loc 1 432 5 is_stmt 1 view .LVU244
 432:Drivers/STM32H7xx_HAL_Driver/Src/stm32h7xx_hal_dcmi.c **** 
 641              		.loc 1 432 38 is_stmt 0 view .LVU245
 642 009e A36B     		ldr	r3, [r4, #56]
 432:Drivers/STM32H7xx_HAL_Driver/Src/stm32h7xx_hal_dcmi.c **** 
 643              		.loc 1 432 31 view .LVU246
 644 00a0 2364     		str	r3, [r4, #64]
 435:Drivers/STM32H7xx_HAL_Driver/Src/stm32h7xx_hal_dcmi.c **** 
 645              		.loc 1 435 5 is_stmt 1 view .LVU247
 435:Drivers/STM32H7xx_HAL_Driver/Src/stm32h7xx_hal_dcmi.c **** 
 646              		.loc 1 435 54 is_stmt 0 view .LVU248
 647 00a2 E36B     		ldr	r3, [r4, #60]
 648              	.LVL30:
 438:Drivers/STM32H7xx_HAL_Driver/Src/stm32h7xx_hal_dcmi.c ****     {
 649              		.loc 1 438 5 is_stmt 1 view .LVU249
 438:Drivers/STM32H7xx_HAL_Driver/Src/stm32h7xx_hal_dcmi.c ****     {
 650              		.loc 1 438 74 is_stmt 0 view .LVU250
 651 00a4 2168     		ldr	r1, [r4]
ARM GAS  C:\Users\theto\AppData\Local\Temp\ccKmbcIV.s 			page 37


 438:Drivers/STM32H7xx_HAL_Driver/Src/stm32h7xx_hal_dcmi.c ****     {
 652              		.loc 1 438 9 view .LVU251
 653 00a6 E06B     		ldr	r0, [r4, #60]
 654 00a8 0090     		str	r0, [sp]
 655 00aa 02EB8303 		add	r3, r2, r3, lsl #2
 656              	.LVL31:
 438:Drivers/STM32H7xx_HAL_Driver/Src/stm32h7xx_hal_dcmi.c ****     {
 657              		.loc 1 438 9 view .LVU252
 658 00ae 2831     		adds	r1, r1, #40
 659 00b0 A06C     		ldr	r0, [r4, #72]
 660 00b2 FFF7FEFF 		bl	HAL_DMAEx_MultiBufferStart_IT
 661              	.LVL32:
 438:Drivers/STM32H7xx_HAL_Driver/Src/stm32h7xx_hal_dcmi.c ****     {
 662              		.loc 1 438 8 view .LVU253
 663 00b6 48B9     		cbnz	r0, .L38
 664              	.L32:
 452:Drivers/STM32H7xx_HAL_Driver/Src/stm32h7xx_hal_dcmi.c **** 
 665              		.loc 1 452 3 is_stmt 1 view .LVU254
 452:Drivers/STM32H7xx_HAL_Driver/Src/stm32h7xx_hal_dcmi.c **** 
 666              		.loc 1 452 8 is_stmt 0 view .LVU255
 667 00b8 2268     		ldr	r2, [r4]
 452:Drivers/STM32H7xx_HAL_Driver/Src/stm32h7xx_hal_dcmi.c **** 
 668              		.loc 1 452 23 view .LVU256
 669 00ba 1368     		ldr	r3, [r2]
 670 00bc 43F00103 		orr	r3, r3, #1
 671 00c0 1360     		str	r3, [r2]
 455:Drivers/STM32H7xx_HAL_Driver/Src/stm32h7xx_hal_dcmi.c **** 
 672              		.loc 1 455 3 is_stmt 1 view .LVU257
 455:Drivers/STM32H7xx_HAL_Driver/Src/stm32h7xx_hal_dcmi.c **** 
 673              		.loc 1 455 3 view .LVU258
 674 00c2 0020     		movs	r0, #0
 675 00c4 84F83400 		strb	r0, [r4, #52]
 455:Drivers/STM32H7xx_HAL_Driver/Src/stm32h7xx_hal_dcmi.c **** 
 676              		.loc 1 455 3 view .LVU259
 458:Drivers/STM32H7xx_HAL_Driver/Src/stm32h7xx_hal_dcmi.c **** }
 677              		.loc 1 458 3 view .LVU260
 678              	.L30:
 459:Drivers/STM32H7xx_HAL_Driver/Src/stm32h7xx_hal_dcmi.c **** 
 679              		.loc 1 459 1 is_stmt 0 view .LVU261
 680 00c8 03B0     		add	sp, sp, #12
 681              	.LCFI6:
 682              		.cfi_remember_state
 683              		.cfi_def_cfa_offset 12
 684              		@ sp needed
 685 00ca 30BD     		pop	{r4, r5, pc}
 686              	.LVL33:
 687              	.L38:
 688              	.LCFI7:
 689              		.cfi_restore_state
 441:Drivers/STM32H7xx_HAL_Driver/Src/stm32h7xx_hal_dcmi.c ****       /* Change DCMI state */
 690              		.loc 1 441 7 is_stmt 1 view .LVU262
 441:Drivers/STM32H7xx_HAL_Driver/Src/stm32h7xx_hal_dcmi.c ****       /* Change DCMI state */
 691              		.loc 1 441 24 is_stmt 0 view .LVU263
 692 00cc 4023     		movs	r3, #64
 693 00ce E364     		str	r3, [r4, #76]
 443:Drivers/STM32H7xx_HAL_Driver/Src/stm32h7xx_hal_dcmi.c ****       /* Release Lock */
 694              		.loc 1 443 7 is_stmt 1 view .LVU264
ARM GAS  C:\Users\theto\AppData\Local\Temp\ccKmbcIV.s 			page 38


 443:Drivers/STM32H7xx_HAL_Driver/Src/stm32h7xx_hal_dcmi.c ****       /* Release Lock */
 695              		.loc 1 443 20 is_stmt 0 view .LVU265
 696 00d0 0120     		movs	r0, #1
 697 00d2 84F83500 		strb	r0, [r4, #53]
 445:Drivers/STM32H7xx_HAL_Driver/Src/stm32h7xx_hal_dcmi.c ****       /* Return function status */
 698              		.loc 1 445 7 is_stmt 1 view .LVU266
 445:Drivers/STM32H7xx_HAL_Driver/Src/stm32h7xx_hal_dcmi.c ****       /* Return function status */
 699              		.loc 1 445 7 view .LVU267
 700 00d6 0023     		movs	r3, #0
 701 00d8 84F83430 		strb	r3, [r4, #52]
 445:Drivers/STM32H7xx_HAL_Driver/Src/stm32h7xx_hal_dcmi.c ****       /* Return function status */
 702              		.loc 1 445 7 view .LVU268
 447:Drivers/STM32H7xx_HAL_Driver/Src/stm32h7xx_hal_dcmi.c ****     }
 703              		.loc 1 447 7 view .LVU269
 447:Drivers/STM32H7xx_HAL_Driver/Src/stm32h7xx_hal_dcmi.c ****     }
 704              		.loc 1 447 14 is_stmt 0 view .LVU270
 705 00dc F4E7     		b	.L30
 706              	.LVL34:
 707              	.L35:
 371:Drivers/STM32H7xx_HAL_Driver/Src/stm32h7xx_hal_dcmi.c **** 
 708              		.loc 1 371 3 view .LVU271
 709 00de 0220     		movs	r0, #2
 710 00e0 F2E7     		b	.L30
 711              	.L40:
 712 00e2 00BF     		.align	2
 713              	.L39:
 714 00e4 00000000 		.word	DCMI_DMAXferCplt
 715 00e8 00000000 		.word	DCMI_DMAError
 716              		.cfi_endproc
 717              	.LFE148:
 719              		.section	.text.HAL_DCMI_Stop,"ax",%progbits
 720              		.align	1
 721              		.global	HAL_DCMI_Stop
 722              		.syntax unified
 723              		.thumb
 724              		.thumb_func
 726              	HAL_DCMI_Stop:
 727              	.LVL35:
 728              	.LFB149:
 468:Drivers/STM32H7xx_HAL_Driver/Src/stm32h7xx_hal_dcmi.c ****   uint32_t count = HAL_TIMEOUT_DCMI_STOP * (SystemCoreClock / 8U / 1000U);
 729              		.loc 1 468 1 is_stmt 1 view -0
 730              		.cfi_startproc
 731              		@ args = 0, pretend = 0, frame = 0
 732              		@ frame_needed = 0, uses_anonymous_args = 0
 468:Drivers/STM32H7xx_HAL_Driver/Src/stm32h7xx_hal_dcmi.c ****   uint32_t count = HAL_TIMEOUT_DCMI_STOP * (SystemCoreClock / 8U / 1000U);
 733              		.loc 1 468 1 is_stmt 0 view .LVU273
 734 0000 38B5     		push	{r3, r4, r5, lr}
 735              	.LCFI8:
 736              		.cfi_def_cfa_offset 16
 737              		.cfi_offset 3, -16
 738              		.cfi_offset 4, -12
 739              		.cfi_offset 5, -8
 740              		.cfi_offset 14, -4
 469:Drivers/STM32H7xx_HAL_Driver/Src/stm32h7xx_hal_dcmi.c ****   HAL_StatusTypeDef status = HAL_OK;
 741              		.loc 1 469 3 is_stmt 1 view .LVU274
 469:Drivers/STM32H7xx_HAL_Driver/Src/stm32h7xx_hal_dcmi.c ****   HAL_StatusTypeDef status = HAL_OK;
 742              		.loc 1 469 66 is_stmt 0 view .LVU275
ARM GAS  C:\Users\theto\AppData\Local\Temp\ccKmbcIV.s 			page 39


 743 0002 1E4B     		ldr	r3, .L49
 744 0004 1B68     		ldr	r3, [r3]
 745 0006 1E4A     		ldr	r2, .L49+4
 746 0008 A2FB0323 		umull	r2, r3, r2, r3
 747 000c 5B0A     		lsrs	r3, r3, #9
 469:Drivers/STM32H7xx_HAL_Driver/Src/stm32h7xx_hal_dcmi.c ****   HAL_StatusTypeDef status = HAL_OK;
 748              		.loc 1 469 12 view .LVU276
 749 000e 4FF47A72 		mov	r2, #1000
 750 0012 02FB03F3 		mul	r3, r2, r3
 751              	.LVL36:
 470:Drivers/STM32H7xx_HAL_Driver/Src/stm32h7xx_hal_dcmi.c **** 
 752              		.loc 1 470 3 is_stmt 1 view .LVU277
 473:Drivers/STM32H7xx_HAL_Driver/Src/stm32h7xx_hal_dcmi.c **** 
 753              		.loc 1 473 3 view .LVU278
 473:Drivers/STM32H7xx_HAL_Driver/Src/stm32h7xx_hal_dcmi.c **** 
 754              		.loc 1 473 3 view .LVU279
 755 0016 90F83420 		ldrb	r2, [r0, #52]	@ zero_extendqisi2
 756 001a 012A     		cmp	r2, #1
 757 001c 2BD0     		beq	.L46
 758 001e 0446     		mov	r4, r0
 473:Drivers/STM32H7xx_HAL_Driver/Src/stm32h7xx_hal_dcmi.c **** 
 759              		.loc 1 473 3 discriminator 2 view .LVU280
 760 0020 0122     		movs	r2, #1
 761 0022 80F83420 		strb	r2, [r0, #52]
 473:Drivers/STM32H7xx_HAL_Driver/Src/stm32h7xx_hal_dcmi.c **** 
 762              		.loc 1 473 3 discriminator 2 view .LVU281
 476:Drivers/STM32H7xx_HAL_Driver/Src/stm32h7xx_hal_dcmi.c **** 
 763              		.loc 1 476 3 discriminator 2 view .LVU282
 476:Drivers/STM32H7xx_HAL_Driver/Src/stm32h7xx_hal_dcmi.c **** 
 764              		.loc 1 476 16 is_stmt 0 discriminator 2 view .LVU283
 765 0026 0222     		movs	r2, #2
 766 0028 80F83520 		strb	r2, [r0, #53]
 479:Drivers/STM32H7xx_HAL_Driver/Src/stm32h7xx_hal_dcmi.c **** 
 767              		.loc 1 479 3 is_stmt 1 discriminator 2 view .LVU284
 479:Drivers/STM32H7xx_HAL_Driver/Src/stm32h7xx_hal_dcmi.c **** 
 768              		.loc 1 479 8 is_stmt 0 discriminator 2 view .LVU285
 769 002c 0168     		ldr	r1, [r0]
 479:Drivers/STM32H7xx_HAL_Driver/Src/stm32h7xx_hal_dcmi.c **** 
 770              		.loc 1 479 23 discriminator 2 view .LVU286
 771 002e 0A68     		ldr	r2, [r1]
 772 0030 22F00102 		bic	r2, r2, #1
 773 0034 0A60     		str	r2, [r1]
 774              	.L45:
 482:Drivers/STM32H7xx_HAL_Driver/Src/stm32h7xx_hal_dcmi.c ****   {
 775              		.loc 1 482 3 is_stmt 1 view .LVU287
 484:Drivers/STM32H7xx_HAL_Driver/Src/stm32h7xx_hal_dcmi.c ****     if (count == 0U)
 776              		.loc 1 484 5 view .LVU288
 777              	.LVL37:
 485:Drivers/STM32H7xx_HAL_Driver/Src/stm32h7xx_hal_dcmi.c ****     {
 778              		.loc 1 485 5 view .LVU289
 485:Drivers/STM32H7xx_HAL_Driver/Src/stm32h7xx_hal_dcmi.c ****     {
 779              		.loc 1 485 8 is_stmt 0 view .LVU290
 780 0036 013B     		subs	r3, r3, #1
 781              	.LVL38:
 485:Drivers/STM32H7xx_HAL_Driver/Src/stm32h7xx_hal_dcmi.c ****     {
 782              		.loc 1 485 8 view .LVU291
 783 0038 06D0     		beq	.L48
ARM GAS  C:\Users\theto\AppData\Local\Temp\ccKmbcIV.s 			page 40


 494:Drivers/STM32H7xx_HAL_Driver/Src/stm32h7xx_hal_dcmi.c **** 
 784              		.loc 1 494 9 is_stmt 1 view .LVU292
 494:Drivers/STM32H7xx_HAL_Driver/Src/stm32h7xx_hal_dcmi.c **** 
 785              		.loc 1 494 16 is_stmt 0 view .LVU293
 786 003a 2268     		ldr	r2, [r4]
 494:Drivers/STM32H7xx_HAL_Driver/Src/stm32h7xx_hal_dcmi.c **** 
 787              		.loc 1 494 26 view .LVU294
 788 003c 1268     		ldr	r2, [r2]
 494:Drivers/STM32H7xx_HAL_Driver/Src/stm32h7xx_hal_dcmi.c **** 
 789              		.loc 1 494 3 view .LVU295
 790 003e 12F0010F 		tst	r2, #1
 791 0042 F8D1     		bne	.L45
 470:Drivers/STM32H7xx_HAL_Driver/Src/stm32h7xx_hal_dcmi.c **** 
 792              		.loc 1 470 21 view .LVU296
 793 0044 0025     		movs	r5, #0
 794 0046 04E0     		b	.L44
 795              	.L48:
 488:Drivers/STM32H7xx_HAL_Driver/Src/stm32h7xx_hal_dcmi.c **** 
 796              		.loc 1 488 7 is_stmt 1 view .LVU297
 488:Drivers/STM32H7xx_HAL_Driver/Src/stm32h7xx_hal_dcmi.c **** 
 797              		.loc 1 488 24 is_stmt 0 view .LVU298
 798 0048 E36C     		ldr	r3, [r4, #76]
 799              	.LVL39:
 488:Drivers/STM32H7xx_HAL_Driver/Src/stm32h7xx_hal_dcmi.c **** 
 800              		.loc 1 488 24 view .LVU299
 801 004a 43F02003 		orr	r3, r3, #32
 802 004e E364     		str	r3, [r4, #76]
 490:Drivers/STM32H7xx_HAL_Driver/Src/stm32h7xx_hal_dcmi.c ****       break;
 803              		.loc 1 490 7 is_stmt 1 view .LVU300
 804              	.LVL40:
 491:Drivers/STM32H7xx_HAL_Driver/Src/stm32h7xx_hal_dcmi.c ****     }
 805              		.loc 1 491 7 view .LVU301
 490:Drivers/STM32H7xx_HAL_Driver/Src/stm32h7xx_hal_dcmi.c ****       break;
 806              		.loc 1 490 14 is_stmt 0 view .LVU302
 807 0050 0325     		movs	r5, #3
 808              	.LVL41:
 809              	.L44:
 497:Drivers/STM32H7xx_HAL_Driver/Src/stm32h7xx_hal_dcmi.c **** 
 810              		.loc 1 497 3 is_stmt 1 view .LVU303
 811 0052 2268     		ldr	r2, [r4]
 812 0054 1368     		ldr	r3, [r2]
 813 0056 23F48043 		bic	r3, r3, #16384
 814 005a 1360     		str	r3, [r2]
 500:Drivers/STM32H7xx_HAL_Driver/Src/stm32h7xx_hal_dcmi.c **** 
 815              		.loc 1 500 3 view .LVU304
 500:Drivers/STM32H7xx_HAL_Driver/Src/stm32h7xx_hal_dcmi.c **** 
 816              		.loc 1 500 9 is_stmt 0 view .LVU305
 817 005c A06C     		ldr	r0, [r4, #72]
 818              	.LVL42:
 500:Drivers/STM32H7xx_HAL_Driver/Src/stm32h7xx_hal_dcmi.c **** 
 819              		.loc 1 500 9 view .LVU306
 820 005e FFF7FEFF 		bl	HAL_DMA_Abort
 821              	.LVL43:
 503:Drivers/STM32H7xx_HAL_Driver/Src/stm32h7xx_hal_dcmi.c **** 
 822              		.loc 1 503 3 is_stmt 1 view .LVU307
 503:Drivers/STM32H7xx_HAL_Driver/Src/stm32h7xx_hal_dcmi.c **** 
 823              		.loc 1 503 20 is_stmt 0 view .LVU308
ARM GAS  C:\Users\theto\AppData\Local\Temp\ccKmbcIV.s 			page 41


 824 0062 E36C     		ldr	r3, [r4, #76]
 825 0064 E364     		str	r3, [r4, #76]
 506:Drivers/STM32H7xx_HAL_Driver/Src/stm32h7xx_hal_dcmi.c **** 
 826              		.loc 1 506 3 is_stmt 1 view .LVU309
 506:Drivers/STM32H7xx_HAL_Driver/Src/stm32h7xx_hal_dcmi.c **** 
 827              		.loc 1 506 16 is_stmt 0 view .LVU310
 828 0066 0123     		movs	r3, #1
 829 0068 84F83530 		strb	r3, [r4, #53]
 509:Drivers/STM32H7xx_HAL_Driver/Src/stm32h7xx_hal_dcmi.c **** 
 830              		.loc 1 509 3 is_stmt 1 view .LVU311
 509:Drivers/STM32H7xx_HAL_Driver/Src/stm32h7xx_hal_dcmi.c **** 
 831              		.loc 1 509 3 view .LVU312
 832 006c 0023     		movs	r3, #0
 833 006e 84F83430 		strb	r3, [r4, #52]
 509:Drivers/STM32H7xx_HAL_Driver/Src/stm32h7xx_hal_dcmi.c **** 
 834              		.loc 1 509 3 view .LVU313
 512:Drivers/STM32H7xx_HAL_Driver/Src/stm32h7xx_hal_dcmi.c **** }
 835              		.loc 1 512 3 view .LVU314
 836              	.LVL44:
 837              	.L42:
 513:Drivers/STM32H7xx_HAL_Driver/Src/stm32h7xx_hal_dcmi.c **** 
 838              		.loc 1 513 1 is_stmt 0 view .LVU315
 839 0072 2846     		mov	r0, r5
 840 0074 38BD     		pop	{r3, r4, r5, pc}
 841              	.LVL45:
 842              	.L46:
 473:Drivers/STM32H7xx_HAL_Driver/Src/stm32h7xx_hal_dcmi.c **** 
 843              		.loc 1 473 3 view .LVU316
 844 0076 0225     		movs	r5, #2
 845 0078 FBE7     		b	.L42
 846              	.L50:
 847 007a 00BF     		.align	2
 848              	.L49:
 849 007c 00000000 		.word	SystemCoreClock
 850 0080 D34D6210 		.word	274877907
 851              		.cfi_endproc
 852              	.LFE149:
 854              		.section	.text.HAL_DCMI_Suspend,"ax",%progbits
 855              		.align	1
 856              		.global	HAL_DCMI_Suspend
 857              		.syntax unified
 858              		.thumb
 859              		.thumb_func
 861              	HAL_DCMI_Suspend:
 862              	.LVL46:
 863              	.LFB150:
 522:Drivers/STM32H7xx_HAL_Driver/Src/stm32h7xx_hal_dcmi.c ****   uint32_t count = HAL_TIMEOUT_DCMI_STOP * (SystemCoreClock / 8U / 1000U);
 864              		.loc 1 522 1 is_stmt 1 view -0
 865              		.cfi_startproc
 866              		@ args = 0, pretend = 0, frame = 0
 867              		@ frame_needed = 0, uses_anonymous_args = 0
 868              		@ link register save eliminated.
 522:Drivers/STM32H7xx_HAL_Driver/Src/stm32h7xx_hal_dcmi.c ****   uint32_t count = HAL_TIMEOUT_DCMI_STOP * (SystemCoreClock / 8U / 1000U);
 869              		.loc 1 522 1 is_stmt 0 view .LVU318
 870 0000 0246     		mov	r2, r0
 523:Drivers/STM32H7xx_HAL_Driver/Src/stm32h7xx_hal_dcmi.c ****   HAL_StatusTypeDef status = HAL_OK;
 871              		.loc 1 523 3 is_stmt 1 view .LVU319
ARM GAS  C:\Users\theto\AppData\Local\Temp\ccKmbcIV.s 			page 42


 523:Drivers/STM32H7xx_HAL_Driver/Src/stm32h7xx_hal_dcmi.c ****   HAL_StatusTypeDef status = HAL_OK;
 872              		.loc 1 523 66 is_stmt 0 view .LVU320
 873 0002 1B4B     		ldr	r3, .L60
 874 0004 1B68     		ldr	r3, [r3]
 875 0006 1B49     		ldr	r1, .L60+4
 876 0008 A1FB0313 		umull	r1, r3, r1, r3
 877 000c 5B0A     		lsrs	r3, r3, #9
 523:Drivers/STM32H7xx_HAL_Driver/Src/stm32h7xx_hal_dcmi.c ****   HAL_StatusTypeDef status = HAL_OK;
 878              		.loc 1 523 12 view .LVU321
 879 000e 4FF47A71 		mov	r1, #1000
 880 0012 01FB03F3 		mul	r3, r1, r3
 881              	.LVL47:
 524:Drivers/STM32H7xx_HAL_Driver/Src/stm32h7xx_hal_dcmi.c **** 
 882              		.loc 1 524 3 is_stmt 1 view .LVU322
 527:Drivers/STM32H7xx_HAL_Driver/Src/stm32h7xx_hal_dcmi.c **** 
 883              		.loc 1 527 3 view .LVU323
 527:Drivers/STM32H7xx_HAL_Driver/Src/stm32h7xx_hal_dcmi.c **** 
 884              		.loc 1 527 3 view .LVU324
 885 0016 90F83410 		ldrb	r1, [r0, #52]	@ zero_extendqisi2
 886 001a 0129     		cmp	r1, #1
 887 001c 26D0     		beq	.L56
 527:Drivers/STM32H7xx_HAL_Driver/Src/stm32h7xx_hal_dcmi.c **** 
 888              		.loc 1 527 3 discriminator 2 view .LVU325
 889 001e 0121     		movs	r1, #1
 890 0020 80F83410 		strb	r1, [r0, #52]
 527:Drivers/STM32H7xx_HAL_Driver/Src/stm32h7xx_hal_dcmi.c **** 
 891              		.loc 1 527 3 discriminator 2 view .LVU326
 529:Drivers/STM32H7xx_HAL_Driver/Src/stm32h7xx_hal_dcmi.c ****   {
 892              		.loc 1 529 3 discriminator 2 view .LVU327
 529:Drivers/STM32H7xx_HAL_Driver/Src/stm32h7xx_hal_dcmi.c ****   {
 893              		.loc 1 529 12 is_stmt 0 discriminator 2 view .LVU328
 894 0024 90F83510 		ldrb	r1, [r0, #53]	@ zero_extendqisi2
 895 0028 C9B2     		uxtb	r1, r1
 529:Drivers/STM32H7xx_HAL_Driver/Src/stm32h7xx_hal_dcmi.c ****   {
 896              		.loc 1 529 6 discriminator 2 view .LVU329
 897 002a 0229     		cmp	r1, #2
 898 002c 04D0     		beq	.L58
 524:Drivers/STM32H7xx_HAL_Driver/Src/stm32h7xx_hal_dcmi.c **** 
 899              		.loc 1 524 21 view .LVU330
 900 002e 0020     		movs	r0, #0
 901              	.LVL48:
 902              	.L53:
 556:Drivers/STM32H7xx_HAL_Driver/Src/stm32h7xx_hal_dcmi.c **** 
 903              		.loc 1 556 3 is_stmt 1 view .LVU331
 556:Drivers/STM32H7xx_HAL_Driver/Src/stm32h7xx_hal_dcmi.c **** 
 904              		.loc 1 556 3 view .LVU332
 905 0030 0023     		movs	r3, #0
 906 0032 82F83430 		strb	r3, [r2, #52]
 556:Drivers/STM32H7xx_HAL_Driver/Src/stm32h7xx_hal_dcmi.c **** 
 907              		.loc 1 556 3 view .LVU333
 559:Drivers/STM32H7xx_HAL_Driver/Src/stm32h7xx_hal_dcmi.c **** }
 908              		.loc 1 559 3 view .LVU334
 559:Drivers/STM32H7xx_HAL_Driver/Src/stm32h7xx_hal_dcmi.c **** }
 909              		.loc 1 559 10 is_stmt 0 view .LVU335
 910 0036 7047     		bx	lr
 911              	.LVL49:
 912              	.L58:
ARM GAS  C:\Users\theto\AppData\Local\Temp\ccKmbcIV.s 			page 43


 532:Drivers/STM32H7xx_HAL_Driver/Src/stm32h7xx_hal_dcmi.c **** 
 913              		.loc 1 532 5 is_stmt 1 view .LVU336
 532:Drivers/STM32H7xx_HAL_Driver/Src/stm32h7xx_hal_dcmi.c **** 
 914              		.loc 1 532 18 is_stmt 0 view .LVU337
 915 0038 0521     		movs	r1, #5
 916 003a 80F83510 		strb	r1, [r0, #53]
 535:Drivers/STM32H7xx_HAL_Driver/Src/stm32h7xx_hal_dcmi.c **** 
 917              		.loc 1 535 5 is_stmt 1 view .LVU338
 535:Drivers/STM32H7xx_HAL_Driver/Src/stm32h7xx_hal_dcmi.c **** 
 918              		.loc 1 535 10 is_stmt 0 view .LVU339
 919 003e 0068     		ldr	r0, [r0]
 920              	.LVL50:
 535:Drivers/STM32H7xx_HAL_Driver/Src/stm32h7xx_hal_dcmi.c **** 
 921              		.loc 1 535 25 view .LVU340
 922 0040 0168     		ldr	r1, [r0]
 923 0042 21F00101 		bic	r1, r1, #1
 924 0046 0160     		str	r1, [r0]
 925              	.L55:
 538:Drivers/STM32H7xx_HAL_Driver/Src/stm32h7xx_hal_dcmi.c ****     {
 926              		.loc 1 538 5 is_stmt 1 view .LVU341
 540:Drivers/STM32H7xx_HAL_Driver/Src/stm32h7xx_hal_dcmi.c ****       if (count == 0U)
 927              		.loc 1 540 7 view .LVU342
 928              	.LVL51:
 541:Drivers/STM32H7xx_HAL_Driver/Src/stm32h7xx_hal_dcmi.c ****       {
 929              		.loc 1 541 7 view .LVU343
 541:Drivers/STM32H7xx_HAL_Driver/Src/stm32h7xx_hal_dcmi.c ****       {
 930              		.loc 1 541 10 is_stmt 0 view .LVU344
 931 0048 013B     		subs	r3, r3, #1
 932              	.LVL52:
 541:Drivers/STM32H7xx_HAL_Driver/Src/stm32h7xx_hal_dcmi.c ****       {
 933              		.loc 1 541 10 view .LVU345
 934 004a 06D0     		beq	.L59
 553:Drivers/STM32H7xx_HAL_Driver/Src/stm32h7xx_hal_dcmi.c ****   }
 935              		.loc 1 553 11 is_stmt 1 view .LVU346
 553:Drivers/STM32H7xx_HAL_Driver/Src/stm32h7xx_hal_dcmi.c ****   }
 936              		.loc 1 553 18 is_stmt 0 view .LVU347
 937 004c 1168     		ldr	r1, [r2]
 553:Drivers/STM32H7xx_HAL_Driver/Src/stm32h7xx_hal_dcmi.c ****   }
 938              		.loc 1 553 28 view .LVU348
 939 004e 0968     		ldr	r1, [r1]
 553:Drivers/STM32H7xx_HAL_Driver/Src/stm32h7xx_hal_dcmi.c ****   }
 940              		.loc 1 553 5 view .LVU349
 941 0050 11F0010F 		tst	r1, #1
 942 0054 F8D1     		bne	.L55
 524:Drivers/STM32H7xx_HAL_Driver/Src/stm32h7xx_hal_dcmi.c **** 
 943              		.loc 1 524 21 view .LVU350
 944 0056 0020     		movs	r0, #0
 945 0058 EAE7     		b	.L53
 946              	.L59:
 544:Drivers/STM32H7xx_HAL_Driver/Src/stm32h7xx_hal_dcmi.c **** 
 947              		.loc 1 544 9 is_stmt 1 view .LVU351
 544:Drivers/STM32H7xx_HAL_Driver/Src/stm32h7xx_hal_dcmi.c **** 
 948              		.loc 1 544 26 is_stmt 0 view .LVU352
 949 005a D36C     		ldr	r3, [r2, #76]
 950              	.LVL53:
 544:Drivers/STM32H7xx_HAL_Driver/Src/stm32h7xx_hal_dcmi.c **** 
 951              		.loc 1 544 26 view .LVU353
ARM GAS  C:\Users\theto\AppData\Local\Temp\ccKmbcIV.s 			page 44


 952 005c 43F02003 		orr	r3, r3, #32
 953 0060 D364     		str	r3, [r2, #76]
 547:Drivers/STM32H7xx_HAL_Driver/Src/stm32h7xx_hal_dcmi.c **** 
 954              		.loc 1 547 9 is_stmt 1 view .LVU354
 547:Drivers/STM32H7xx_HAL_Driver/Src/stm32h7xx_hal_dcmi.c **** 
 955              		.loc 1 547 22 is_stmt 0 view .LVU355
 956 0062 0123     		movs	r3, #1
 957 0064 82F83530 		strb	r3, [r2, #53]
 549:Drivers/STM32H7xx_HAL_Driver/Src/stm32h7xx_hal_dcmi.c ****         break;
 958              		.loc 1 549 9 is_stmt 1 view .LVU356
 959              	.LVL54:
 550:Drivers/STM32H7xx_HAL_Driver/Src/stm32h7xx_hal_dcmi.c ****       }
 960              		.loc 1 550 9 view .LVU357
 549:Drivers/STM32H7xx_HAL_Driver/Src/stm32h7xx_hal_dcmi.c ****         break;
 961              		.loc 1 549 16 is_stmt 0 view .LVU358
 962 0068 0320     		movs	r0, #3
 550:Drivers/STM32H7xx_HAL_Driver/Src/stm32h7xx_hal_dcmi.c ****       }
 963              		.loc 1 550 9 view .LVU359
 964 006a E1E7     		b	.L53
 965              	.LVL55:
 966              	.L56:
 527:Drivers/STM32H7xx_HAL_Driver/Src/stm32h7xx_hal_dcmi.c **** 
 967              		.loc 1 527 3 view .LVU360
 968 006c 0220     		movs	r0, #2
 969              	.LVL56:
 560:Drivers/STM32H7xx_HAL_Driver/Src/stm32h7xx_hal_dcmi.c **** 
 970              		.loc 1 560 1 view .LVU361
 971 006e 7047     		bx	lr
 972              	.L61:
 973              		.align	2
 974              	.L60:
 975 0070 00000000 		.word	SystemCoreClock
 976 0074 D34D6210 		.word	274877907
 977              		.cfi_endproc
 978              	.LFE150:
 980              		.section	.text.HAL_DCMI_Resume,"ax",%progbits
 981              		.align	1
 982              		.global	HAL_DCMI_Resume
 983              		.syntax unified
 984              		.thumb
 985              		.thumb_func
 987              	HAL_DCMI_Resume:
 988              	.LVL57:
 989              	.LFB151:
 569:Drivers/STM32H7xx_HAL_Driver/Src/stm32h7xx_hal_dcmi.c ****   /* Process locked */
 990              		.loc 1 569 1 is_stmt 1 view -0
 991              		.cfi_startproc
 992              		@ args = 0, pretend = 0, frame = 0
 993              		@ frame_needed = 0, uses_anonymous_args = 0
 994              		@ link register save eliminated.
 571:Drivers/STM32H7xx_HAL_Driver/Src/stm32h7xx_hal_dcmi.c **** 
 995              		.loc 1 571 3 view .LVU363
 571:Drivers/STM32H7xx_HAL_Driver/Src/stm32h7xx_hal_dcmi.c **** 
 996              		.loc 1 571 3 view .LVU364
 997 0000 90F83430 		ldrb	r3, [r0, #52]	@ zero_extendqisi2
 998 0004 012B     		cmp	r3, #1
 999 0006 15D0     		beq	.L65
ARM GAS  C:\Users\theto\AppData\Local\Temp\ccKmbcIV.s 			page 45


 571:Drivers/STM32H7xx_HAL_Driver/Src/stm32h7xx_hal_dcmi.c **** 
 1000              		.loc 1 571 3 discriminator 2 view .LVU365
 1001 0008 0123     		movs	r3, #1
 1002 000a 80F83430 		strb	r3, [r0, #52]
 571:Drivers/STM32H7xx_HAL_Driver/Src/stm32h7xx_hal_dcmi.c **** 
 1003              		.loc 1 571 3 discriminator 2 view .LVU366
 573:Drivers/STM32H7xx_HAL_Driver/Src/stm32h7xx_hal_dcmi.c ****   {
 1004              		.loc 1 573 3 discriminator 2 view .LVU367
 573:Drivers/STM32H7xx_HAL_Driver/Src/stm32h7xx_hal_dcmi.c ****   {
 1005              		.loc 1 573 12 is_stmt 0 discriminator 2 view .LVU368
 1006 000e 90F83530 		ldrb	r3, [r0, #53]	@ zero_extendqisi2
 1007 0012 DBB2     		uxtb	r3, r3
 573:Drivers/STM32H7xx_HAL_Driver/Src/stm32h7xx_hal_dcmi.c ****   {
 1008              		.loc 1 573 6 discriminator 2 view .LVU369
 1009 0014 052B     		cmp	r3, #5
 1010 0016 04D0     		beq	.L66
 1011              	.L64:
 582:Drivers/STM32H7xx_HAL_Driver/Src/stm32h7xx_hal_dcmi.c **** 
 1012              		.loc 1 582 3 is_stmt 1 view .LVU370
 582:Drivers/STM32H7xx_HAL_Driver/Src/stm32h7xx_hal_dcmi.c **** 
 1013              		.loc 1 582 3 view .LVU371
 1014 0018 0023     		movs	r3, #0
 1015 001a 80F83430 		strb	r3, [r0, #52]
 582:Drivers/STM32H7xx_HAL_Driver/Src/stm32h7xx_hal_dcmi.c **** 
 1016              		.loc 1 582 3 view .LVU372
 585:Drivers/STM32H7xx_HAL_Driver/Src/stm32h7xx_hal_dcmi.c **** }
 1017              		.loc 1 585 3 view .LVU373
 585:Drivers/STM32H7xx_HAL_Driver/Src/stm32h7xx_hal_dcmi.c **** }
 1018              		.loc 1 585 10 is_stmt 0 view .LVU374
 1019 001e 1846     		mov	r0, r3
 1020              	.LVL58:
 585:Drivers/STM32H7xx_HAL_Driver/Src/stm32h7xx_hal_dcmi.c **** }
 1021              		.loc 1 585 10 view .LVU375
 1022 0020 7047     		bx	lr
 1023              	.LVL59:
 1024              	.L66:
 576:Drivers/STM32H7xx_HAL_Driver/Src/stm32h7xx_hal_dcmi.c **** 
 1025              		.loc 1 576 5 is_stmt 1 view .LVU376
 576:Drivers/STM32H7xx_HAL_Driver/Src/stm32h7xx_hal_dcmi.c **** 
 1026              		.loc 1 576 18 is_stmt 0 view .LVU377
 1027 0022 0223     		movs	r3, #2
 1028 0024 80F83530 		strb	r3, [r0, #53]
 579:Drivers/STM32H7xx_HAL_Driver/Src/stm32h7xx_hal_dcmi.c ****   }
 1029              		.loc 1 579 5 is_stmt 1 view .LVU378
 579:Drivers/STM32H7xx_HAL_Driver/Src/stm32h7xx_hal_dcmi.c ****   }
 1030              		.loc 1 579 10 is_stmt 0 view .LVU379
 1031 0028 0268     		ldr	r2, [r0]
 579:Drivers/STM32H7xx_HAL_Driver/Src/stm32h7xx_hal_dcmi.c ****   }
 1032              		.loc 1 579 25 view .LVU380
 1033 002a 1368     		ldr	r3, [r2]
 1034 002c 43F00103 		orr	r3, r3, #1
 1035 0030 1360     		str	r3, [r2]
 1036 0032 F1E7     		b	.L64
 1037              	.L65:
 571:Drivers/STM32H7xx_HAL_Driver/Src/stm32h7xx_hal_dcmi.c **** 
 1038              		.loc 1 571 3 view .LVU381
 1039 0034 0220     		movs	r0, #2
ARM GAS  C:\Users\theto\AppData\Local\Temp\ccKmbcIV.s 			page 46


 1040              	.LVL60:
 586:Drivers/STM32H7xx_HAL_Driver/Src/stm32h7xx_hal_dcmi.c **** 
 1041              		.loc 1 586 1 view .LVU382
 1042 0036 7047     		bx	lr
 1043              		.cfi_endproc
 1044              	.LFE151:
 1046              		.section	.text.HAL_DCMI_ErrorCallback,"ax",%progbits
 1047              		.align	1
 1048              		.weak	HAL_DCMI_ErrorCallback
 1049              		.syntax unified
 1050              		.thumb
 1051              		.thumb_func
 1053              	HAL_DCMI_ErrorCallback:
 1054              	.LVL61:
 1055              	.LFB153:
 695:Drivers/STM32H7xx_HAL_Driver/Src/stm32h7xx_hal_dcmi.c ****   /* Prevent unused argument(s) compilation warning */
 1056              		.loc 1 695 1 is_stmt 1 view -0
 1057              		.cfi_startproc
 1058              		@ args = 0, pretend = 0, frame = 0
 1059              		@ frame_needed = 0, uses_anonymous_args = 0
 1060              		@ link register save eliminated.
 697:Drivers/STM32H7xx_HAL_Driver/Src/stm32h7xx_hal_dcmi.c **** 
 1061              		.loc 1 697 3 view .LVU384
 702:Drivers/STM32H7xx_HAL_Driver/Src/stm32h7xx_hal_dcmi.c **** 
 1062              		.loc 1 702 1 is_stmt 0 view .LVU385
 1063 0000 7047     		bx	lr
 1064              		.cfi_endproc
 1065              	.LFE153:
 1067              		.section	.text.DCMI_DMAError,"ax",%progbits
 1068              		.align	1
 1069              		.syntax unified
 1070              		.thumb
 1071              		.thumb_func
 1073              	DCMI_DMAError:
 1074              	.LVL62:
 1075              	.LFB164:
1189:Drivers/STM32H7xx_HAL_Driver/Src/stm32h7xx_hal_dcmi.c **** 
1190:Drivers/STM32H7xx_HAL_Driver/Src/stm32h7xx_hal_dcmi.c **** /**
1191:Drivers/STM32H7xx_HAL_Driver/Src/stm32h7xx_hal_dcmi.c ****   * @brief  DMA error callback
1192:Drivers/STM32H7xx_HAL_Driver/Src/stm32h7xx_hal_dcmi.c ****   * @param  hdma pointer to a DMA_HandleTypeDef structure that contains
1193:Drivers/STM32H7xx_HAL_Driver/Src/stm32h7xx_hal_dcmi.c ****   *                the configuration information for the specified DMA module.
1194:Drivers/STM32H7xx_HAL_Driver/Src/stm32h7xx_hal_dcmi.c ****   * @retval None
1195:Drivers/STM32H7xx_HAL_Driver/Src/stm32h7xx_hal_dcmi.c ****   */
1196:Drivers/STM32H7xx_HAL_Driver/Src/stm32h7xx_hal_dcmi.c **** static void DCMI_DMAError(DMA_HandleTypeDef *hdma)
1197:Drivers/STM32H7xx_HAL_Driver/Src/stm32h7xx_hal_dcmi.c **** {
 1076              		.loc 1 1197 1 is_stmt 1 view -0
 1077              		.cfi_startproc
 1078              		@ args = 0, pretend = 0, frame = 0
 1079              		@ frame_needed = 0, uses_anonymous_args = 0
 1080              		.loc 1 1197 1 is_stmt 0 view .LVU387
 1081 0000 08B5     		push	{r3, lr}
 1082              	.LCFI9:
 1083              		.cfi_def_cfa_offset 8
 1084              		.cfi_offset 3, -8
 1085              		.cfi_offset 14, -4
1198:Drivers/STM32H7xx_HAL_Driver/Src/stm32h7xx_hal_dcmi.c ****   DCMI_HandleTypeDef *hdcmi = (DCMI_HandleTypeDef *)((DMA_HandleTypeDef *)hdma)->Parent;
 1086              		.loc 1 1198 3 is_stmt 1 view .LVU388
ARM GAS  C:\Users\theto\AppData\Local\Temp\ccKmbcIV.s 			page 47


 1087              		.loc 1 1198 23 is_stmt 0 view .LVU389
 1088 0002 806B     		ldr	r0, [r0, #56]
 1089              	.LVL63:
1199:Drivers/STM32H7xx_HAL_Driver/Src/stm32h7xx_hal_dcmi.c **** 
1200:Drivers/STM32H7xx_HAL_Driver/Src/stm32h7xx_hal_dcmi.c ****   if (hdcmi->DMA_Handle->ErrorCode != HAL_DMA_ERROR_FE)
 1090              		.loc 1 1200 3 is_stmt 1 view .LVU390
 1091              		.loc 1 1200 12 is_stmt 0 view .LVU391
 1092 0004 836C     		ldr	r3, [r0, #72]
 1093              		.loc 1 1200 24 view .LVU392
 1094 0006 5B6D     		ldr	r3, [r3, #84]
 1095              		.loc 1 1200 6 view .LVU393
 1096 0008 022B     		cmp	r3, #2
 1097 000a 06D0     		beq	.L69
1201:Drivers/STM32H7xx_HAL_Driver/Src/stm32h7xx_hal_dcmi.c ****   {
1202:Drivers/STM32H7xx_HAL_Driver/Src/stm32h7xx_hal_dcmi.c ****     /* Initialize the DCMI state*/
1203:Drivers/STM32H7xx_HAL_Driver/Src/stm32h7xx_hal_dcmi.c ****     hdcmi->State = HAL_DCMI_STATE_READY;
 1098              		.loc 1 1203 5 is_stmt 1 view .LVU394
 1099              		.loc 1 1203 18 is_stmt 0 view .LVU395
 1100 000c 0123     		movs	r3, #1
 1101 000e 80F83530 		strb	r3, [r0, #53]
1204:Drivers/STM32H7xx_HAL_Driver/Src/stm32h7xx_hal_dcmi.c **** 
1205:Drivers/STM32H7xx_HAL_Driver/Src/stm32h7xx_hal_dcmi.c ****     /* Set DCMI Error Code */
1206:Drivers/STM32H7xx_HAL_Driver/Src/stm32h7xx_hal_dcmi.c ****     hdcmi->ErrorCode |= HAL_DCMI_ERROR_DMA;
 1102              		.loc 1 1206 5 is_stmt 1 view .LVU396
 1103              		.loc 1 1206 22 is_stmt 0 view .LVU397
 1104 0012 C36C     		ldr	r3, [r0, #76]
 1105 0014 43F04003 		orr	r3, r3, #64
 1106 0018 C364     		str	r3, [r0, #76]
 1107              	.L69:
1207:Drivers/STM32H7xx_HAL_Driver/Src/stm32h7xx_hal_dcmi.c ****   }
1208:Drivers/STM32H7xx_HAL_Driver/Src/stm32h7xx_hal_dcmi.c **** 
1209:Drivers/STM32H7xx_HAL_Driver/Src/stm32h7xx_hal_dcmi.c ****   /* DCMI error Callback */
1210:Drivers/STM32H7xx_HAL_Driver/Src/stm32h7xx_hal_dcmi.c **** #if (USE_HAL_DCMI_REGISTER_CALLBACKS == 1)
1211:Drivers/STM32H7xx_HAL_Driver/Src/stm32h7xx_hal_dcmi.c ****   /*Call registered DCMI error callback*/
1212:Drivers/STM32H7xx_HAL_Driver/Src/stm32h7xx_hal_dcmi.c ****   hdcmi->ErrorCallback(hdcmi);
1213:Drivers/STM32H7xx_HAL_Driver/Src/stm32h7xx_hal_dcmi.c **** #else
1214:Drivers/STM32H7xx_HAL_Driver/Src/stm32h7xx_hal_dcmi.c ****   HAL_DCMI_ErrorCallback(hdcmi);
 1108              		.loc 1 1214 3 is_stmt 1 view .LVU398
 1109 001a FFF7FEFF 		bl	HAL_DCMI_ErrorCallback
 1110              	.LVL64:
1215:Drivers/STM32H7xx_HAL_Driver/Src/stm32h7xx_hal_dcmi.c **** #endif /* USE_HAL_DCMI_REGISTER_CALLBACKS */
1216:Drivers/STM32H7xx_HAL_Driver/Src/stm32h7xx_hal_dcmi.c **** }
 1111              		.loc 1 1216 1 is_stmt 0 view .LVU399
 1112 001e 08BD     		pop	{r3, pc}
 1113              		.cfi_endproc
 1114              	.LFE164:
 1116              		.section	.text.HAL_DCMI_LineEventCallback,"ax",%progbits
 1117              		.align	1
 1118              		.weak	HAL_DCMI_LineEventCallback
 1119              		.syntax unified
 1120              		.thumb
 1121              		.thumb_func
 1123              	HAL_DCMI_LineEventCallback:
 1124              	.LVL65:
 1125              	.LFB154:
 711:Drivers/STM32H7xx_HAL_Driver/Src/stm32h7xx_hal_dcmi.c ****   /* Prevent unused argument(s) compilation warning */
 1126              		.loc 1 711 1 is_stmt 1 view -0
ARM GAS  C:\Users\theto\AppData\Local\Temp\ccKmbcIV.s 			page 48


 1127              		.cfi_startproc
 1128              		@ args = 0, pretend = 0, frame = 0
 1129              		@ frame_needed = 0, uses_anonymous_args = 0
 1130              		@ link register save eliminated.
 713:Drivers/STM32H7xx_HAL_Driver/Src/stm32h7xx_hal_dcmi.c ****   /* NOTE : This function Should not be modified, when the callback is needed,
 1131              		.loc 1 713 3 view .LVU401
 717:Drivers/STM32H7xx_HAL_Driver/Src/stm32h7xx_hal_dcmi.c **** 
 1132              		.loc 1 717 1 is_stmt 0 view .LVU402
 1133 0000 7047     		bx	lr
 1134              		.cfi_endproc
 1135              	.LFE154:
 1137              		.section	.text.HAL_DCMI_VsyncEventCallback,"ax",%progbits
 1138              		.align	1
 1139              		.weak	HAL_DCMI_VsyncEventCallback
 1140              		.syntax unified
 1141              		.thumb
 1142              		.thumb_func
 1144              	HAL_DCMI_VsyncEventCallback:
 1145              	.LVL66:
 1146              	.LFB155:
 726:Drivers/STM32H7xx_HAL_Driver/Src/stm32h7xx_hal_dcmi.c ****   /* Prevent unused argument(s) compilation warning */
 1147              		.loc 1 726 1 is_stmt 1 view -0
 1148              		.cfi_startproc
 1149              		@ args = 0, pretend = 0, frame = 0
 1150              		@ frame_needed = 0, uses_anonymous_args = 0
 1151              		@ link register save eliminated.
 728:Drivers/STM32H7xx_HAL_Driver/Src/stm32h7xx_hal_dcmi.c **** 
 1152              		.loc 1 728 3 view .LVU404
 733:Drivers/STM32H7xx_HAL_Driver/Src/stm32h7xx_hal_dcmi.c **** 
 1153              		.loc 1 733 1 is_stmt 0 view .LVU405
 1154 0000 7047     		bx	lr
 1155              		.cfi_endproc
 1156              	.LFE155:
 1158              		.section	.text.HAL_DCMI_FrameEventCallback,"ax",%progbits
 1159              		.align	1
 1160              		.weak	HAL_DCMI_FrameEventCallback
 1161              		.syntax unified
 1162              		.thumb
 1163              		.thumb_func
 1165              	HAL_DCMI_FrameEventCallback:
 1166              	.LVL67:
 1167              	.LFB156:
 742:Drivers/STM32H7xx_HAL_Driver/Src/stm32h7xx_hal_dcmi.c ****   /* Prevent unused argument(s) compilation warning */
 1168              		.loc 1 742 1 is_stmt 1 view -0
 1169              		.cfi_startproc
 1170              		@ args = 0, pretend = 0, frame = 0
 1171              		@ frame_needed = 0, uses_anonymous_args = 0
 1172              		@ link register save eliminated.
 744:Drivers/STM32H7xx_HAL_Driver/Src/stm32h7xx_hal_dcmi.c **** 
 1173              		.loc 1 744 3 view .LVU407
 749:Drivers/STM32H7xx_HAL_Driver/Src/stm32h7xx_hal_dcmi.c **** 
 1174              		.loc 1 749 1 is_stmt 0 view .LVU408
 1175 0000 7047     		bx	lr
 1176              		.cfi_endproc
 1177              	.LFE156:
 1179              		.section	.text.HAL_DCMI_IRQHandler,"ax",%progbits
 1180              		.align	1
ARM GAS  C:\Users\theto\AppData\Local\Temp\ccKmbcIV.s 			page 49


 1181              		.global	HAL_DCMI_IRQHandler
 1182              		.syntax unified
 1183              		.thumb
 1184              		.thumb_func
 1186              	HAL_DCMI_IRQHandler:
 1187              	.LVL68:
 1188              	.LFB152:
 595:Drivers/STM32H7xx_HAL_Driver/Src/stm32h7xx_hal_dcmi.c ****   uint32_t isr_value = READ_REG(hdcmi->Instance->MISR);
 1189              		.loc 1 595 1 is_stmt 1 view -0
 1190              		.cfi_startproc
 1191              		@ args = 0, pretend = 0, frame = 0
 1192              		@ frame_needed = 0, uses_anonymous_args = 0
 595:Drivers/STM32H7xx_HAL_Driver/Src/stm32h7xx_hal_dcmi.c ****   uint32_t isr_value = READ_REG(hdcmi->Instance->MISR);
 1193              		.loc 1 595 1 is_stmt 0 view .LVU410
 1194 0000 38B5     		push	{r3, r4, r5, lr}
 1195              	.LCFI10:
 1196              		.cfi_def_cfa_offset 16
 1197              		.cfi_offset 3, -16
 1198              		.cfi_offset 4, -12
 1199              		.cfi_offset 5, -8
 1200              		.cfi_offset 14, -4
 1201 0002 0446     		mov	r4, r0
 596:Drivers/STM32H7xx_HAL_Driver/Src/stm32h7xx_hal_dcmi.c **** 
 1202              		.loc 1 596 3 is_stmt 1 view .LVU411
 596:Drivers/STM32H7xx_HAL_Driver/Src/stm32h7xx_hal_dcmi.c **** 
 1203              		.loc 1 596 24 is_stmt 0 view .LVU412
 1204 0004 0368     		ldr	r3, [r0]
 596:Drivers/STM32H7xx_HAL_Driver/Src/stm32h7xx_hal_dcmi.c **** 
 1205              		.loc 1 596 12 view .LVU413
 1206 0006 1D69     		ldr	r5, [r3, #16]
 1207              	.LVL69:
 599:Drivers/STM32H7xx_HAL_Driver/Src/stm32h7xx_hal_dcmi.c ****   {
 1208              		.loc 1 599 3 is_stmt 1 view .LVU414
 599:Drivers/STM32H7xx_HAL_Driver/Src/stm32h7xx_hal_dcmi.c ****   {
 1209              		.loc 1 599 6 is_stmt 0 view .LVU415
 1210 0008 15F0040F 		tst	r5, #4
 1211 000c 20D1     		bne	.L82
 1212              	.LVL70:
 1213              	.L75:
 617:Drivers/STM32H7xx_HAL_Driver/Src/stm32h7xx_hal_dcmi.c ****   {
 1214              		.loc 1 617 3 is_stmt 1 view .LVU416
 617:Drivers/STM32H7xx_HAL_Driver/Src/stm32h7xx_hal_dcmi.c ****   {
 1215              		.loc 1 617 6 is_stmt 0 view .LVU417
 1216 000e 15F0020F 		tst	r5, #2
 1217 0012 2CD1     		bne	.L83
 1218              	.L76:
 635:Drivers/STM32H7xx_HAL_Driver/Src/stm32h7xx_hal_dcmi.c ****   {
 1219              		.loc 1 635 3 is_stmt 1 view .LVU418
 635:Drivers/STM32H7xx_HAL_Driver/Src/stm32h7xx_hal_dcmi.c ****   {
 1220              		.loc 1 635 6 is_stmt 0 view .LVU419
 1221 0014 15F0100F 		tst	r5, #16
 1222 0018 3AD1     		bne	.L84
 1223              	.L77:
 649:Drivers/STM32H7xx_HAL_Driver/Src/stm32h7xx_hal_dcmi.c ****   {
 1224              		.loc 1 649 3 is_stmt 1 view .LVU420
 649:Drivers/STM32H7xx_HAL_Driver/Src/stm32h7xx_hal_dcmi.c ****   {
 1225              		.loc 1 649 6 is_stmt 0 view .LVU421
ARM GAS  C:\Users\theto\AppData\Local\Temp\ccKmbcIV.s 			page 50


 1226 001a 15F0080F 		tst	r5, #8
 1227 001e 3ED1     		bne	.L85
 1228              	.L78:
 663:Drivers/STM32H7xx_HAL_Driver/Src/stm32h7xx_hal_dcmi.c ****   {
 1229              		.loc 1 663 3 is_stmt 1 view .LVU422
 663:Drivers/STM32H7xx_HAL_Driver/Src/stm32h7xx_hal_dcmi.c ****   {
 1230              		.loc 1 663 6 is_stmt 0 view .LVU423
 1231 0020 15F0010F 		tst	r5, #1
 1232 0024 13D0     		beq	.L74
 666:Drivers/STM32H7xx_HAL_Driver/Src/stm32h7xx_hal_dcmi.c ****     {
 1233              		.loc 1 666 5 is_stmt 1 view .LVU424
 666:Drivers/STM32H7xx_HAL_Driver/Src/stm32h7xx_hal_dcmi.c ****     {
 1234              		.loc 1 666 15 is_stmt 0 view .LVU425
 1235 0026 2368     		ldr	r3, [r4]
 666:Drivers/STM32H7xx_HAL_Driver/Src/stm32h7xx_hal_dcmi.c ****     {
 1236              		.loc 1 666 25 view .LVU426
 1237 0028 1A68     		ldr	r2, [r3]
 666:Drivers/STM32H7xx_HAL_Driver/Src/stm32h7xx_hal_dcmi.c ****     {
 1238              		.loc 1 666 8 view .LVU427
 1239 002a 12F0020F 		tst	r2, #2
 1240 002e 03D0     		beq	.L80
 669:Drivers/STM32H7xx_HAL_Driver/Src/stm32h7xx_hal_dcmi.c ****     }
 1241              		.loc 1 669 7 is_stmt 1 view .LVU428
 1242 0030 DA68     		ldr	r2, [r3, #12]
 1243 0032 22F01E02 		bic	r2, r2, #30
 1244 0036 DA60     		str	r2, [r3, #12]
 1245              	.L80:
 673:Drivers/STM32H7xx_HAL_Driver/Src/stm32h7xx_hal_dcmi.c **** 
 1246              		.loc 1 673 5 view .LVU429
 1247 0038 2268     		ldr	r2, [r4]
 1248 003a D368     		ldr	r3, [r2, #12]
 1249 003c 23F00103 		bic	r3, r3, #1
 1250 0040 D360     		str	r3, [r2, #12]
 676:Drivers/STM32H7xx_HAL_Driver/Src/stm32h7xx_hal_dcmi.c **** 
 1251              		.loc 1 676 5 view .LVU430
 1252 0042 2368     		ldr	r3, [r4]
 1253 0044 0122     		movs	r2, #1
 1254 0046 5A61     		str	r2, [r3, #20]
 683:Drivers/STM32H7xx_HAL_Driver/Src/stm32h7xx_hal_dcmi.c **** #endif /* USE_HAL_DCMI_REGISTER_CALLBACKS */
 1255              		.loc 1 683 5 view .LVU431
 1256 0048 2046     		mov	r0, r4
 1257 004a FFF7FEFF 		bl	HAL_DCMI_FrameEventCallback
 1258              	.LVL71:
 1259              	.L74:
 686:Drivers/STM32H7xx_HAL_Driver/Src/stm32h7xx_hal_dcmi.c **** 
 1260              		.loc 1 686 1 is_stmt 0 view .LVU432
 1261 004e 38BD     		pop	{r3, r4, r5, pc}
 1262              	.LVL72:
 1263              	.L82:
 602:Drivers/STM32H7xx_HAL_Driver/Src/stm32h7xx_hal_dcmi.c **** 
 1264              		.loc 1 602 5 is_stmt 1 view .LVU433
 1265 0050 0422     		movs	r2, #4
 1266 0052 5A61     		str	r2, [r3, #20]
 605:Drivers/STM32H7xx_HAL_Driver/Src/stm32h7xx_hal_dcmi.c **** 
 1267              		.loc 1 605 5 view .LVU434
 605:Drivers/STM32H7xx_HAL_Driver/Src/stm32h7xx_hal_dcmi.c **** 
 1268              		.loc 1 605 22 is_stmt 0 view .LVU435
ARM GAS  C:\Users\theto\AppData\Local\Temp\ccKmbcIV.s 			page 51


 1269 0054 C36C     		ldr	r3, [r0, #76]
 1270 0056 43F00203 		orr	r3, r3, #2
 1271 005a C364     		str	r3, [r0, #76]
 608:Drivers/STM32H7xx_HAL_Driver/Src/stm32h7xx_hal_dcmi.c **** 
 1272              		.loc 1 608 5 is_stmt 1 view .LVU436
 608:Drivers/STM32H7xx_HAL_Driver/Src/stm32h7xx_hal_dcmi.c **** 
 1273              		.loc 1 608 18 is_stmt 0 view .LVU437
 1274 005c 80F83520 		strb	r2, [r0, #53]
 611:Drivers/STM32H7xx_HAL_Driver/Src/stm32h7xx_hal_dcmi.c **** 
 1275              		.loc 1 611 5 is_stmt 1 view .LVU438
 611:Drivers/STM32H7xx_HAL_Driver/Src/stm32h7xx_hal_dcmi.c **** 
 1276              		.loc 1 611 10 is_stmt 0 view .LVU439
 1277 0060 836C     		ldr	r3, [r0, #72]
 611:Drivers/STM32H7xx_HAL_Driver/Src/stm32h7xx_hal_dcmi.c **** 
 1278              		.loc 1 611 42 view .LVU440
 1279 0062 124A     		ldr	r2, .L86
 1280 0064 1A65     		str	r2, [r3, #80]
 614:Drivers/STM32H7xx_HAL_Driver/Src/stm32h7xx_hal_dcmi.c ****   }
 1281              		.loc 1 614 5 is_stmt 1 view .LVU441
 614:Drivers/STM32H7xx_HAL_Driver/Src/stm32h7xx_hal_dcmi.c ****   }
 1282              		.loc 1 614 11 is_stmt 0 view .LVU442
 1283 0066 806C     		ldr	r0, [r0, #72]
 1284              	.LVL73:
 614:Drivers/STM32H7xx_HAL_Driver/Src/stm32h7xx_hal_dcmi.c ****   }
 1285              		.loc 1 614 11 view .LVU443
 1286 0068 FFF7FEFF 		bl	HAL_DMA_Abort_IT
 1287              	.LVL74:
 1288 006c CFE7     		b	.L75
 1289              	.L83:
 620:Drivers/STM32H7xx_HAL_Driver/Src/stm32h7xx_hal_dcmi.c **** 
 1290              		.loc 1 620 5 is_stmt 1 view .LVU444
 1291 006e 2368     		ldr	r3, [r4]
 1292 0070 0222     		movs	r2, #2
 1293 0072 5A61     		str	r2, [r3, #20]
 623:Drivers/STM32H7xx_HAL_Driver/Src/stm32h7xx_hal_dcmi.c **** 
 1294              		.loc 1 623 5 view .LVU445
 623:Drivers/STM32H7xx_HAL_Driver/Src/stm32h7xx_hal_dcmi.c **** 
 1295              		.loc 1 623 22 is_stmt 0 view .LVU446
 1296 0074 E36C     		ldr	r3, [r4, #76]
 1297 0076 43F00103 		orr	r3, r3, #1
 1298 007a E364     		str	r3, [r4, #76]
 626:Drivers/STM32H7xx_HAL_Driver/Src/stm32h7xx_hal_dcmi.c **** 
 1299              		.loc 1 626 5 is_stmt 1 view .LVU447
 626:Drivers/STM32H7xx_HAL_Driver/Src/stm32h7xx_hal_dcmi.c **** 
 1300              		.loc 1 626 18 is_stmt 0 view .LVU448
 1301 007c 0423     		movs	r3, #4
 1302 007e 84F83530 		strb	r3, [r4, #53]
 629:Drivers/STM32H7xx_HAL_Driver/Src/stm32h7xx_hal_dcmi.c **** 
 1303              		.loc 1 629 5 is_stmt 1 view .LVU449
 629:Drivers/STM32H7xx_HAL_Driver/Src/stm32h7xx_hal_dcmi.c **** 
 1304              		.loc 1 629 10 is_stmt 0 view .LVU450
 1305 0082 A36C     		ldr	r3, [r4, #72]
 629:Drivers/STM32H7xx_HAL_Driver/Src/stm32h7xx_hal_dcmi.c **** 
 1306              		.loc 1 629 42 view .LVU451
 1307 0084 094A     		ldr	r2, .L86
 1308 0086 1A65     		str	r2, [r3, #80]
 632:Drivers/STM32H7xx_HAL_Driver/Src/stm32h7xx_hal_dcmi.c ****   }
ARM GAS  C:\Users\theto\AppData\Local\Temp\ccKmbcIV.s 			page 52


 1309              		.loc 1 632 5 is_stmt 1 view .LVU452
 632:Drivers/STM32H7xx_HAL_Driver/Src/stm32h7xx_hal_dcmi.c ****   }
 1310              		.loc 1 632 11 is_stmt 0 view .LVU453
 1311 0088 A06C     		ldr	r0, [r4, #72]
 1312 008a FFF7FEFF 		bl	HAL_DMA_Abort_IT
 1313              	.LVL75:
 1314 008e C1E7     		b	.L76
 1315              	.L84:
 638:Drivers/STM32H7xx_HAL_Driver/Src/stm32h7xx_hal_dcmi.c **** 
 1316              		.loc 1 638 5 is_stmt 1 view .LVU454
 1317 0090 2368     		ldr	r3, [r4]
 1318 0092 1022     		movs	r2, #16
 1319 0094 5A61     		str	r2, [r3, #20]
 645:Drivers/STM32H7xx_HAL_Driver/Src/stm32h7xx_hal_dcmi.c **** #endif /* USE_HAL_DCMI_REGISTER_CALLBACKS */
 1320              		.loc 1 645 5 view .LVU455
 1321 0096 2046     		mov	r0, r4
 1322 0098 FFF7FEFF 		bl	HAL_DCMI_LineEventCallback
 1323              	.LVL76:
 1324 009c BDE7     		b	.L77
 1325              	.L85:
 652:Drivers/STM32H7xx_HAL_Driver/Src/stm32h7xx_hal_dcmi.c **** 
 1326              		.loc 1 652 5 view .LVU456
 1327 009e 2368     		ldr	r3, [r4]
 1328 00a0 0822     		movs	r2, #8
 1329 00a2 5A61     		str	r2, [r3, #20]
 659:Drivers/STM32H7xx_HAL_Driver/Src/stm32h7xx_hal_dcmi.c **** #endif /* USE_HAL_DCMI_REGISTER_CALLBACKS */
 1330              		.loc 1 659 5 view .LVU457
 1331 00a4 2046     		mov	r0, r4
 1332 00a6 FFF7FEFF 		bl	HAL_DCMI_VsyncEventCallback
 1333              	.LVL77:
 1334 00aa B9E7     		b	.L78
 1335              	.L87:
 1336              		.align	2
 1337              	.L86:
 1338 00ac 00000000 		.word	DCMI_DMAError
 1339              		.cfi_endproc
 1340              	.LFE152:
 1342              		.section	.text.HAL_DCMI_ConfigCrop,"ax",%progbits
 1343              		.align	1
 1344              		.global	HAL_DCMI_ConfigCrop
 1345              		.syntax unified
 1346              		.thumb
 1347              		.thumb_func
 1349              	HAL_DCMI_ConfigCrop:
 1350              	.LVL78:
 1351              	.LFB157:
 782:Drivers/STM32H7xx_HAL_Driver/Src/stm32h7xx_hal_dcmi.c ****   /* Process Locked */
 1352              		.loc 1 782 1 view -0
 1353              		.cfi_startproc
 1354              		@ args = 4, pretend = 0, frame = 0
 1355              		@ frame_needed = 0, uses_anonymous_args = 0
 784:Drivers/STM32H7xx_HAL_Driver/Src/stm32h7xx_hal_dcmi.c **** 
 1356              		.loc 1 784 3 view .LVU459
 784:Drivers/STM32H7xx_HAL_Driver/Src/stm32h7xx_hal_dcmi.c **** 
 1357              		.loc 1 784 3 view .LVU460
 1358 0000 90F834C0 		ldrb	ip, [r0, #52]	@ zero_extendqisi2
 1359 0004 BCF1010F 		cmp	ip, #1
ARM GAS  C:\Users\theto\AppData\Local\Temp\ccKmbcIV.s 			page 53


 1360 0008 18D0     		beq	.L90
 782:Drivers/STM32H7xx_HAL_Driver/Src/stm32h7xx_hal_dcmi.c ****   /* Process Locked */
 1361              		.loc 1 782 1 is_stmt 0 discriminator 2 view .LVU461
 1362 000a 10B5     		push	{r4, lr}
 1363              	.LCFI11:
 1364              		.cfi_def_cfa_offset 8
 1365              		.cfi_offset 4, -8
 1366              		.cfi_offset 14, -4
 784:Drivers/STM32H7xx_HAL_Driver/Src/stm32h7xx_hal_dcmi.c **** 
 1367              		.loc 1 784 3 is_stmt 1 discriminator 2 view .LVU462
 1368 000c 4FF0010C 		mov	ip, #1
 1369 0010 80F834C0 		strb	ip, [r0, #52]
 784:Drivers/STM32H7xx_HAL_Driver/Src/stm32h7xx_hal_dcmi.c **** 
 1370              		.loc 1 784 3 discriminator 2 view .LVU463
 787:Drivers/STM32H7xx_HAL_Driver/Src/stm32h7xx_hal_dcmi.c **** 
 1371              		.loc 1 787 3 discriminator 2 view .LVU464
 787:Drivers/STM32H7xx_HAL_Driver/Src/stm32h7xx_hal_dcmi.c **** 
 1372              		.loc 1 787 16 is_stmt 0 discriminator 2 view .LVU465
 1373 0014 4FF0020E 		mov	lr, #2
 1374 0018 80F835E0 		strb	lr, [r0, #53]
 790:Drivers/STM32H7xx_HAL_Driver/Src/stm32h7xx_hal_dcmi.c ****   assert_param(IS_DCMI_WINDOW_HEIGHT(Y0));
 1375              		.loc 1 790 3 is_stmt 1 discriminator 2 view .LVU466
 791:Drivers/STM32H7xx_HAL_Driver/Src/stm32h7xx_hal_dcmi.c ****   assert_param(IS_DCMI_WINDOW_COORDINATE(XSize));
 1376              		.loc 1 791 3 discriminator 2 view .LVU467
 792:Drivers/STM32H7xx_HAL_Driver/Src/stm32h7xx_hal_dcmi.c ****   assert_param(IS_DCMI_WINDOW_COORDINATE(YSize));
 1377              		.loc 1 792 3 discriminator 2 view .LVU468
 793:Drivers/STM32H7xx_HAL_Driver/Src/stm32h7xx_hal_dcmi.c **** 
 1378              		.loc 1 793 3 discriminator 2 view .LVU469
 796:Drivers/STM32H7xx_HAL_Driver/Src/stm32h7xx_hal_dcmi.c ****   hdcmi->Instance->CWSTRTR = (X0 | (Y0 << DCMI_CWSTRT_VST_Pos));
 1379              		.loc 1 796 3 discriminator 2 view .LVU470
 796:Drivers/STM32H7xx_HAL_Driver/Src/stm32h7xx_hal_dcmi.c ****   hdcmi->Instance->CWSTRTR = (X0 | (Y0 << DCMI_CWSTRT_VST_Pos));
 1380              		.loc 1 796 37 is_stmt 0 discriminator 2 view .LVU471
 1381 001c 029C     		ldr	r4, [sp, #8]
 1382 001e 43EA0443 		orr	r3, r3, r4, lsl #16
 1383              	.LVL79:
 796:Drivers/STM32H7xx_HAL_Driver/Src/stm32h7xx_hal_dcmi.c ****   hdcmi->Instance->CWSTRTR = (X0 | (Y0 << DCMI_CWSTRT_VST_Pos));
 1384              		.loc 1 796 28 discriminator 2 view .LVU472
 1385 0022 0468     		ldr	r4, [r0]
 1386 0024 6362     		str	r3, [r4, #36]
 797:Drivers/STM32H7xx_HAL_Driver/Src/stm32h7xx_hal_dcmi.c **** 
 1387              		.loc 1 797 3 is_stmt 1 discriminator 2 view .LVU473
 797:Drivers/STM32H7xx_HAL_Driver/Src/stm32h7xx_hal_dcmi.c **** 
 1388              		.loc 1 797 8 is_stmt 0 discriminator 2 view .LVU474
 1389 0026 0368     		ldr	r3, [r0]
 797:Drivers/STM32H7xx_HAL_Driver/Src/stm32h7xx_hal_dcmi.c **** 
 1390              		.loc 1 797 34 discriminator 2 view .LVU475
 1391 0028 41EA0242 		orr	r2, r1, r2, lsl #16
 1392              	.LVL80:
 797:Drivers/STM32H7xx_HAL_Driver/Src/stm32h7xx_hal_dcmi.c **** 
 1393              		.loc 1 797 28 discriminator 2 view .LVU476
 1394 002c 1A62     		str	r2, [r3, #32]
 800:Drivers/STM32H7xx_HAL_Driver/Src/stm32h7xx_hal_dcmi.c **** 
 1395              		.loc 1 800 3 is_stmt 1 discriminator 2 view .LVU477
 800:Drivers/STM32H7xx_HAL_Driver/Src/stm32h7xx_hal_dcmi.c **** 
 1396              		.loc 1 800 17 is_stmt 0 discriminator 2 view .LVU478
 1397 002e 80F835C0 		strb	ip, [r0, #53]
 803:Drivers/STM32H7xx_HAL_Driver/Src/stm32h7xx_hal_dcmi.c **** 
ARM GAS  C:\Users\theto\AppData\Local\Temp\ccKmbcIV.s 			page 54


 1398              		.loc 1 803 3 is_stmt 1 discriminator 2 view .LVU479
 803:Drivers/STM32H7xx_HAL_Driver/Src/stm32h7xx_hal_dcmi.c **** 
 1399              		.loc 1 803 3 discriminator 2 view .LVU480
 1400 0032 0023     		movs	r3, #0
 1401 0034 80F83430 		strb	r3, [r0, #52]
 803:Drivers/STM32H7xx_HAL_Driver/Src/stm32h7xx_hal_dcmi.c **** 
 1402              		.loc 1 803 3 discriminator 2 view .LVU481
 805:Drivers/STM32H7xx_HAL_Driver/Src/stm32h7xx_hal_dcmi.c **** }
 1403              		.loc 1 805 3 discriminator 2 view .LVU482
 805:Drivers/STM32H7xx_HAL_Driver/Src/stm32h7xx_hal_dcmi.c **** }
 1404              		.loc 1 805 10 is_stmt 0 discriminator 2 view .LVU483
 1405 0038 1846     		mov	r0, r3
 1406              	.LVL81:
 806:Drivers/STM32H7xx_HAL_Driver/Src/stm32h7xx_hal_dcmi.c **** 
 1407              		.loc 1 806 1 discriminator 2 view .LVU484
 1408 003a 10BD     		pop	{r4, pc}
 1409              	.LVL82:
 1410              	.L90:
 1411              	.LCFI12:
 1412              		.cfi_def_cfa_offset 0
 1413              		.cfi_restore 4
 1414              		.cfi_restore 14
 784:Drivers/STM32H7xx_HAL_Driver/Src/stm32h7xx_hal_dcmi.c **** 
 1415              		.loc 1 784 3 view .LVU485
 1416 003c 0220     		movs	r0, #2
 1417              	.LVL83:
 806:Drivers/STM32H7xx_HAL_Driver/Src/stm32h7xx_hal_dcmi.c **** 
 1418              		.loc 1 806 1 view .LVU486
 1419 003e 7047     		bx	lr
 1420              		.cfi_endproc
 1421              	.LFE157:
 1423              		.section	.text.HAL_DCMI_DisableCrop,"ax",%progbits
 1424              		.align	1
 1425              		.global	HAL_DCMI_DisableCrop
 1426              		.syntax unified
 1427              		.thumb
 1428              		.thumb_func
 1430              	HAL_DCMI_DisableCrop:
 1431              	.LVL84:
 1432              	.LFB158:
 815:Drivers/STM32H7xx_HAL_Driver/Src/stm32h7xx_hal_dcmi.c ****   /* Process Locked */
 1433              		.loc 1 815 1 is_stmt 1 view -0
 1434              		.cfi_startproc
 1435              		@ args = 0, pretend = 0, frame = 0
 1436              		@ frame_needed = 0, uses_anonymous_args = 0
 1437              		@ link register save eliminated.
 817:Drivers/STM32H7xx_HAL_Driver/Src/stm32h7xx_hal_dcmi.c **** 
 1438              		.loc 1 817 3 view .LVU488
 817:Drivers/STM32H7xx_HAL_Driver/Src/stm32h7xx_hal_dcmi.c **** 
 1439              		.loc 1 817 3 view .LVU489
 1440 0000 90F83430 		ldrb	r3, [r0, #52]	@ zero_extendqisi2
 1441 0004 012B     		cmp	r3, #1
 1442 0006 11D0     		beq	.L97
 817:Drivers/STM32H7xx_HAL_Driver/Src/stm32h7xx_hal_dcmi.c **** 
 1443              		.loc 1 817 3 discriminator 2 view .LVU490
 1444 0008 0122     		movs	r2, #1
 1445 000a 80F83420 		strb	r2, [r0, #52]
ARM GAS  C:\Users\theto\AppData\Local\Temp\ccKmbcIV.s 			page 55


 817:Drivers/STM32H7xx_HAL_Driver/Src/stm32h7xx_hal_dcmi.c **** 
 1446              		.loc 1 817 3 discriminator 2 view .LVU491
 820:Drivers/STM32H7xx_HAL_Driver/Src/stm32h7xx_hal_dcmi.c **** 
 1447              		.loc 1 820 3 discriminator 2 view .LVU492
 820:Drivers/STM32H7xx_HAL_Driver/Src/stm32h7xx_hal_dcmi.c **** 
 1448              		.loc 1 820 16 is_stmt 0 discriminator 2 view .LVU493
 1449 000e 0223     		movs	r3, #2
 1450 0010 80F83530 		strb	r3, [r0, #53]
 823:Drivers/STM32H7xx_HAL_Driver/Src/stm32h7xx_hal_dcmi.c **** 
 1451              		.loc 1 823 3 is_stmt 1 discriminator 2 view .LVU494
 823:Drivers/STM32H7xx_HAL_Driver/Src/stm32h7xx_hal_dcmi.c **** 
 1452              		.loc 1 823 8 is_stmt 0 discriminator 2 view .LVU495
 1453 0014 0168     		ldr	r1, [r0]
 823:Drivers/STM32H7xx_HAL_Driver/Src/stm32h7xx_hal_dcmi.c **** 
 1454              		.loc 1 823 23 discriminator 2 view .LVU496
 1455 0016 0B68     		ldr	r3, [r1]
 1456 0018 23F00403 		bic	r3, r3, #4
 1457 001c 0B60     		str	r3, [r1]
 826:Drivers/STM32H7xx_HAL_Driver/Src/stm32h7xx_hal_dcmi.c **** 
 1458              		.loc 1 826 3 is_stmt 1 discriminator 2 view .LVU497
 826:Drivers/STM32H7xx_HAL_Driver/Src/stm32h7xx_hal_dcmi.c **** 
 1459              		.loc 1 826 16 is_stmt 0 discriminator 2 view .LVU498
 1460 001e 80F83520 		strb	r2, [r0, #53]
 829:Drivers/STM32H7xx_HAL_Driver/Src/stm32h7xx_hal_dcmi.c **** 
 1461              		.loc 1 829 3 is_stmt 1 discriminator 2 view .LVU499
 829:Drivers/STM32H7xx_HAL_Driver/Src/stm32h7xx_hal_dcmi.c **** 
 1462              		.loc 1 829 3 discriminator 2 view .LVU500
 1463 0022 0023     		movs	r3, #0
 1464 0024 80F83430 		strb	r3, [r0, #52]
 829:Drivers/STM32H7xx_HAL_Driver/Src/stm32h7xx_hal_dcmi.c **** 
 1465              		.loc 1 829 3 discriminator 2 view .LVU501
 831:Drivers/STM32H7xx_HAL_Driver/Src/stm32h7xx_hal_dcmi.c **** }
 1466              		.loc 1 831 3 discriminator 2 view .LVU502
 831:Drivers/STM32H7xx_HAL_Driver/Src/stm32h7xx_hal_dcmi.c **** }
 1467              		.loc 1 831 10 is_stmt 0 discriminator 2 view .LVU503
 1468 0028 1846     		mov	r0, r3
 1469              	.LVL85:
 831:Drivers/STM32H7xx_HAL_Driver/Src/stm32h7xx_hal_dcmi.c **** }
 1470              		.loc 1 831 10 discriminator 2 view .LVU504
 1471 002a 7047     		bx	lr
 1472              	.LVL86:
 1473              	.L97:
 817:Drivers/STM32H7xx_HAL_Driver/Src/stm32h7xx_hal_dcmi.c **** 
 1474              		.loc 1 817 3 view .LVU505
 1475 002c 0220     		movs	r0, #2
 1476              	.LVL87:
 832:Drivers/STM32H7xx_HAL_Driver/Src/stm32h7xx_hal_dcmi.c **** 
 1477              		.loc 1 832 1 view .LVU506
 1478 002e 7047     		bx	lr
 1479              		.cfi_endproc
 1480              	.LFE158:
 1482              		.section	.text.HAL_DCMI_EnableCrop,"ax",%progbits
 1483              		.align	1
 1484              		.global	HAL_DCMI_EnableCrop
 1485              		.syntax unified
 1486              		.thumb
 1487              		.thumb_func
ARM GAS  C:\Users\theto\AppData\Local\Temp\ccKmbcIV.s 			page 56


 1489              	HAL_DCMI_EnableCrop:
 1490              	.LVL88:
 1491              	.LFB159:
 841:Drivers/STM32H7xx_HAL_Driver/Src/stm32h7xx_hal_dcmi.c ****   /* Process Locked */
 1492              		.loc 1 841 1 is_stmt 1 view -0
 1493              		.cfi_startproc
 1494              		@ args = 0, pretend = 0, frame = 0
 1495              		@ frame_needed = 0, uses_anonymous_args = 0
 1496              		@ link register save eliminated.
 843:Drivers/STM32H7xx_HAL_Driver/Src/stm32h7xx_hal_dcmi.c **** 
 1497              		.loc 1 843 3 view .LVU508
 843:Drivers/STM32H7xx_HAL_Driver/Src/stm32h7xx_hal_dcmi.c **** 
 1498              		.loc 1 843 3 view .LVU509
 1499 0000 90F83430 		ldrb	r3, [r0, #52]	@ zero_extendqisi2
 1500 0004 012B     		cmp	r3, #1
 1501 0006 11D0     		beq	.L100
 843:Drivers/STM32H7xx_HAL_Driver/Src/stm32h7xx_hal_dcmi.c **** 
 1502              		.loc 1 843 3 discriminator 2 view .LVU510
 1503 0008 0122     		movs	r2, #1
 1504 000a 80F83420 		strb	r2, [r0, #52]
 843:Drivers/STM32H7xx_HAL_Driver/Src/stm32h7xx_hal_dcmi.c **** 
 1505              		.loc 1 843 3 discriminator 2 view .LVU511
 846:Drivers/STM32H7xx_HAL_Driver/Src/stm32h7xx_hal_dcmi.c **** 
 1506              		.loc 1 846 3 discriminator 2 view .LVU512
 846:Drivers/STM32H7xx_HAL_Driver/Src/stm32h7xx_hal_dcmi.c **** 
 1507              		.loc 1 846 16 is_stmt 0 discriminator 2 view .LVU513
 1508 000e 0223     		movs	r3, #2
 1509 0010 80F83530 		strb	r3, [r0, #53]
 849:Drivers/STM32H7xx_HAL_Driver/Src/stm32h7xx_hal_dcmi.c **** 
 1510              		.loc 1 849 3 is_stmt 1 discriminator 2 view .LVU514
 849:Drivers/STM32H7xx_HAL_Driver/Src/stm32h7xx_hal_dcmi.c **** 
 1511              		.loc 1 849 8 is_stmt 0 discriminator 2 view .LVU515
 1512 0014 0168     		ldr	r1, [r0]
 849:Drivers/STM32H7xx_HAL_Driver/Src/stm32h7xx_hal_dcmi.c **** 
 1513              		.loc 1 849 23 discriminator 2 view .LVU516
 1514 0016 0B68     		ldr	r3, [r1]
 1515 0018 43F00403 		orr	r3, r3, #4
 1516 001c 0B60     		str	r3, [r1]
 852:Drivers/STM32H7xx_HAL_Driver/Src/stm32h7xx_hal_dcmi.c **** 
 1517              		.loc 1 852 3 is_stmt 1 discriminator 2 view .LVU517
 852:Drivers/STM32H7xx_HAL_Driver/Src/stm32h7xx_hal_dcmi.c **** 
 1518              		.loc 1 852 16 is_stmt 0 discriminator 2 view .LVU518
 1519 001e 80F83520 		strb	r2, [r0, #53]
 855:Drivers/STM32H7xx_HAL_Driver/Src/stm32h7xx_hal_dcmi.c **** 
 1520              		.loc 1 855 3 is_stmt 1 discriminator 2 view .LVU519
 855:Drivers/STM32H7xx_HAL_Driver/Src/stm32h7xx_hal_dcmi.c **** 
 1521              		.loc 1 855 3 discriminator 2 view .LVU520
 1522 0022 0023     		movs	r3, #0
 1523 0024 80F83430 		strb	r3, [r0, #52]
 855:Drivers/STM32H7xx_HAL_Driver/Src/stm32h7xx_hal_dcmi.c **** 
 1524              		.loc 1 855 3 discriminator 2 view .LVU521
 857:Drivers/STM32H7xx_HAL_Driver/Src/stm32h7xx_hal_dcmi.c **** }
 1525              		.loc 1 857 3 discriminator 2 view .LVU522
 857:Drivers/STM32H7xx_HAL_Driver/Src/stm32h7xx_hal_dcmi.c **** }
 1526              		.loc 1 857 10 is_stmt 0 discriminator 2 view .LVU523
 1527 0028 1846     		mov	r0, r3
 1528              	.LVL89:
ARM GAS  C:\Users\theto\AppData\Local\Temp\ccKmbcIV.s 			page 57


 857:Drivers/STM32H7xx_HAL_Driver/Src/stm32h7xx_hal_dcmi.c **** }
 1529              		.loc 1 857 10 discriminator 2 view .LVU524
 1530 002a 7047     		bx	lr
 1531              	.LVL90:
 1532              	.L100:
 843:Drivers/STM32H7xx_HAL_Driver/Src/stm32h7xx_hal_dcmi.c **** 
 1533              		.loc 1 843 3 view .LVU525
 1534 002c 0220     		movs	r0, #2
 1535              	.LVL91:
 858:Drivers/STM32H7xx_HAL_Driver/Src/stm32h7xx_hal_dcmi.c **** 
 1536              		.loc 1 858 1 view .LVU526
 1537 002e 7047     		bx	lr
 1538              		.cfi_endproc
 1539              	.LFE159:
 1541              		.section	.text.HAL_DCMI_ConfigSyncUnmask,"ax",%progbits
 1542              		.align	1
 1543              		.global	HAL_DCMI_ConfigSyncUnmask
 1544              		.syntax unified
 1545              		.thumb
 1546              		.thumb_func
 1548              	HAL_DCMI_ConfigSyncUnmask:
 1549              	.LVL92:
 1550              	.LFB160:
 869:Drivers/STM32H7xx_HAL_Driver/Src/stm32h7xx_hal_dcmi.c ****   /* Process Locked */
 1551              		.loc 1 869 1 is_stmt 1 view -0
 1552              		.cfi_startproc
 1553              		@ args = 0, pretend = 0, frame = 0
 1554              		@ frame_needed = 0, uses_anonymous_args = 0
 1555              		@ link register save eliminated.
 871:Drivers/STM32H7xx_HAL_Driver/Src/stm32h7xx_hal_dcmi.c **** 
 1556              		.loc 1 871 3 view .LVU528
 871:Drivers/STM32H7xx_HAL_Driver/Src/stm32h7xx_hal_dcmi.c **** 
 1557              		.loc 1 871 3 view .LVU529
 1558 0000 90F83430 		ldrb	r3, [r0, #52]	@ zero_extendqisi2
 1559 0004 012B     		cmp	r3, #1
 1560 0006 1BD0     		beq	.L103
 871:Drivers/STM32H7xx_HAL_Driver/Src/stm32h7xx_hal_dcmi.c **** 
 1561              		.loc 1 871 3 discriminator 2 view .LVU530
 1562 0008 0122     		movs	r2, #1
 1563 000a 80F83420 		strb	r2, [r0, #52]
 871:Drivers/STM32H7xx_HAL_Driver/Src/stm32h7xx_hal_dcmi.c **** 
 1564              		.loc 1 871 3 discriminator 2 view .LVU531
 874:Drivers/STM32H7xx_HAL_Driver/Src/stm32h7xx_hal_dcmi.c **** 
 1565              		.loc 1 874 3 discriminator 2 view .LVU532
 874:Drivers/STM32H7xx_HAL_Driver/Src/stm32h7xx_hal_dcmi.c **** 
 1566              		.loc 1 874 16 is_stmt 0 discriminator 2 view .LVU533
 1567 000e 0223     		movs	r3, #2
 1568 0010 80F83530 		strb	r3, [r0, #53]
 877:Drivers/STM32H7xx_HAL_Driver/Src/stm32h7xx_hal_dcmi.c ****                            ((uint32_t)SyncUnmask->LineStartUnmask << DCMI_ESUR_LSU_Pos) | \
 1569              		.loc 1 877 3 is_stmt 1 discriminator 2 view .LVU534
 877:Drivers/STM32H7xx_HAL_Driver/Src/stm32h7xx_hal_dcmi.c ****                            ((uint32_t)SyncUnmask->LineStartUnmask << DCMI_ESUR_LSU_Pos) | \
 1570              		.loc 1 877 49 is_stmt 0 discriminator 2 view .LVU535
 1571 0014 0B78     		ldrb	r3, [r1]	@ zero_extendqisi2
 878:Drivers/STM32H7xx_HAL_Driver/Src/stm32h7xx_hal_dcmi.c ****                            ((uint32_t)SyncUnmask->LineEndUnmask << DCMI_ESUR_LEU_Pos) | \
 1572              		.loc 1 878 49 discriminator 2 view .LVU536
 1573 0016 91F801C0 		ldrb	ip, [r1, #1]	@ zero_extendqisi2
 877:Drivers/STM32H7xx_HAL_Driver/Src/stm32h7xx_hal_dcmi.c ****                            ((uint32_t)SyncUnmask->LineStartUnmask << DCMI_ESUR_LSU_Pos) | \
ARM GAS  C:\Users\theto\AppData\Local\Temp\ccKmbcIV.s 			page 58


 1574              		.loc 1 877 69 discriminator 2 view .LVU537
 1575 001a 43EA0C23 		orr	r3, r3, ip, lsl #8
 879:Drivers/STM32H7xx_HAL_Driver/Src/stm32h7xx_hal_dcmi.c ****                            ((uint32_t)SyncUnmask->FrameEndUnmask << DCMI_ESUR_FEU_Pos));
 1576              		.loc 1 879 49 discriminator 2 view .LVU538
 1577 001e 91F802C0 		ldrb	ip, [r1, #2]	@ zero_extendqisi2
 878:Drivers/STM32H7xx_HAL_Driver/Src/stm32h7xx_hal_dcmi.c ****                            ((uint32_t)SyncUnmask->LineEndUnmask << DCMI_ESUR_LEU_Pos) | \
 1578              		.loc 1 878 89 discriminator 2 view .LVU539
 1579 0022 43EA0C43 		orr	r3, r3, ip, lsl #16
 880:Drivers/STM32H7xx_HAL_Driver/Src/stm32h7xx_hal_dcmi.c **** 
 1580              		.loc 1 880 49 discriminator 2 view .LVU540
 1581 0026 91F803C0 		ldrb	ip, [r1, #3]	@ zero_extendqisi2
 877:Drivers/STM32H7xx_HAL_Driver/Src/stm32h7xx_hal_dcmi.c ****                            ((uint32_t)SyncUnmask->LineStartUnmask << DCMI_ESUR_LSU_Pos) | \
 1582              		.loc 1 877 8 discriminator 2 view .LVU541
 1583 002a 0168     		ldr	r1, [r0]
 1584              	.LVL93:
 879:Drivers/STM32H7xx_HAL_Driver/Src/stm32h7xx_hal_dcmi.c ****                            ((uint32_t)SyncUnmask->FrameEndUnmask << DCMI_ESUR_FEU_Pos));
 1585              		.loc 1 879 87 discriminator 2 view .LVU542
 1586 002c 43EA0C63 		orr	r3, r3, ip, lsl #24
 877:Drivers/STM32H7xx_HAL_Driver/Src/stm32h7xx_hal_dcmi.c ****                            ((uint32_t)SyncUnmask->LineStartUnmask << DCMI_ESUR_LSU_Pos) | \
 1587              		.loc 1 877 25 discriminator 2 view .LVU543
 1588 0030 CB61     		str	r3, [r1, #28]
 883:Drivers/STM32H7xx_HAL_Driver/Src/stm32h7xx_hal_dcmi.c **** 
 1589              		.loc 1 883 3 is_stmt 1 discriminator 2 view .LVU544
 883:Drivers/STM32H7xx_HAL_Driver/Src/stm32h7xx_hal_dcmi.c **** 
 1590              		.loc 1 883 16 is_stmt 0 discriminator 2 view .LVU545
 1591 0032 80F83520 		strb	r2, [r0, #53]
 886:Drivers/STM32H7xx_HAL_Driver/Src/stm32h7xx_hal_dcmi.c **** 
 1592              		.loc 1 886 3 is_stmt 1 discriminator 2 view .LVU546
 886:Drivers/STM32H7xx_HAL_Driver/Src/stm32h7xx_hal_dcmi.c **** 
 1593              		.loc 1 886 3 discriminator 2 view .LVU547
 1594 0036 0023     		movs	r3, #0
 1595 0038 80F83430 		strb	r3, [r0, #52]
 886:Drivers/STM32H7xx_HAL_Driver/Src/stm32h7xx_hal_dcmi.c **** 
 1596              		.loc 1 886 3 discriminator 2 view .LVU548
 888:Drivers/STM32H7xx_HAL_Driver/Src/stm32h7xx_hal_dcmi.c **** }
 1597              		.loc 1 888 3 discriminator 2 view .LVU549
 888:Drivers/STM32H7xx_HAL_Driver/Src/stm32h7xx_hal_dcmi.c **** }
 1598              		.loc 1 888 10 is_stmt 0 discriminator 2 view .LVU550
 1599 003c 1846     		mov	r0, r3
 1600              	.LVL94:
 888:Drivers/STM32H7xx_HAL_Driver/Src/stm32h7xx_hal_dcmi.c **** }
 1601              		.loc 1 888 10 discriminator 2 view .LVU551
 1602 003e 7047     		bx	lr
 1603              	.LVL95:
 1604              	.L103:
 871:Drivers/STM32H7xx_HAL_Driver/Src/stm32h7xx_hal_dcmi.c **** 
 1605              		.loc 1 871 3 view .LVU552
 1606 0040 0220     		movs	r0, #2
 1607              	.LVL96:
 889:Drivers/STM32H7xx_HAL_Driver/Src/stm32h7xx_hal_dcmi.c **** 
 1608              		.loc 1 889 1 view .LVU553
 1609 0042 7047     		bx	lr
 1610              		.cfi_endproc
 1611              	.LFE160:
 1613              		.section	.text.HAL_DCMI_GetState,"ax",%progbits
 1614              		.align	1
 1615              		.global	HAL_DCMI_GetState
ARM GAS  C:\Users\theto\AppData\Local\Temp\ccKmbcIV.s 			page 59


 1616              		.syntax unified
 1617              		.thumb
 1618              		.thumb_func
 1620              	HAL_DCMI_GetState:
 1621              	.LVL97:
 1622              	.LFB161:
 918:Drivers/STM32H7xx_HAL_Driver/Src/stm32h7xx_hal_dcmi.c ****   return hdcmi->State;
 1623              		.loc 1 918 1 is_stmt 1 view -0
 1624              		.cfi_startproc
 1625              		@ args = 0, pretend = 0, frame = 0
 1626              		@ frame_needed = 0, uses_anonymous_args = 0
 1627              		@ link register save eliminated.
 919:Drivers/STM32H7xx_HAL_Driver/Src/stm32h7xx_hal_dcmi.c **** }
 1628              		.loc 1 919 3 view .LVU555
 919:Drivers/STM32H7xx_HAL_Driver/Src/stm32h7xx_hal_dcmi.c **** }
 1629              		.loc 1 919 15 is_stmt 0 view .LVU556
 1630 0000 90F83500 		ldrb	r0, [r0, #53]	@ zero_extendqisi2
 1631              	.LVL98:
 920:Drivers/STM32H7xx_HAL_Driver/Src/stm32h7xx_hal_dcmi.c **** 
 1632              		.loc 1 920 1 view .LVU557
 1633 0004 7047     		bx	lr
 1634              		.cfi_endproc
 1635              	.LFE161:
 1637              		.section	.text.HAL_DCMI_GetError,"ax",%progbits
 1638              		.align	1
 1639              		.global	HAL_DCMI_GetError
 1640              		.syntax unified
 1641              		.thumb
 1642              		.thumb_func
 1644              	HAL_DCMI_GetError:
 1645              	.LVL99:
 1646              	.LFB162:
 929:Drivers/STM32H7xx_HAL_Driver/Src/stm32h7xx_hal_dcmi.c ****   return hdcmi->ErrorCode;
 1647              		.loc 1 929 1 is_stmt 1 view -0
 1648              		.cfi_startproc
 1649              		@ args = 0, pretend = 0, frame = 0
 1650              		@ frame_needed = 0, uses_anonymous_args = 0
 1651              		@ link register save eliminated.
 930:Drivers/STM32H7xx_HAL_Driver/Src/stm32h7xx_hal_dcmi.c **** }
 1652              		.loc 1 930 3 view .LVU559
 930:Drivers/STM32H7xx_HAL_Driver/Src/stm32h7xx_hal_dcmi.c **** }
 1653              		.loc 1 930 15 is_stmt 0 view .LVU560
 1654 0000 C06C     		ldr	r0, [r0, #76]
 1655              	.LVL100:
 931:Drivers/STM32H7xx_HAL_Driver/Src/stm32h7xx_hal_dcmi.c **** 
 1656              		.loc 1 931 1 view .LVU561
 1657 0002 7047     		bx	lr
 1658              		.cfi_endproc
 1659              	.LFE162:
 1661              		.text
 1662              	.Letext0:
 1663              		.file 2 "d:\\l\\program\\gcc-arm-none-eabi-10.3\\arm-none-eabi\\include\\machine\\_default_types.h
 1664              		.file 3 "d:\\l\\program\\gcc-arm-none-eabi-10.3\\arm-none-eabi\\include\\sys\\_stdint.h"
 1665              		.file 4 "Drivers/CMSIS/Device/ST/STM32H7xx/Include/stm32h743xx.h"
 1666              		.file 5 "Drivers/STM32H7xx_HAL_Driver/Inc/stm32h7xx_hal_def.h"
 1667              		.file 6 "Drivers/STM32H7xx_HAL_Driver/Inc/stm32h7xx_hal_dma.h"
 1668              		.file 7 "Drivers/STM32H7xx_HAL_Driver/Inc/stm32h7xx_hal_dma_ex.h"
ARM GAS  C:\Users\theto\AppData\Local\Temp\ccKmbcIV.s 			page 60


 1669              		.file 8 "Drivers/STM32H7xx_HAL_Driver/Inc/stm32h7xx_hal_dcmi.h"
 1670              		.file 9 "Drivers/CMSIS/Device/ST/STM32H7xx/Include/system_stm32h7xx.h"
ARM GAS  C:\Users\theto\AppData\Local\Temp\ccKmbcIV.s 			page 61


DEFINED SYMBOLS
                            *ABS*:00000000 stm32h7xx_hal_dcmi.c
C:\Users\theto\AppData\Local\Temp\ccKmbcIV.s:19     .text.DCMI_DMAXferCplt:00000000 $t
C:\Users\theto\AppData\Local\Temp\ccKmbcIV.s:24     .text.DCMI_DMAXferCplt:00000000 DCMI_DMAXferCplt
C:\Users\theto\AppData\Local\Temp\ccKmbcIV.s:198    .text.HAL_DCMI_MspInit:00000000 $t
C:\Users\theto\AppData\Local\Temp\ccKmbcIV.s:204    .text.HAL_DCMI_MspInit:00000000 HAL_DCMI_MspInit
C:\Users\theto\AppData\Local\Temp\ccKmbcIV.s:219    .text.HAL_DCMI_Init:00000000 $t
C:\Users\theto\AppData\Local\Temp\ccKmbcIV.s:225    .text.HAL_DCMI_Init:00000000 HAL_DCMI_Init
C:\Users\theto\AppData\Local\Temp\ccKmbcIV.s:400    .text.HAL_DCMI_Init:0000009c $d
C:\Users\theto\AppData\Local\Temp\ccKmbcIV.s:405    .text.HAL_DCMI_MspDeInit:00000000 $t
C:\Users\theto\AppData\Local\Temp\ccKmbcIV.s:411    .text.HAL_DCMI_MspDeInit:00000000 HAL_DCMI_MspDeInit
C:\Users\theto\AppData\Local\Temp\ccKmbcIV.s:426    .text.HAL_DCMI_DeInit:00000000 $t
C:\Users\theto\AppData\Local\Temp\ccKmbcIV.s:432    .text.HAL_DCMI_DeInit:00000000 HAL_DCMI_DeInit
C:\Users\theto\AppData\Local\Temp\ccKmbcIV.s:468    .text.HAL_DCMI_Start_DMA:00000000 $t
C:\Users\theto\AppData\Local\Temp\ccKmbcIV.s:474    .text.HAL_DCMI_Start_DMA:00000000 HAL_DCMI_Start_DMA
C:\Users\theto\AppData\Local\Temp\ccKmbcIV.s:714    .text.HAL_DCMI_Start_DMA:000000e4 $d
C:\Users\theto\AppData\Local\Temp\ccKmbcIV.s:1073   .text.DCMI_DMAError:00000000 DCMI_DMAError
C:\Users\theto\AppData\Local\Temp\ccKmbcIV.s:720    .text.HAL_DCMI_Stop:00000000 $t
C:\Users\theto\AppData\Local\Temp\ccKmbcIV.s:726    .text.HAL_DCMI_Stop:00000000 HAL_DCMI_Stop
C:\Users\theto\AppData\Local\Temp\ccKmbcIV.s:849    .text.HAL_DCMI_Stop:0000007c $d
C:\Users\theto\AppData\Local\Temp\ccKmbcIV.s:855    .text.HAL_DCMI_Suspend:00000000 $t
C:\Users\theto\AppData\Local\Temp\ccKmbcIV.s:861    .text.HAL_DCMI_Suspend:00000000 HAL_DCMI_Suspend
C:\Users\theto\AppData\Local\Temp\ccKmbcIV.s:975    .text.HAL_DCMI_Suspend:00000070 $d
C:\Users\theto\AppData\Local\Temp\ccKmbcIV.s:981    .text.HAL_DCMI_Resume:00000000 $t
C:\Users\theto\AppData\Local\Temp\ccKmbcIV.s:987    .text.HAL_DCMI_Resume:00000000 HAL_DCMI_Resume
C:\Users\theto\AppData\Local\Temp\ccKmbcIV.s:1047   .text.HAL_DCMI_ErrorCallback:00000000 $t
C:\Users\theto\AppData\Local\Temp\ccKmbcIV.s:1053   .text.HAL_DCMI_ErrorCallback:00000000 HAL_DCMI_ErrorCallback
C:\Users\theto\AppData\Local\Temp\ccKmbcIV.s:1068   .text.DCMI_DMAError:00000000 $t
C:\Users\theto\AppData\Local\Temp\ccKmbcIV.s:1117   .text.HAL_DCMI_LineEventCallback:00000000 $t
C:\Users\theto\AppData\Local\Temp\ccKmbcIV.s:1123   .text.HAL_DCMI_LineEventCallback:00000000 HAL_DCMI_LineEventCallback
C:\Users\theto\AppData\Local\Temp\ccKmbcIV.s:1138   .text.HAL_DCMI_VsyncEventCallback:00000000 $t
C:\Users\theto\AppData\Local\Temp\ccKmbcIV.s:1144   .text.HAL_DCMI_VsyncEventCallback:00000000 HAL_DCMI_VsyncEventCallback
C:\Users\theto\AppData\Local\Temp\ccKmbcIV.s:1159   .text.HAL_DCMI_FrameEventCallback:00000000 $t
C:\Users\theto\AppData\Local\Temp\ccKmbcIV.s:1165   .text.HAL_DCMI_FrameEventCallback:00000000 HAL_DCMI_FrameEventCallback
C:\Users\theto\AppData\Local\Temp\ccKmbcIV.s:1180   .text.HAL_DCMI_IRQHandler:00000000 $t
C:\Users\theto\AppData\Local\Temp\ccKmbcIV.s:1186   .text.HAL_DCMI_IRQHandler:00000000 HAL_DCMI_IRQHandler
C:\Users\theto\AppData\Local\Temp\ccKmbcIV.s:1338   .text.HAL_DCMI_IRQHandler:000000ac $d
C:\Users\theto\AppData\Local\Temp\ccKmbcIV.s:1343   .text.HAL_DCMI_ConfigCrop:00000000 $t
C:\Users\theto\AppData\Local\Temp\ccKmbcIV.s:1349   .text.HAL_DCMI_ConfigCrop:00000000 HAL_DCMI_ConfigCrop
C:\Users\theto\AppData\Local\Temp\ccKmbcIV.s:1424   .text.HAL_DCMI_DisableCrop:00000000 $t
C:\Users\theto\AppData\Local\Temp\ccKmbcIV.s:1430   .text.HAL_DCMI_DisableCrop:00000000 HAL_DCMI_DisableCrop
C:\Users\theto\AppData\Local\Temp\ccKmbcIV.s:1483   .text.HAL_DCMI_EnableCrop:00000000 $t
C:\Users\theto\AppData\Local\Temp\ccKmbcIV.s:1489   .text.HAL_DCMI_EnableCrop:00000000 HAL_DCMI_EnableCrop
C:\Users\theto\AppData\Local\Temp\ccKmbcIV.s:1542   .text.HAL_DCMI_ConfigSyncUnmask:00000000 $t
C:\Users\theto\AppData\Local\Temp\ccKmbcIV.s:1548   .text.HAL_DCMI_ConfigSyncUnmask:00000000 HAL_DCMI_ConfigSyncUnmask
C:\Users\theto\AppData\Local\Temp\ccKmbcIV.s:1614   .text.HAL_DCMI_GetState:00000000 $t
C:\Users\theto\AppData\Local\Temp\ccKmbcIV.s:1620   .text.HAL_DCMI_GetState:00000000 HAL_DCMI_GetState
C:\Users\theto\AppData\Local\Temp\ccKmbcIV.s:1638   .text.HAL_DCMI_GetError:00000000 $t
C:\Users\theto\AppData\Local\Temp\ccKmbcIV.s:1644   .text.HAL_DCMI_GetError:00000000 HAL_DCMI_GetError

UNDEFINED SYMBOLS
HAL_DMAEx_ChangeMemory
HAL_DMA_Start_IT
HAL_DMAEx_MultiBufferStart_IT
HAL_DMA_Abort
SystemCoreClock
HAL_DMA_Abort_IT
ARM GAS  C:\Users\theto\AppData\Local\Temp\ccKmbcIV.s 			page 62


