ARM GAS  C:\Users\theto\AppData\Local\Temp\ccMwxIgN.s 			page 1


   1              		.cpu cortex-m7
   2              		.arch armv7e-m
   3              		.fpu fpv5-d16
   4              		.eabi_attribute 28, 1
   5              		.eabi_attribute 20, 1
   6              		.eabi_attribute 21, 1
   7              		.eabi_attribute 23, 3
   8              		.eabi_attribute 24, 1
   9              		.eabi_attribute 25, 1
  10              		.eabi_attribute 26, 1
  11              		.eabi_attribute 30, 1
  12              		.eabi_attribute 34, 1
  13              		.eabi_attribute 18, 4
  14              		.file	"stm32h7xx_hal_msp.c"
  15              		.text
  16              	.Ltext0:
  17              		.cfi_sections	.debug_frame
  18              		.section	.text.HAL_MspInit,"ax",%progbits
  19              		.align	1
  20              		.global	HAL_MspInit
  21              		.syntax unified
  22              		.thumb
  23              		.thumb_func
  25              	HAL_MspInit:
  26              	.LFB144:
  27              		.file 1 "Src/stm32h7xx_hal_msp.c"
   1:Src/stm32h7xx_hal_msp.c **** /* USER CODE BEGIN Header */
   2:Src/stm32h7xx_hal_msp.c **** /**
   3:Src/stm32h7xx_hal_msp.c ****   ******************************************************************************
   4:Src/stm32h7xx_hal_msp.c ****   * @file         stm32h7xx_hal_msp.c
   5:Src/stm32h7xx_hal_msp.c ****   * @brief        This file provides code for the MSP Initialization
   6:Src/stm32h7xx_hal_msp.c ****   *               and de-Initialization codes.
   7:Src/stm32h7xx_hal_msp.c ****   ******************************************************************************
   8:Src/stm32h7xx_hal_msp.c ****   * @attention
   9:Src/stm32h7xx_hal_msp.c ****   *
  10:Src/stm32h7xx_hal_msp.c ****   * Copyright (c) 2022 STMicroelectronics.
  11:Src/stm32h7xx_hal_msp.c ****   * All rights reserved.
  12:Src/stm32h7xx_hal_msp.c ****   *
  13:Src/stm32h7xx_hal_msp.c ****   * This software is licensed under terms that can be found in the LICENSE file
  14:Src/stm32h7xx_hal_msp.c ****   * in the root directory of this software component.
  15:Src/stm32h7xx_hal_msp.c ****   * If no LICENSE file comes with this software, it is provided AS-IS.
  16:Src/stm32h7xx_hal_msp.c ****   *
  17:Src/stm32h7xx_hal_msp.c ****   ******************************************************************************
  18:Src/stm32h7xx_hal_msp.c ****   */
  19:Src/stm32h7xx_hal_msp.c **** /* USER CODE END Header */
  20:Src/stm32h7xx_hal_msp.c **** 
  21:Src/stm32h7xx_hal_msp.c **** /* Includes ------------------------------------------------------------------*/
  22:Src/stm32h7xx_hal_msp.c **** #include "main.h"
  23:Src/stm32h7xx_hal_msp.c **** /* USER CODE BEGIN Includes */
  24:Src/stm32h7xx_hal_msp.c **** 
  25:Src/stm32h7xx_hal_msp.c **** /* USER CODE END Includes */
  26:Src/stm32h7xx_hal_msp.c **** extern DMA_HandleTypeDef hdma_dcmi;
  27:Src/stm32h7xx_hal_msp.c **** 
  28:Src/stm32h7xx_hal_msp.c **** /* Private typedef -----------------------------------------------------------*/
  29:Src/stm32h7xx_hal_msp.c **** /* USER CODE BEGIN TD */
  30:Src/stm32h7xx_hal_msp.c **** 
  31:Src/stm32h7xx_hal_msp.c **** /* USER CODE END TD */
ARM GAS  C:\Users\theto\AppData\Local\Temp\ccMwxIgN.s 			page 2


  32:Src/stm32h7xx_hal_msp.c **** 
  33:Src/stm32h7xx_hal_msp.c **** /* Private define ------------------------------------------------------------*/
  34:Src/stm32h7xx_hal_msp.c **** /* USER CODE BEGIN Define */
  35:Src/stm32h7xx_hal_msp.c **** 
  36:Src/stm32h7xx_hal_msp.c **** /* USER CODE END Define */
  37:Src/stm32h7xx_hal_msp.c **** 
  38:Src/stm32h7xx_hal_msp.c **** /* Private macro -------------------------------------------------------------*/
  39:Src/stm32h7xx_hal_msp.c **** /* USER CODE BEGIN Macro */
  40:Src/stm32h7xx_hal_msp.c **** 
  41:Src/stm32h7xx_hal_msp.c **** /* USER CODE END Macro */
  42:Src/stm32h7xx_hal_msp.c **** 
  43:Src/stm32h7xx_hal_msp.c **** /* Private variables ---------------------------------------------------------*/
  44:Src/stm32h7xx_hal_msp.c **** /* USER CODE BEGIN PV */
  45:Src/stm32h7xx_hal_msp.c **** 
  46:Src/stm32h7xx_hal_msp.c **** /* USER CODE END PV */
  47:Src/stm32h7xx_hal_msp.c **** 
  48:Src/stm32h7xx_hal_msp.c **** /* Private function prototypes -----------------------------------------------*/
  49:Src/stm32h7xx_hal_msp.c **** /* USER CODE BEGIN PFP */
  50:Src/stm32h7xx_hal_msp.c **** 
  51:Src/stm32h7xx_hal_msp.c **** /* USER CODE END PFP */
  52:Src/stm32h7xx_hal_msp.c **** 
  53:Src/stm32h7xx_hal_msp.c **** /* External functions --------------------------------------------------------*/
  54:Src/stm32h7xx_hal_msp.c **** /* USER CODE BEGIN ExternalFunctions */
  55:Src/stm32h7xx_hal_msp.c **** 
  56:Src/stm32h7xx_hal_msp.c **** /* USER CODE END ExternalFunctions */
  57:Src/stm32h7xx_hal_msp.c **** 
  58:Src/stm32h7xx_hal_msp.c **** /* USER CODE BEGIN 0 */
  59:Src/stm32h7xx_hal_msp.c **** 
  60:Src/stm32h7xx_hal_msp.c **** /* USER CODE END 0 */
  61:Src/stm32h7xx_hal_msp.c **** /**
  62:Src/stm32h7xx_hal_msp.c ****   * Initializes the Global MSP.
  63:Src/stm32h7xx_hal_msp.c ****   */
  64:Src/stm32h7xx_hal_msp.c **** void HAL_MspInit(void)
  65:Src/stm32h7xx_hal_msp.c **** {
  28              		.loc 1 65 1 view -0
  29              		.cfi_startproc
  30              		@ args = 0, pretend = 0, frame = 8
  31              		@ frame_needed = 0, uses_anonymous_args = 0
  32              		@ link register save eliminated.
  33 0000 82B0     		sub	sp, sp, #8
  34              	.LCFI0:
  35              		.cfi_def_cfa_offset 8
  66:Src/stm32h7xx_hal_msp.c ****   /* USER CODE BEGIN MspInit 0 */
  67:Src/stm32h7xx_hal_msp.c **** 
  68:Src/stm32h7xx_hal_msp.c ****   /* USER CODE END MspInit 0 */
  69:Src/stm32h7xx_hal_msp.c **** 
  70:Src/stm32h7xx_hal_msp.c ****   __HAL_RCC_SYSCFG_CLK_ENABLE();
  36              		.loc 1 70 3 view .LVU1
  37              	.LBB2:
  38              		.loc 1 70 3 view .LVU2
  39              		.loc 1 70 3 view .LVU3
  40 0002 074B     		ldr	r3, .L3
  41 0004 D3F8F420 		ldr	r2, [r3, #244]
  42 0008 42F00202 		orr	r2, r2, #2
  43 000c C3F8F420 		str	r2, [r3, #244]
  44              		.loc 1 70 3 view .LVU4
  45 0010 D3F8F430 		ldr	r3, [r3, #244]
ARM GAS  C:\Users\theto\AppData\Local\Temp\ccMwxIgN.s 			page 3


  46 0014 03F00203 		and	r3, r3, #2
  47 0018 0193     		str	r3, [sp, #4]
  48              		.loc 1 70 3 view .LVU5
  49 001a 019B     		ldr	r3, [sp, #4]
  50              	.LBE2:
  51              		.loc 1 70 3 view .LVU6
  71:Src/stm32h7xx_hal_msp.c **** 
  72:Src/stm32h7xx_hal_msp.c ****   /* System interrupt init*/
  73:Src/stm32h7xx_hal_msp.c **** 
  74:Src/stm32h7xx_hal_msp.c ****   /* USER CODE BEGIN MspInit 1 */
  75:Src/stm32h7xx_hal_msp.c **** 
  76:Src/stm32h7xx_hal_msp.c ****   /* USER CODE END MspInit 1 */
  77:Src/stm32h7xx_hal_msp.c **** }
  52              		.loc 1 77 1 is_stmt 0 view .LVU7
  53 001c 02B0     		add	sp, sp, #8
  54              	.LCFI1:
  55              		.cfi_def_cfa_offset 0
  56              		@ sp needed
  57 001e 7047     		bx	lr
  58              	.L4:
  59              		.align	2
  60              	.L3:
  61 0020 00440258 		.word	1476543488
  62              		.cfi_endproc
  63              	.LFE144:
  65              		.section	.text.HAL_DCMI_MspInit,"ax",%progbits
  66              		.align	1
  67              		.global	HAL_DCMI_MspInit
  68              		.syntax unified
  69              		.thumb
  70              		.thumb_func
  72              	HAL_DCMI_MspInit:
  73              	.LVL0:
  74              	.LFB145:
  78:Src/stm32h7xx_hal_msp.c **** 
  79:Src/stm32h7xx_hal_msp.c **** /**
  80:Src/stm32h7xx_hal_msp.c **** * @brief DCMI MSP Initialization
  81:Src/stm32h7xx_hal_msp.c **** * This function configures the hardware resources used in this example
  82:Src/stm32h7xx_hal_msp.c **** * @param hdcmi: DCMI handle pointer
  83:Src/stm32h7xx_hal_msp.c **** * @retval None
  84:Src/stm32h7xx_hal_msp.c **** */
  85:Src/stm32h7xx_hal_msp.c **** void HAL_DCMI_MspInit(DCMI_HandleTypeDef* hdcmi)
  86:Src/stm32h7xx_hal_msp.c **** {
  75              		.loc 1 86 1 is_stmt 1 view -0
  76              		.cfi_startproc
  77              		@ args = 0, pretend = 0, frame = 64
  78              		@ frame_needed = 0, uses_anonymous_args = 0
  79              		.loc 1 86 1 is_stmt 0 view .LVU9
  80 0000 F0B5     		push	{r4, r5, r6, r7, lr}
  81              	.LCFI2:
  82              		.cfi_def_cfa_offset 20
  83              		.cfi_offset 4, -20
  84              		.cfi_offset 5, -16
  85              		.cfi_offset 6, -12
  86              		.cfi_offset 7, -8
  87              		.cfi_offset 14, -4
  88 0002 91B0     		sub	sp, sp, #68
ARM GAS  C:\Users\theto\AppData\Local\Temp\ccMwxIgN.s 			page 4


  89              	.LCFI3:
  90              		.cfi_def_cfa_offset 88
  87:Src/stm32h7xx_hal_msp.c ****   GPIO_InitTypeDef GPIO_InitStruct = {0};
  91              		.loc 1 87 3 is_stmt 1 view .LVU10
  92              		.loc 1 87 20 is_stmt 0 view .LVU11
  93 0004 0023     		movs	r3, #0
  94 0006 0B93     		str	r3, [sp, #44]
  95 0008 0C93     		str	r3, [sp, #48]
  96 000a 0D93     		str	r3, [sp, #52]
  97 000c 0E93     		str	r3, [sp, #56]
  98 000e 0F93     		str	r3, [sp, #60]
  88:Src/stm32h7xx_hal_msp.c ****   HAL_DMA_MuxSyncConfigTypeDef pSyncConfig;
  99              		.loc 1 88 3 is_stmt 1 view .LVU12
  89:Src/stm32h7xx_hal_msp.c ****   if(hdcmi->Instance==DCMI)
 100              		.loc 1 89 3 view .LVU13
 101              		.loc 1 89 11 is_stmt 0 view .LVU14
 102 0010 0268     		ldr	r2, [r0]
 103              		.loc 1 89 5 view .LVU15
 104 0012 5C4B     		ldr	r3, .L13
 105 0014 9A42     		cmp	r2, r3
 106 0016 01D0     		beq	.L10
 107              	.LVL1:
 108              	.L5:
  90:Src/stm32h7xx_hal_msp.c ****   {
  91:Src/stm32h7xx_hal_msp.c ****   /* USER CODE BEGIN DCMI_MspInit 0 */
  92:Src/stm32h7xx_hal_msp.c **** 
  93:Src/stm32h7xx_hal_msp.c ****   /* USER CODE END DCMI_MspInit 0 */
  94:Src/stm32h7xx_hal_msp.c ****     /* Peripheral clock enable */
  95:Src/stm32h7xx_hal_msp.c ****     __HAL_RCC_DCMI_CLK_ENABLE();
  96:Src/stm32h7xx_hal_msp.c **** 
  97:Src/stm32h7xx_hal_msp.c ****     __HAL_RCC_GPIOE_CLK_ENABLE();
  98:Src/stm32h7xx_hal_msp.c ****     __HAL_RCC_GPIOA_CLK_ENABLE();
  99:Src/stm32h7xx_hal_msp.c ****     __HAL_RCC_GPIOC_CLK_ENABLE();
 100:Src/stm32h7xx_hal_msp.c ****     __HAL_RCC_GPIOD_CLK_ENABLE();
 101:Src/stm32h7xx_hal_msp.c ****     __HAL_RCC_GPIOB_CLK_ENABLE();
 102:Src/stm32h7xx_hal_msp.c ****     /**DCMI GPIO Configuration
 103:Src/stm32h7xx_hal_msp.c ****     PE4     ------> DCMI_D4
 104:Src/stm32h7xx_hal_msp.c ****     PE5     ------> DCMI_D6
 105:Src/stm32h7xx_hal_msp.c ****     PE6     ------> DCMI_D7
 106:Src/stm32h7xx_hal_msp.c ****     PA4     ------> DCMI_HSYNC
 107:Src/stm32h7xx_hal_msp.c ****     PA6     ------> DCMI_PIXCLK
 108:Src/stm32h7xx_hal_msp.c ****     PC6     ------> DCMI_D0
 109:Src/stm32h7xx_hal_msp.c ****     PC7     ------> DCMI_D1
 110:Src/stm32h7xx_hal_msp.c ****     PC8     ------> DCMI_D2
 111:Src/stm32h7xx_hal_msp.c ****     PC9     ------> DCMI_D3
 112:Src/stm32h7xx_hal_msp.c ****     PD3     ------> DCMI_D5
 113:Src/stm32h7xx_hal_msp.c ****     PB7     ------> DCMI_VSYNC
 114:Src/stm32h7xx_hal_msp.c ****     */
 115:Src/stm32h7xx_hal_msp.c ****     GPIO_InitStruct.Pin = GPIO_PIN_4|GPIO_PIN_5|GPIO_PIN_6;
 116:Src/stm32h7xx_hal_msp.c ****     GPIO_InitStruct.Mode = GPIO_MODE_AF_PP;
 117:Src/stm32h7xx_hal_msp.c ****     GPIO_InitStruct.Pull = GPIO_NOPULL;
 118:Src/stm32h7xx_hal_msp.c ****     GPIO_InitStruct.Speed = GPIO_SPEED_FREQ_LOW;
 119:Src/stm32h7xx_hal_msp.c ****     GPIO_InitStruct.Alternate = GPIO_AF13_DCMI;
 120:Src/stm32h7xx_hal_msp.c ****     HAL_GPIO_Init(GPIOE, &GPIO_InitStruct);
 121:Src/stm32h7xx_hal_msp.c **** 
 122:Src/stm32h7xx_hal_msp.c ****     GPIO_InitStruct.Pin = GPIO_PIN_4|GPIO_PIN_6;
 123:Src/stm32h7xx_hal_msp.c ****     GPIO_InitStruct.Mode = GPIO_MODE_AF_PP;
ARM GAS  C:\Users\theto\AppData\Local\Temp\ccMwxIgN.s 			page 5


 124:Src/stm32h7xx_hal_msp.c ****     GPIO_InitStruct.Pull = GPIO_NOPULL;
 125:Src/stm32h7xx_hal_msp.c ****     GPIO_InitStruct.Speed = GPIO_SPEED_FREQ_LOW;
 126:Src/stm32h7xx_hal_msp.c ****     GPIO_InitStruct.Alternate = GPIO_AF13_DCMI;
 127:Src/stm32h7xx_hal_msp.c ****     HAL_GPIO_Init(GPIOA, &GPIO_InitStruct);
 128:Src/stm32h7xx_hal_msp.c **** 
 129:Src/stm32h7xx_hal_msp.c ****     GPIO_InitStruct.Pin = GPIO_PIN_6|GPIO_PIN_7|GPIO_PIN_8|GPIO_PIN_9;
 130:Src/stm32h7xx_hal_msp.c ****     GPIO_InitStruct.Mode = GPIO_MODE_AF_PP;
 131:Src/stm32h7xx_hal_msp.c ****     GPIO_InitStruct.Pull = GPIO_NOPULL;
 132:Src/stm32h7xx_hal_msp.c ****     GPIO_InitStruct.Speed = GPIO_SPEED_FREQ_LOW;
 133:Src/stm32h7xx_hal_msp.c ****     GPIO_InitStruct.Alternate = GPIO_AF13_DCMI;
 134:Src/stm32h7xx_hal_msp.c ****     HAL_GPIO_Init(GPIOC, &GPIO_InitStruct);
 135:Src/stm32h7xx_hal_msp.c **** 
 136:Src/stm32h7xx_hal_msp.c ****     GPIO_InitStruct.Pin = GPIO_PIN_3;
 137:Src/stm32h7xx_hal_msp.c ****     GPIO_InitStruct.Mode = GPIO_MODE_AF_PP;
 138:Src/stm32h7xx_hal_msp.c ****     GPIO_InitStruct.Pull = GPIO_NOPULL;
 139:Src/stm32h7xx_hal_msp.c ****     GPIO_InitStruct.Speed = GPIO_SPEED_FREQ_LOW;
 140:Src/stm32h7xx_hal_msp.c ****     GPIO_InitStruct.Alternate = GPIO_AF13_DCMI;
 141:Src/stm32h7xx_hal_msp.c ****     HAL_GPIO_Init(GPIOD, &GPIO_InitStruct);
 142:Src/stm32h7xx_hal_msp.c **** 
 143:Src/stm32h7xx_hal_msp.c ****     GPIO_InitStruct.Pin = GPIO_PIN_7;
 144:Src/stm32h7xx_hal_msp.c ****     GPIO_InitStruct.Mode = GPIO_MODE_AF_PP;
 145:Src/stm32h7xx_hal_msp.c ****     GPIO_InitStruct.Pull = GPIO_NOPULL;
 146:Src/stm32h7xx_hal_msp.c ****     GPIO_InitStruct.Speed = GPIO_SPEED_FREQ_LOW;
 147:Src/stm32h7xx_hal_msp.c ****     GPIO_InitStruct.Alternate = GPIO_AF13_DCMI;
 148:Src/stm32h7xx_hal_msp.c ****     HAL_GPIO_Init(GPIOB, &GPIO_InitStruct);
 149:Src/stm32h7xx_hal_msp.c **** 
 150:Src/stm32h7xx_hal_msp.c ****     /* DCMI DMA Init */
 151:Src/stm32h7xx_hal_msp.c ****     /* DCMI Init */
 152:Src/stm32h7xx_hal_msp.c ****     hdma_dcmi.Instance = DMA1_Stream0;
 153:Src/stm32h7xx_hal_msp.c ****     hdma_dcmi.Init.Request = DMA_REQUEST_DCMI;
 154:Src/stm32h7xx_hal_msp.c ****     hdma_dcmi.Init.Direction = DMA_PERIPH_TO_MEMORY;
 155:Src/stm32h7xx_hal_msp.c ****     hdma_dcmi.Init.PeriphInc = DMA_PINC_DISABLE;
 156:Src/stm32h7xx_hal_msp.c ****     hdma_dcmi.Init.MemInc = DMA_MINC_ENABLE;
 157:Src/stm32h7xx_hal_msp.c ****     hdma_dcmi.Init.PeriphDataAlignment = DMA_PDATAALIGN_WORD;
 158:Src/stm32h7xx_hal_msp.c ****     hdma_dcmi.Init.MemDataAlignment = DMA_MDATAALIGN_WORD;
 159:Src/stm32h7xx_hal_msp.c ****     hdma_dcmi.Init.Mode = DMA_NORMAL;
 160:Src/stm32h7xx_hal_msp.c ****     hdma_dcmi.Init.Priority = DMA_PRIORITY_LOW;
 161:Src/stm32h7xx_hal_msp.c ****     hdma_dcmi.Init.FIFOMode = DMA_FIFOMODE_ENABLE;
 162:Src/stm32h7xx_hal_msp.c ****     hdma_dcmi.Init.FIFOThreshold = DMA_FIFO_THRESHOLD_FULL;
 163:Src/stm32h7xx_hal_msp.c ****     hdma_dcmi.Init.MemBurst = DMA_MBURST_SINGLE;
 164:Src/stm32h7xx_hal_msp.c ****     hdma_dcmi.Init.PeriphBurst = DMA_PBURST_SINGLE;
 165:Src/stm32h7xx_hal_msp.c ****     if (HAL_DMA_Init(&hdma_dcmi) != HAL_OK)
 166:Src/stm32h7xx_hal_msp.c ****     {
 167:Src/stm32h7xx_hal_msp.c ****       Error_Handler();
 168:Src/stm32h7xx_hal_msp.c ****     }
 169:Src/stm32h7xx_hal_msp.c **** 
 170:Src/stm32h7xx_hal_msp.c ****     pSyncConfig.SyncSignalID = HAL_DMAMUX1_SYNC_LPTIM1_OUT;
 171:Src/stm32h7xx_hal_msp.c ****     pSyncConfig.SyncPolarity = HAL_DMAMUX_SYNC_RISING;
 172:Src/stm32h7xx_hal_msp.c ****     pSyncConfig.SyncEnable = ENABLE;
 173:Src/stm32h7xx_hal_msp.c ****     pSyncConfig.EventEnable = DISABLE;
 174:Src/stm32h7xx_hal_msp.c ****     pSyncConfig.RequestNumber = 1;
 175:Src/stm32h7xx_hal_msp.c ****     if (HAL_DMAEx_ConfigMuxSync(&hdma_dcmi, &pSyncConfig) != HAL_OK)
 176:Src/stm32h7xx_hal_msp.c ****     {
 177:Src/stm32h7xx_hal_msp.c ****       Error_Handler();
 178:Src/stm32h7xx_hal_msp.c ****     }
 179:Src/stm32h7xx_hal_msp.c **** 
 180:Src/stm32h7xx_hal_msp.c ****     __HAL_LINKDMA(hdcmi,DMA_Handle,hdma_dcmi);
ARM GAS  C:\Users\theto\AppData\Local\Temp\ccMwxIgN.s 			page 6


 181:Src/stm32h7xx_hal_msp.c **** 
 182:Src/stm32h7xx_hal_msp.c ****   /* USER CODE BEGIN DCMI_MspInit 1 */
 183:Src/stm32h7xx_hal_msp.c **** 
 184:Src/stm32h7xx_hal_msp.c ****   /* USER CODE END DCMI_MspInit 1 */
 185:Src/stm32h7xx_hal_msp.c ****   }
 186:Src/stm32h7xx_hal_msp.c **** 
 187:Src/stm32h7xx_hal_msp.c **** }
 109              		.loc 1 187 1 view .LVU16
 110 0018 11B0     		add	sp, sp, #68
 111              	.LCFI4:
 112              		.cfi_remember_state
 113              		.cfi_def_cfa_offset 20
 114              		@ sp needed
 115 001a F0BD     		pop	{r4, r5, r6, r7, pc}
 116              	.LVL2:
 117              	.L10:
 118              	.LCFI5:
 119              		.cfi_restore_state
 120              		.loc 1 187 1 view .LVU17
 121 001c 0446     		mov	r4, r0
  95:Src/stm32h7xx_hal_msp.c **** 
 122              		.loc 1 95 5 is_stmt 1 view .LVU18
 123              	.LBB3:
  95:Src/stm32h7xx_hal_msp.c **** 
 124              		.loc 1 95 5 view .LVU19
  95:Src/stm32h7xx_hal_msp.c **** 
 125              		.loc 1 95 5 view .LVU20
 126 001e 5A4B     		ldr	r3, .L13+4
 127 0020 D3F8DC20 		ldr	r2, [r3, #220]
 128 0024 42F00102 		orr	r2, r2, #1
 129 0028 C3F8DC20 		str	r2, [r3, #220]
  95:Src/stm32h7xx_hal_msp.c **** 
 130              		.loc 1 95 5 view .LVU21
 131 002c D3F8DC20 		ldr	r2, [r3, #220]
 132 0030 02F00102 		and	r2, r2, #1
 133 0034 0192     		str	r2, [sp, #4]
  95:Src/stm32h7xx_hal_msp.c **** 
 134              		.loc 1 95 5 view .LVU22
 135 0036 019A     		ldr	r2, [sp, #4]
 136              	.LBE3:
  95:Src/stm32h7xx_hal_msp.c **** 
 137              		.loc 1 95 5 view .LVU23
  97:Src/stm32h7xx_hal_msp.c ****     __HAL_RCC_GPIOA_CLK_ENABLE();
 138              		.loc 1 97 5 view .LVU24
 139              	.LBB4:
  97:Src/stm32h7xx_hal_msp.c ****     __HAL_RCC_GPIOA_CLK_ENABLE();
 140              		.loc 1 97 5 view .LVU25
  97:Src/stm32h7xx_hal_msp.c ****     __HAL_RCC_GPIOA_CLK_ENABLE();
 141              		.loc 1 97 5 view .LVU26
 142 0038 D3F8E020 		ldr	r2, [r3, #224]
 143 003c 42F01002 		orr	r2, r2, #16
 144 0040 C3F8E020 		str	r2, [r3, #224]
  97:Src/stm32h7xx_hal_msp.c ****     __HAL_RCC_GPIOA_CLK_ENABLE();
 145              		.loc 1 97 5 view .LVU27
 146 0044 D3F8E020 		ldr	r2, [r3, #224]
 147 0048 02F01002 		and	r2, r2, #16
 148 004c 0292     		str	r2, [sp, #8]
ARM GAS  C:\Users\theto\AppData\Local\Temp\ccMwxIgN.s 			page 7


  97:Src/stm32h7xx_hal_msp.c ****     __HAL_RCC_GPIOA_CLK_ENABLE();
 149              		.loc 1 97 5 view .LVU28
 150 004e 029A     		ldr	r2, [sp, #8]
 151              	.LBE4:
  97:Src/stm32h7xx_hal_msp.c ****     __HAL_RCC_GPIOA_CLK_ENABLE();
 152              		.loc 1 97 5 view .LVU29
  98:Src/stm32h7xx_hal_msp.c ****     __HAL_RCC_GPIOC_CLK_ENABLE();
 153              		.loc 1 98 5 view .LVU30
 154              	.LBB5:
  98:Src/stm32h7xx_hal_msp.c ****     __HAL_RCC_GPIOC_CLK_ENABLE();
 155              		.loc 1 98 5 view .LVU31
  98:Src/stm32h7xx_hal_msp.c ****     __HAL_RCC_GPIOC_CLK_ENABLE();
 156              		.loc 1 98 5 view .LVU32
 157 0050 D3F8E020 		ldr	r2, [r3, #224]
 158 0054 42F00102 		orr	r2, r2, #1
 159 0058 C3F8E020 		str	r2, [r3, #224]
  98:Src/stm32h7xx_hal_msp.c ****     __HAL_RCC_GPIOC_CLK_ENABLE();
 160              		.loc 1 98 5 view .LVU33
 161 005c D3F8E020 		ldr	r2, [r3, #224]
 162 0060 02F00102 		and	r2, r2, #1
 163 0064 0392     		str	r2, [sp, #12]
  98:Src/stm32h7xx_hal_msp.c ****     __HAL_RCC_GPIOC_CLK_ENABLE();
 164              		.loc 1 98 5 view .LVU34
 165 0066 039A     		ldr	r2, [sp, #12]
 166              	.LBE5:
  98:Src/stm32h7xx_hal_msp.c ****     __HAL_RCC_GPIOC_CLK_ENABLE();
 167              		.loc 1 98 5 view .LVU35
  99:Src/stm32h7xx_hal_msp.c ****     __HAL_RCC_GPIOD_CLK_ENABLE();
 168              		.loc 1 99 5 view .LVU36
 169              	.LBB6:
  99:Src/stm32h7xx_hal_msp.c ****     __HAL_RCC_GPIOD_CLK_ENABLE();
 170              		.loc 1 99 5 view .LVU37
  99:Src/stm32h7xx_hal_msp.c ****     __HAL_RCC_GPIOD_CLK_ENABLE();
 171              		.loc 1 99 5 view .LVU38
 172 0068 D3F8E020 		ldr	r2, [r3, #224]
 173 006c 42F00402 		orr	r2, r2, #4
 174 0070 C3F8E020 		str	r2, [r3, #224]
  99:Src/stm32h7xx_hal_msp.c ****     __HAL_RCC_GPIOD_CLK_ENABLE();
 175              		.loc 1 99 5 view .LVU39
 176 0074 D3F8E020 		ldr	r2, [r3, #224]
 177 0078 02F00402 		and	r2, r2, #4
 178 007c 0492     		str	r2, [sp, #16]
  99:Src/stm32h7xx_hal_msp.c ****     __HAL_RCC_GPIOD_CLK_ENABLE();
 179              		.loc 1 99 5 view .LVU40
 180 007e 049A     		ldr	r2, [sp, #16]
 181              	.LBE6:
  99:Src/stm32h7xx_hal_msp.c ****     __HAL_RCC_GPIOD_CLK_ENABLE();
 182              		.loc 1 99 5 view .LVU41
 100:Src/stm32h7xx_hal_msp.c ****     __HAL_RCC_GPIOB_CLK_ENABLE();
 183              		.loc 1 100 5 view .LVU42
 184              	.LBB7:
 100:Src/stm32h7xx_hal_msp.c ****     __HAL_RCC_GPIOB_CLK_ENABLE();
 185              		.loc 1 100 5 view .LVU43
 100:Src/stm32h7xx_hal_msp.c ****     __HAL_RCC_GPIOB_CLK_ENABLE();
 186              		.loc 1 100 5 view .LVU44
 187 0080 D3F8E020 		ldr	r2, [r3, #224]
 188 0084 42F00802 		orr	r2, r2, #8
ARM GAS  C:\Users\theto\AppData\Local\Temp\ccMwxIgN.s 			page 8


 189 0088 C3F8E020 		str	r2, [r3, #224]
 100:Src/stm32h7xx_hal_msp.c ****     __HAL_RCC_GPIOB_CLK_ENABLE();
 190              		.loc 1 100 5 view .LVU45
 191 008c D3F8E020 		ldr	r2, [r3, #224]
 192 0090 02F00802 		and	r2, r2, #8
 193 0094 0592     		str	r2, [sp, #20]
 100:Src/stm32h7xx_hal_msp.c ****     __HAL_RCC_GPIOB_CLK_ENABLE();
 194              		.loc 1 100 5 view .LVU46
 195 0096 059A     		ldr	r2, [sp, #20]
 196              	.LBE7:
 100:Src/stm32h7xx_hal_msp.c ****     __HAL_RCC_GPIOB_CLK_ENABLE();
 197              		.loc 1 100 5 view .LVU47
 101:Src/stm32h7xx_hal_msp.c ****     /**DCMI GPIO Configuration
 198              		.loc 1 101 5 view .LVU48
 199              	.LBB8:
 101:Src/stm32h7xx_hal_msp.c ****     /**DCMI GPIO Configuration
 200              		.loc 1 101 5 view .LVU49
 101:Src/stm32h7xx_hal_msp.c ****     /**DCMI GPIO Configuration
 201              		.loc 1 101 5 view .LVU50
 202 0098 D3F8E020 		ldr	r2, [r3, #224]
 203 009c 42F00202 		orr	r2, r2, #2
 204 00a0 C3F8E020 		str	r2, [r3, #224]
 101:Src/stm32h7xx_hal_msp.c ****     /**DCMI GPIO Configuration
 205              		.loc 1 101 5 view .LVU51
 206 00a4 D3F8E030 		ldr	r3, [r3, #224]
 207 00a8 03F00203 		and	r3, r3, #2
 208 00ac 0693     		str	r3, [sp, #24]
 101:Src/stm32h7xx_hal_msp.c ****     /**DCMI GPIO Configuration
 209              		.loc 1 101 5 view .LVU52
 210 00ae 069B     		ldr	r3, [sp, #24]
 211              	.LBE8:
 101:Src/stm32h7xx_hal_msp.c ****     /**DCMI GPIO Configuration
 212              		.loc 1 101 5 view .LVU53
 115:Src/stm32h7xx_hal_msp.c ****     GPIO_InitStruct.Mode = GPIO_MODE_AF_PP;
 213              		.loc 1 115 5 view .LVU54
 115:Src/stm32h7xx_hal_msp.c ****     GPIO_InitStruct.Mode = GPIO_MODE_AF_PP;
 214              		.loc 1 115 25 is_stmt 0 view .LVU55
 215 00b0 7023     		movs	r3, #112
 216 00b2 0B93     		str	r3, [sp, #44]
 116:Src/stm32h7xx_hal_msp.c ****     GPIO_InitStruct.Pull = GPIO_NOPULL;
 217              		.loc 1 116 5 is_stmt 1 view .LVU56
 116:Src/stm32h7xx_hal_msp.c ****     GPIO_InitStruct.Pull = GPIO_NOPULL;
 218              		.loc 1 116 26 is_stmt 0 view .LVU57
 219 00b4 0227     		movs	r7, #2
 220 00b6 0C97     		str	r7, [sp, #48]
 117:Src/stm32h7xx_hal_msp.c ****     GPIO_InitStruct.Speed = GPIO_SPEED_FREQ_LOW;
 221              		.loc 1 117 5 is_stmt 1 view .LVU58
 118:Src/stm32h7xx_hal_msp.c ****     GPIO_InitStruct.Alternate = GPIO_AF13_DCMI;
 222              		.loc 1 118 5 view .LVU59
 119:Src/stm32h7xx_hal_msp.c ****     HAL_GPIO_Init(GPIOE, &GPIO_InitStruct);
 223              		.loc 1 119 5 view .LVU60
 119:Src/stm32h7xx_hal_msp.c ****     HAL_GPIO_Init(GPIOE, &GPIO_InitStruct);
 224              		.loc 1 119 31 is_stmt 0 view .LVU61
 225 00b8 0D26     		movs	r6, #13
 226 00ba 0F96     		str	r6, [sp, #60]
 120:Src/stm32h7xx_hal_msp.c **** 
 227              		.loc 1 120 5 is_stmt 1 view .LVU62
ARM GAS  C:\Users\theto\AppData\Local\Temp\ccMwxIgN.s 			page 9


 228 00bc 0BA9     		add	r1, sp, #44
 229 00be 3348     		ldr	r0, .L13+8
 230              	.LVL3:
 120:Src/stm32h7xx_hal_msp.c **** 
 231              		.loc 1 120 5 is_stmt 0 view .LVU63
 232 00c0 FFF7FEFF 		bl	HAL_GPIO_Init
 233              	.LVL4:
 122:Src/stm32h7xx_hal_msp.c ****     GPIO_InitStruct.Mode = GPIO_MODE_AF_PP;
 234              		.loc 1 122 5 is_stmt 1 view .LVU64
 122:Src/stm32h7xx_hal_msp.c ****     GPIO_InitStruct.Mode = GPIO_MODE_AF_PP;
 235              		.loc 1 122 25 is_stmt 0 view .LVU65
 236 00c4 5023     		movs	r3, #80
 237 00c6 0B93     		str	r3, [sp, #44]
 123:Src/stm32h7xx_hal_msp.c ****     GPIO_InitStruct.Pull = GPIO_NOPULL;
 238              		.loc 1 123 5 is_stmt 1 view .LVU66
 123:Src/stm32h7xx_hal_msp.c ****     GPIO_InitStruct.Pull = GPIO_NOPULL;
 239              		.loc 1 123 26 is_stmt 0 view .LVU67
 240 00c8 0C97     		str	r7, [sp, #48]
 124:Src/stm32h7xx_hal_msp.c ****     GPIO_InitStruct.Speed = GPIO_SPEED_FREQ_LOW;
 241              		.loc 1 124 5 is_stmt 1 view .LVU68
 124:Src/stm32h7xx_hal_msp.c ****     GPIO_InitStruct.Speed = GPIO_SPEED_FREQ_LOW;
 242              		.loc 1 124 26 is_stmt 0 view .LVU69
 243 00ca 0025     		movs	r5, #0
 244 00cc 0D95     		str	r5, [sp, #52]
 125:Src/stm32h7xx_hal_msp.c ****     GPIO_InitStruct.Alternate = GPIO_AF13_DCMI;
 245              		.loc 1 125 5 is_stmt 1 view .LVU70
 125:Src/stm32h7xx_hal_msp.c ****     GPIO_InitStruct.Alternate = GPIO_AF13_DCMI;
 246              		.loc 1 125 27 is_stmt 0 view .LVU71
 247 00ce 0E95     		str	r5, [sp, #56]
 126:Src/stm32h7xx_hal_msp.c ****     HAL_GPIO_Init(GPIOA, &GPIO_InitStruct);
 248              		.loc 1 126 5 is_stmt 1 view .LVU72
 126:Src/stm32h7xx_hal_msp.c ****     HAL_GPIO_Init(GPIOA, &GPIO_InitStruct);
 249              		.loc 1 126 31 is_stmt 0 view .LVU73
 250 00d0 0F96     		str	r6, [sp, #60]
 127:Src/stm32h7xx_hal_msp.c **** 
 251              		.loc 1 127 5 is_stmt 1 view .LVU74
 252 00d2 0BA9     		add	r1, sp, #44
 253 00d4 2E48     		ldr	r0, .L13+12
 254 00d6 FFF7FEFF 		bl	HAL_GPIO_Init
 255              	.LVL5:
 129:Src/stm32h7xx_hal_msp.c ****     GPIO_InitStruct.Mode = GPIO_MODE_AF_PP;
 256              		.loc 1 129 5 view .LVU75
 129:Src/stm32h7xx_hal_msp.c ****     GPIO_InitStruct.Mode = GPIO_MODE_AF_PP;
 257              		.loc 1 129 25 is_stmt 0 view .LVU76
 258 00da 4FF47073 		mov	r3, #960
 259 00de 0B93     		str	r3, [sp, #44]
 130:Src/stm32h7xx_hal_msp.c ****     GPIO_InitStruct.Pull = GPIO_NOPULL;
 260              		.loc 1 130 5 is_stmt 1 view .LVU77
 130:Src/stm32h7xx_hal_msp.c ****     GPIO_InitStruct.Pull = GPIO_NOPULL;
 261              		.loc 1 130 26 is_stmt 0 view .LVU78
 262 00e0 0C97     		str	r7, [sp, #48]
 131:Src/stm32h7xx_hal_msp.c ****     GPIO_InitStruct.Speed = GPIO_SPEED_FREQ_LOW;
 263              		.loc 1 131 5 is_stmt 1 view .LVU79
 131:Src/stm32h7xx_hal_msp.c ****     GPIO_InitStruct.Speed = GPIO_SPEED_FREQ_LOW;
 264              		.loc 1 131 26 is_stmt 0 view .LVU80
 265 00e2 0D95     		str	r5, [sp, #52]
 132:Src/stm32h7xx_hal_msp.c ****     GPIO_InitStruct.Alternate = GPIO_AF13_DCMI;
ARM GAS  C:\Users\theto\AppData\Local\Temp\ccMwxIgN.s 			page 10


 266              		.loc 1 132 5 is_stmt 1 view .LVU81
 132:Src/stm32h7xx_hal_msp.c ****     GPIO_InitStruct.Alternate = GPIO_AF13_DCMI;
 267              		.loc 1 132 27 is_stmt 0 view .LVU82
 268 00e4 0E95     		str	r5, [sp, #56]
 133:Src/stm32h7xx_hal_msp.c ****     HAL_GPIO_Init(GPIOC, &GPIO_InitStruct);
 269              		.loc 1 133 5 is_stmt 1 view .LVU83
 133:Src/stm32h7xx_hal_msp.c ****     HAL_GPIO_Init(GPIOC, &GPIO_InitStruct);
 270              		.loc 1 133 31 is_stmt 0 view .LVU84
 271 00e6 0F96     		str	r6, [sp, #60]
 134:Src/stm32h7xx_hal_msp.c **** 
 272              		.loc 1 134 5 is_stmt 1 view .LVU85
 273 00e8 0BA9     		add	r1, sp, #44
 274 00ea 2A48     		ldr	r0, .L13+16
 275 00ec FFF7FEFF 		bl	HAL_GPIO_Init
 276              	.LVL6:
 136:Src/stm32h7xx_hal_msp.c ****     GPIO_InitStruct.Mode = GPIO_MODE_AF_PP;
 277              		.loc 1 136 5 view .LVU86
 136:Src/stm32h7xx_hal_msp.c ****     GPIO_InitStruct.Mode = GPIO_MODE_AF_PP;
 278              		.loc 1 136 25 is_stmt 0 view .LVU87
 279 00f0 0823     		movs	r3, #8
 280 00f2 0B93     		str	r3, [sp, #44]
 137:Src/stm32h7xx_hal_msp.c ****     GPIO_InitStruct.Pull = GPIO_NOPULL;
 281              		.loc 1 137 5 is_stmt 1 view .LVU88
 137:Src/stm32h7xx_hal_msp.c ****     GPIO_InitStruct.Pull = GPIO_NOPULL;
 282              		.loc 1 137 26 is_stmt 0 view .LVU89
 283 00f4 0C97     		str	r7, [sp, #48]
 138:Src/stm32h7xx_hal_msp.c ****     GPIO_InitStruct.Speed = GPIO_SPEED_FREQ_LOW;
 284              		.loc 1 138 5 is_stmt 1 view .LVU90
 138:Src/stm32h7xx_hal_msp.c ****     GPIO_InitStruct.Speed = GPIO_SPEED_FREQ_LOW;
 285              		.loc 1 138 26 is_stmt 0 view .LVU91
 286 00f6 0D95     		str	r5, [sp, #52]
 139:Src/stm32h7xx_hal_msp.c ****     GPIO_InitStruct.Alternate = GPIO_AF13_DCMI;
 287              		.loc 1 139 5 is_stmt 1 view .LVU92
 139:Src/stm32h7xx_hal_msp.c ****     GPIO_InitStruct.Alternate = GPIO_AF13_DCMI;
 288              		.loc 1 139 27 is_stmt 0 view .LVU93
 289 00f8 0E95     		str	r5, [sp, #56]
 140:Src/stm32h7xx_hal_msp.c ****     HAL_GPIO_Init(GPIOD, &GPIO_InitStruct);
 290              		.loc 1 140 5 is_stmt 1 view .LVU94
 140:Src/stm32h7xx_hal_msp.c ****     HAL_GPIO_Init(GPIOD, &GPIO_InitStruct);
 291              		.loc 1 140 31 is_stmt 0 view .LVU95
 292 00fa 0F96     		str	r6, [sp, #60]
 141:Src/stm32h7xx_hal_msp.c **** 
 293              		.loc 1 141 5 is_stmt 1 view .LVU96
 294 00fc 0BA9     		add	r1, sp, #44
 295 00fe 2648     		ldr	r0, .L13+20
 296 0100 FFF7FEFF 		bl	HAL_GPIO_Init
 297              	.LVL7:
 143:Src/stm32h7xx_hal_msp.c ****     GPIO_InitStruct.Mode = GPIO_MODE_AF_PP;
 298              		.loc 1 143 5 view .LVU97
 143:Src/stm32h7xx_hal_msp.c ****     GPIO_InitStruct.Mode = GPIO_MODE_AF_PP;
 299              		.loc 1 143 25 is_stmt 0 view .LVU98
 300 0104 8023     		movs	r3, #128
 301 0106 0B93     		str	r3, [sp, #44]
 144:Src/stm32h7xx_hal_msp.c ****     GPIO_InitStruct.Pull = GPIO_NOPULL;
 302              		.loc 1 144 5 is_stmt 1 view .LVU99
 144:Src/stm32h7xx_hal_msp.c ****     GPIO_InitStruct.Pull = GPIO_NOPULL;
 303              		.loc 1 144 26 is_stmt 0 view .LVU100
ARM GAS  C:\Users\theto\AppData\Local\Temp\ccMwxIgN.s 			page 11


 304 0108 0C97     		str	r7, [sp, #48]
 145:Src/stm32h7xx_hal_msp.c ****     GPIO_InitStruct.Speed = GPIO_SPEED_FREQ_LOW;
 305              		.loc 1 145 5 is_stmt 1 view .LVU101
 145:Src/stm32h7xx_hal_msp.c ****     GPIO_InitStruct.Speed = GPIO_SPEED_FREQ_LOW;
 306              		.loc 1 145 26 is_stmt 0 view .LVU102
 307 010a 0D95     		str	r5, [sp, #52]
 146:Src/stm32h7xx_hal_msp.c ****     GPIO_InitStruct.Alternate = GPIO_AF13_DCMI;
 308              		.loc 1 146 5 is_stmt 1 view .LVU103
 146:Src/stm32h7xx_hal_msp.c ****     GPIO_InitStruct.Alternate = GPIO_AF13_DCMI;
 309              		.loc 1 146 27 is_stmt 0 view .LVU104
 310 010c 0E95     		str	r5, [sp, #56]
 147:Src/stm32h7xx_hal_msp.c ****     HAL_GPIO_Init(GPIOB, &GPIO_InitStruct);
 311              		.loc 1 147 5 is_stmt 1 view .LVU105
 147:Src/stm32h7xx_hal_msp.c ****     HAL_GPIO_Init(GPIOB, &GPIO_InitStruct);
 312              		.loc 1 147 31 is_stmt 0 view .LVU106
 313 010e 0F96     		str	r6, [sp, #60]
 148:Src/stm32h7xx_hal_msp.c **** 
 314              		.loc 1 148 5 is_stmt 1 view .LVU107
 315 0110 0BA9     		add	r1, sp, #44
 316 0112 2248     		ldr	r0, .L13+24
 317 0114 FFF7FEFF 		bl	HAL_GPIO_Init
 318              	.LVL8:
 152:Src/stm32h7xx_hal_msp.c ****     hdma_dcmi.Init.Request = DMA_REQUEST_DCMI;
 319              		.loc 1 152 5 view .LVU108
 152:Src/stm32h7xx_hal_msp.c ****     hdma_dcmi.Init.Request = DMA_REQUEST_DCMI;
 320              		.loc 1 152 24 is_stmt 0 view .LVU109
 321 0118 2148     		ldr	r0, .L13+28
 322 011a 224B     		ldr	r3, .L13+32
 323 011c 0360     		str	r3, [r0]
 153:Src/stm32h7xx_hal_msp.c ****     hdma_dcmi.Init.Direction = DMA_PERIPH_TO_MEMORY;
 324              		.loc 1 153 5 is_stmt 1 view .LVU110
 153:Src/stm32h7xx_hal_msp.c ****     hdma_dcmi.Init.Direction = DMA_PERIPH_TO_MEMORY;
 325              		.loc 1 153 28 is_stmt 0 view .LVU111
 326 011e 4B23     		movs	r3, #75
 327 0120 4360     		str	r3, [r0, #4]
 154:Src/stm32h7xx_hal_msp.c ****     hdma_dcmi.Init.PeriphInc = DMA_PINC_DISABLE;
 328              		.loc 1 154 5 is_stmt 1 view .LVU112
 154:Src/stm32h7xx_hal_msp.c ****     hdma_dcmi.Init.PeriphInc = DMA_PINC_DISABLE;
 329              		.loc 1 154 30 is_stmt 0 view .LVU113
 330 0122 8560     		str	r5, [r0, #8]
 155:Src/stm32h7xx_hal_msp.c ****     hdma_dcmi.Init.MemInc = DMA_MINC_ENABLE;
 331              		.loc 1 155 5 is_stmt 1 view .LVU114
 155:Src/stm32h7xx_hal_msp.c ****     hdma_dcmi.Init.MemInc = DMA_MINC_ENABLE;
 332              		.loc 1 155 30 is_stmt 0 view .LVU115
 333 0124 C560     		str	r5, [r0, #12]
 156:Src/stm32h7xx_hal_msp.c ****     hdma_dcmi.Init.PeriphDataAlignment = DMA_PDATAALIGN_WORD;
 334              		.loc 1 156 5 is_stmt 1 view .LVU116
 156:Src/stm32h7xx_hal_msp.c ****     hdma_dcmi.Init.PeriphDataAlignment = DMA_PDATAALIGN_WORD;
 335              		.loc 1 156 27 is_stmt 0 view .LVU117
 336 0126 4FF48063 		mov	r3, #1024
 337 012a 0361     		str	r3, [r0, #16]
 157:Src/stm32h7xx_hal_msp.c ****     hdma_dcmi.Init.MemDataAlignment = DMA_MDATAALIGN_WORD;
 338              		.loc 1 157 5 is_stmt 1 view .LVU118
 157:Src/stm32h7xx_hal_msp.c ****     hdma_dcmi.Init.MemDataAlignment = DMA_MDATAALIGN_WORD;
 339              		.loc 1 157 40 is_stmt 0 view .LVU119
 340 012c 4FF48053 		mov	r3, #4096
 341 0130 4361     		str	r3, [r0, #20]
ARM GAS  C:\Users\theto\AppData\Local\Temp\ccMwxIgN.s 			page 12


 158:Src/stm32h7xx_hal_msp.c ****     hdma_dcmi.Init.Mode = DMA_NORMAL;
 342              		.loc 1 158 5 is_stmt 1 view .LVU120
 158:Src/stm32h7xx_hal_msp.c ****     hdma_dcmi.Init.Mode = DMA_NORMAL;
 343              		.loc 1 158 37 is_stmt 0 view .LVU121
 344 0132 4FF48043 		mov	r3, #16384
 345 0136 8361     		str	r3, [r0, #24]
 159:Src/stm32h7xx_hal_msp.c ****     hdma_dcmi.Init.Priority = DMA_PRIORITY_LOW;
 346              		.loc 1 159 5 is_stmt 1 view .LVU122
 159:Src/stm32h7xx_hal_msp.c ****     hdma_dcmi.Init.Priority = DMA_PRIORITY_LOW;
 347              		.loc 1 159 25 is_stmt 0 view .LVU123
 348 0138 C561     		str	r5, [r0, #28]
 160:Src/stm32h7xx_hal_msp.c ****     hdma_dcmi.Init.FIFOMode = DMA_FIFOMODE_ENABLE;
 349              		.loc 1 160 5 is_stmt 1 view .LVU124
 160:Src/stm32h7xx_hal_msp.c ****     hdma_dcmi.Init.FIFOMode = DMA_FIFOMODE_ENABLE;
 350              		.loc 1 160 29 is_stmt 0 view .LVU125
 351 013a 0562     		str	r5, [r0, #32]
 161:Src/stm32h7xx_hal_msp.c ****     hdma_dcmi.Init.FIFOThreshold = DMA_FIFO_THRESHOLD_FULL;
 352              		.loc 1 161 5 is_stmt 1 view .LVU126
 161:Src/stm32h7xx_hal_msp.c ****     hdma_dcmi.Init.FIFOThreshold = DMA_FIFO_THRESHOLD_FULL;
 353              		.loc 1 161 29 is_stmt 0 view .LVU127
 354 013c 0423     		movs	r3, #4
 355 013e 4362     		str	r3, [r0, #36]
 162:Src/stm32h7xx_hal_msp.c ****     hdma_dcmi.Init.MemBurst = DMA_MBURST_SINGLE;
 356              		.loc 1 162 5 is_stmt 1 view .LVU128
 162:Src/stm32h7xx_hal_msp.c ****     hdma_dcmi.Init.MemBurst = DMA_MBURST_SINGLE;
 357              		.loc 1 162 34 is_stmt 0 view .LVU129
 358 0140 0323     		movs	r3, #3
 359 0142 8362     		str	r3, [r0, #40]
 163:Src/stm32h7xx_hal_msp.c ****     hdma_dcmi.Init.PeriphBurst = DMA_PBURST_SINGLE;
 360              		.loc 1 163 5 is_stmt 1 view .LVU130
 163:Src/stm32h7xx_hal_msp.c ****     hdma_dcmi.Init.PeriphBurst = DMA_PBURST_SINGLE;
 361              		.loc 1 163 29 is_stmt 0 view .LVU131
 362 0144 C562     		str	r5, [r0, #44]
 164:Src/stm32h7xx_hal_msp.c ****     if (HAL_DMA_Init(&hdma_dcmi) != HAL_OK)
 363              		.loc 1 164 5 is_stmt 1 view .LVU132
 164:Src/stm32h7xx_hal_msp.c ****     if (HAL_DMA_Init(&hdma_dcmi) != HAL_OK)
 364              		.loc 1 164 32 is_stmt 0 view .LVU133
 365 0146 0563     		str	r5, [r0, #48]
 165:Src/stm32h7xx_hal_msp.c ****     {
 366              		.loc 1 165 5 is_stmt 1 view .LVU134
 165:Src/stm32h7xx_hal_msp.c ****     {
 367              		.loc 1 165 9 is_stmt 0 view .LVU135
 368 0148 FFF7FEFF 		bl	HAL_DMA_Init
 369              	.LVL9:
 165:Src/stm32h7xx_hal_msp.c ****     {
 370              		.loc 1 165 8 view .LVU136
 371 014c A0B9     		cbnz	r0, .L11
 372              	.L7:
 170:Src/stm32h7xx_hal_msp.c ****     pSyncConfig.SyncPolarity = HAL_DMAMUX_SYNC_RISING;
 373              		.loc 1 170 5 is_stmt 1 view .LVU137
 170:Src/stm32h7xx_hal_msp.c ****     pSyncConfig.SyncPolarity = HAL_DMAMUX_SYNC_RISING;
 374              		.loc 1 170 30 is_stmt 0 view .LVU138
 375 014e 0323     		movs	r3, #3
 376 0150 0793     		str	r3, [sp, #28]
 171:Src/stm32h7xx_hal_msp.c ****     pSyncConfig.SyncEnable = ENABLE;
 377              		.loc 1 171 5 is_stmt 1 view .LVU139
 171:Src/stm32h7xx_hal_msp.c ****     pSyncConfig.SyncEnable = ENABLE;
ARM GAS  C:\Users\theto\AppData\Local\Temp\ccMwxIgN.s 			page 13


 378              		.loc 1 171 30 is_stmt 0 view .LVU140
 379 0152 4FF40033 		mov	r3, #131072
 380 0156 0893     		str	r3, [sp, #32]
 172:Src/stm32h7xx_hal_msp.c ****     pSyncConfig.EventEnable = DISABLE;
 381              		.loc 1 172 5 is_stmt 1 view .LVU141
 172:Src/stm32h7xx_hal_msp.c ****     pSyncConfig.EventEnable = DISABLE;
 382              		.loc 1 172 28 is_stmt 0 view .LVU142
 383 0158 0123     		movs	r3, #1
 384 015a 8DF82430 		strb	r3, [sp, #36]
 173:Src/stm32h7xx_hal_msp.c ****     pSyncConfig.RequestNumber = 1;
 385              		.loc 1 173 5 is_stmt 1 view .LVU143
 173:Src/stm32h7xx_hal_msp.c ****     pSyncConfig.RequestNumber = 1;
 386              		.loc 1 173 29 is_stmt 0 view .LVU144
 387 015e 0022     		movs	r2, #0
 388 0160 8DF82520 		strb	r2, [sp, #37]
 174:Src/stm32h7xx_hal_msp.c ****     if (HAL_DMAEx_ConfigMuxSync(&hdma_dcmi, &pSyncConfig) != HAL_OK)
 389              		.loc 1 174 5 is_stmt 1 view .LVU145
 174:Src/stm32h7xx_hal_msp.c ****     if (HAL_DMAEx_ConfigMuxSync(&hdma_dcmi, &pSyncConfig) != HAL_OK)
 390              		.loc 1 174 31 is_stmt 0 view .LVU146
 391 0164 0A93     		str	r3, [sp, #40]
 175:Src/stm32h7xx_hal_msp.c ****     {
 392              		.loc 1 175 5 is_stmt 1 view .LVU147
 175:Src/stm32h7xx_hal_msp.c ****     {
 393              		.loc 1 175 9 is_stmt 0 view .LVU148
 394 0166 07A9     		add	r1, sp, #28
 395 0168 0D48     		ldr	r0, .L13+28
 396 016a FFF7FEFF 		bl	HAL_DMAEx_ConfigMuxSync
 397              	.LVL10:
 175:Src/stm32h7xx_hal_msp.c ****     {
 398              		.loc 1 175 8 view .LVU149
 399 016e 30B9     		cbnz	r0, .L12
 400              	.L8:
 180:Src/stm32h7xx_hal_msp.c **** 
 401              		.loc 1 180 5 is_stmt 1 view .LVU150
 180:Src/stm32h7xx_hal_msp.c **** 
 402              		.loc 1 180 5 view .LVU151
 403 0170 0B4B     		ldr	r3, .L13+28
 404 0172 A364     		str	r3, [r4, #72]
 180:Src/stm32h7xx_hal_msp.c **** 
 405              		.loc 1 180 5 view .LVU152
 406 0174 9C63     		str	r4, [r3, #56]
 180:Src/stm32h7xx_hal_msp.c **** 
 407              		.loc 1 180 5 view .LVU153
 408              		.loc 1 187 1 is_stmt 0 view .LVU154
 409 0176 4FE7     		b	.L5
 410              	.L11:
 167:Src/stm32h7xx_hal_msp.c ****     }
 411              		.loc 1 167 7 is_stmt 1 view .LVU155
 412 0178 FFF7FEFF 		bl	Error_Handler
 413              	.LVL11:
 414 017c E7E7     		b	.L7
 415              	.L12:
 177:Src/stm32h7xx_hal_msp.c ****     }
 416              		.loc 1 177 7 view .LVU156
 417 017e FFF7FEFF 		bl	Error_Handler
 418              	.LVL12:
 419 0182 F5E7     		b	.L8
ARM GAS  C:\Users\theto\AppData\Local\Temp\ccMwxIgN.s 			page 14


 420              	.L14:
 421              		.align	2
 422              	.L13:
 423 0184 00000248 		.word	1208090624
 424 0188 00440258 		.word	1476543488
 425 018c 00100258 		.word	1476530176
 426 0190 00000258 		.word	1476526080
 427 0194 00080258 		.word	1476528128
 428 0198 000C0258 		.word	1476529152
 429 019c 00040258 		.word	1476527104
 430 01a0 00000000 		.word	hdma_dcmi
 431 01a4 10000240 		.word	1073872912
 432              		.cfi_endproc
 433              	.LFE145:
 435              		.section	.text.HAL_DCMI_MspDeInit,"ax",%progbits
 436              		.align	1
 437              		.global	HAL_DCMI_MspDeInit
 438              		.syntax unified
 439              		.thumb
 440              		.thumb_func
 442              	HAL_DCMI_MspDeInit:
 443              	.LVL13:
 444              	.LFB146:
 188:Src/stm32h7xx_hal_msp.c **** 
 189:Src/stm32h7xx_hal_msp.c **** /**
 190:Src/stm32h7xx_hal_msp.c **** * @brief DCMI MSP De-Initialization
 191:Src/stm32h7xx_hal_msp.c **** * This function freeze the hardware resources used in this example
 192:Src/stm32h7xx_hal_msp.c **** * @param hdcmi: DCMI handle pointer
 193:Src/stm32h7xx_hal_msp.c **** * @retval None
 194:Src/stm32h7xx_hal_msp.c **** */
 195:Src/stm32h7xx_hal_msp.c **** void HAL_DCMI_MspDeInit(DCMI_HandleTypeDef* hdcmi)
 196:Src/stm32h7xx_hal_msp.c **** {
 445              		.loc 1 196 1 view -0
 446              		.cfi_startproc
 447              		@ args = 0, pretend = 0, frame = 0
 448              		@ frame_needed = 0, uses_anonymous_args = 0
 197:Src/stm32h7xx_hal_msp.c ****   if(hdcmi->Instance==DCMI)
 449              		.loc 1 197 3 view .LVU158
 450              		.loc 1 197 11 is_stmt 0 view .LVU159
 451 0000 0268     		ldr	r2, [r0]
 452              		.loc 1 197 5 view .LVU160
 453 0002 134B     		ldr	r3, .L22
 454 0004 9A42     		cmp	r2, r3
 455 0006 00D0     		beq	.L21
 456 0008 7047     		bx	lr
 457              	.L21:
 196:Src/stm32h7xx_hal_msp.c ****   if(hdcmi->Instance==DCMI)
 458              		.loc 1 196 1 view .LVU161
 459 000a 10B5     		push	{r4, lr}
 460              	.LCFI6:
 461              		.cfi_def_cfa_offset 8
 462              		.cfi_offset 4, -8
 463              		.cfi_offset 14, -4
 464 000c 0446     		mov	r4, r0
 198:Src/stm32h7xx_hal_msp.c ****   {
 199:Src/stm32h7xx_hal_msp.c ****   /* USER CODE BEGIN DCMI_MspDeInit 0 */
 200:Src/stm32h7xx_hal_msp.c **** 
ARM GAS  C:\Users\theto\AppData\Local\Temp\ccMwxIgN.s 			page 15


 201:Src/stm32h7xx_hal_msp.c ****   /* USER CODE END DCMI_MspDeInit 0 */
 202:Src/stm32h7xx_hal_msp.c ****     /* Peripheral clock disable */
 203:Src/stm32h7xx_hal_msp.c ****     __HAL_RCC_DCMI_CLK_DISABLE();
 465              		.loc 1 203 5 is_stmt 1 view .LVU162
 466 000e 114A     		ldr	r2, .L22+4
 467 0010 D2F8DC30 		ldr	r3, [r2, #220]
 468 0014 23F00103 		bic	r3, r3, #1
 469 0018 C2F8DC30 		str	r3, [r2, #220]
 204:Src/stm32h7xx_hal_msp.c **** 
 205:Src/stm32h7xx_hal_msp.c ****     /**DCMI GPIO Configuration
 206:Src/stm32h7xx_hal_msp.c ****     PE4     ------> DCMI_D4
 207:Src/stm32h7xx_hal_msp.c ****     PE5     ------> DCMI_D6
 208:Src/stm32h7xx_hal_msp.c ****     PE6     ------> DCMI_D7
 209:Src/stm32h7xx_hal_msp.c ****     PA4     ------> DCMI_HSYNC
 210:Src/stm32h7xx_hal_msp.c ****     PA6     ------> DCMI_PIXCLK
 211:Src/stm32h7xx_hal_msp.c ****     PC6     ------> DCMI_D0
 212:Src/stm32h7xx_hal_msp.c ****     PC7     ------> DCMI_D1
 213:Src/stm32h7xx_hal_msp.c ****     PC8     ------> DCMI_D2
 214:Src/stm32h7xx_hal_msp.c ****     PC9     ------> DCMI_D3
 215:Src/stm32h7xx_hal_msp.c ****     PD3     ------> DCMI_D5
 216:Src/stm32h7xx_hal_msp.c ****     PB7     ------> DCMI_VSYNC
 217:Src/stm32h7xx_hal_msp.c ****     */
 218:Src/stm32h7xx_hal_msp.c ****     HAL_GPIO_DeInit(GPIOE, GPIO_PIN_4|GPIO_PIN_5|GPIO_PIN_6);
 470              		.loc 1 218 5 view .LVU163
 471 001c 7021     		movs	r1, #112
 472 001e 0E48     		ldr	r0, .L22+8
 473              	.LVL14:
 474              		.loc 1 218 5 is_stmt 0 view .LVU164
 475 0020 FFF7FEFF 		bl	HAL_GPIO_DeInit
 476              	.LVL15:
 219:Src/stm32h7xx_hal_msp.c **** 
 220:Src/stm32h7xx_hal_msp.c ****     HAL_GPIO_DeInit(GPIOA, GPIO_PIN_4|GPIO_PIN_6);
 477              		.loc 1 220 5 is_stmt 1 view .LVU165
 478 0024 5021     		movs	r1, #80
 479 0026 0D48     		ldr	r0, .L22+12
 480 0028 FFF7FEFF 		bl	HAL_GPIO_DeInit
 481              	.LVL16:
 221:Src/stm32h7xx_hal_msp.c **** 
 222:Src/stm32h7xx_hal_msp.c ****     HAL_GPIO_DeInit(GPIOC, GPIO_PIN_6|GPIO_PIN_7|GPIO_PIN_8|GPIO_PIN_9);
 482              		.loc 1 222 5 view .LVU166
 483 002c 4FF47071 		mov	r1, #960
 484 0030 0B48     		ldr	r0, .L22+16
 485 0032 FFF7FEFF 		bl	HAL_GPIO_DeInit
 486              	.LVL17:
 223:Src/stm32h7xx_hal_msp.c **** 
 224:Src/stm32h7xx_hal_msp.c ****     HAL_GPIO_DeInit(GPIOD, GPIO_PIN_3);
 487              		.loc 1 224 5 view .LVU167
 488 0036 0821     		movs	r1, #8
 489 0038 0A48     		ldr	r0, .L22+20
 490 003a FFF7FEFF 		bl	HAL_GPIO_DeInit
 491              	.LVL18:
 225:Src/stm32h7xx_hal_msp.c **** 
 226:Src/stm32h7xx_hal_msp.c ****     HAL_GPIO_DeInit(GPIOB, GPIO_PIN_7);
 492              		.loc 1 226 5 view .LVU168
 493 003e 8021     		movs	r1, #128
 494 0040 0948     		ldr	r0, .L22+24
 495 0042 FFF7FEFF 		bl	HAL_GPIO_DeInit
ARM GAS  C:\Users\theto\AppData\Local\Temp\ccMwxIgN.s 			page 16


 496              	.LVL19:
 227:Src/stm32h7xx_hal_msp.c **** 
 228:Src/stm32h7xx_hal_msp.c ****     /* DCMI DMA DeInit */
 229:Src/stm32h7xx_hal_msp.c ****     HAL_DMA_DeInit(hdcmi->DMA_Handle);
 497              		.loc 1 229 5 view .LVU169
 498 0046 A06C     		ldr	r0, [r4, #72]
 499 0048 FFF7FEFF 		bl	HAL_DMA_DeInit
 500              	.LVL20:
 230:Src/stm32h7xx_hal_msp.c ****   /* USER CODE BEGIN DCMI_MspDeInit 1 */
 231:Src/stm32h7xx_hal_msp.c **** 
 232:Src/stm32h7xx_hal_msp.c ****   /* USER CODE END DCMI_MspDeInit 1 */
 233:Src/stm32h7xx_hal_msp.c ****   }
 234:Src/stm32h7xx_hal_msp.c **** 
 235:Src/stm32h7xx_hal_msp.c **** }
 501              		.loc 1 235 1 is_stmt 0 view .LVU170
 502 004c 10BD     		pop	{r4, pc}
 503              	.LVL21:
 504              	.L23:
 505              		.loc 1 235 1 view .LVU171
 506 004e 00BF     		.align	2
 507              	.L22:
 508 0050 00000248 		.word	1208090624
 509 0054 00440258 		.word	1476543488
 510 0058 00100258 		.word	1476530176
 511 005c 00000258 		.word	1476526080
 512 0060 00080258 		.word	1476528128
 513 0064 000C0258 		.word	1476529152
 514 0068 00040258 		.word	1476527104
 515              		.cfi_endproc
 516              	.LFE146:
 518              		.section	.text.HAL_ETH_MspInit,"ax",%progbits
 519              		.align	1
 520              		.global	HAL_ETH_MspInit
 521              		.syntax unified
 522              		.thumb
 523              		.thumb_func
 525              	HAL_ETH_MspInit:
 526              	.LVL22:
 527              	.LFB147:
 236:Src/stm32h7xx_hal_msp.c **** 
 237:Src/stm32h7xx_hal_msp.c **** /**
 238:Src/stm32h7xx_hal_msp.c **** * @brief ETH MSP Initialization
 239:Src/stm32h7xx_hal_msp.c **** * This function configures the hardware resources used in this example
 240:Src/stm32h7xx_hal_msp.c **** * @param heth: ETH handle pointer
 241:Src/stm32h7xx_hal_msp.c **** * @retval None
 242:Src/stm32h7xx_hal_msp.c **** */
 243:Src/stm32h7xx_hal_msp.c **** void HAL_ETH_MspInit(ETH_HandleTypeDef* heth)
 244:Src/stm32h7xx_hal_msp.c **** {
 528              		.loc 1 244 1 is_stmt 1 view -0
 529              		.cfi_startproc
 530              		@ args = 0, pretend = 0, frame = 48
 531              		@ frame_needed = 0, uses_anonymous_args = 0
 532              		.loc 1 244 1 is_stmt 0 view .LVU173
 533 0000 70B5     		push	{r4, r5, r6, lr}
 534              	.LCFI7:
 535              		.cfi_def_cfa_offset 16
 536              		.cfi_offset 4, -16
ARM GAS  C:\Users\theto\AppData\Local\Temp\ccMwxIgN.s 			page 17


 537              		.cfi_offset 5, -12
 538              		.cfi_offset 6, -8
 539              		.cfi_offset 14, -4
 540 0002 8CB0     		sub	sp, sp, #48
 541              	.LCFI8:
 542              		.cfi_def_cfa_offset 64
 245:Src/stm32h7xx_hal_msp.c ****   GPIO_InitTypeDef GPIO_InitStruct = {0};
 543              		.loc 1 245 3 is_stmt 1 view .LVU174
 544              		.loc 1 245 20 is_stmt 0 view .LVU175
 545 0004 0023     		movs	r3, #0
 546 0006 0793     		str	r3, [sp, #28]
 547 0008 0893     		str	r3, [sp, #32]
 548 000a 0993     		str	r3, [sp, #36]
 549 000c 0A93     		str	r3, [sp, #40]
 550 000e 0B93     		str	r3, [sp, #44]
 246:Src/stm32h7xx_hal_msp.c ****   if(heth->Instance==ETH)
 551              		.loc 1 246 3 is_stmt 1 view .LVU176
 552              		.loc 1 246 10 is_stmt 0 view .LVU177
 553 0010 0268     		ldr	r2, [r0]
 554              		.loc 1 246 5 view .LVU178
 555 0012 434B     		ldr	r3, .L28
 556 0014 9A42     		cmp	r2, r3
 557 0016 01D0     		beq	.L27
 558              	.LVL23:
 559              	.L24:
 247:Src/stm32h7xx_hal_msp.c ****   {
 248:Src/stm32h7xx_hal_msp.c ****   /* USER CODE BEGIN ETH_MspInit 0 */
 249:Src/stm32h7xx_hal_msp.c **** 
 250:Src/stm32h7xx_hal_msp.c ****   /* USER CODE END ETH_MspInit 0 */
 251:Src/stm32h7xx_hal_msp.c ****     /* Peripheral clock enable */
 252:Src/stm32h7xx_hal_msp.c ****     __HAL_RCC_ETH1MAC_CLK_ENABLE();
 253:Src/stm32h7xx_hal_msp.c ****     __HAL_RCC_ETH1TX_CLK_ENABLE();
 254:Src/stm32h7xx_hal_msp.c ****     __HAL_RCC_ETH1RX_CLK_ENABLE();
 255:Src/stm32h7xx_hal_msp.c **** 
 256:Src/stm32h7xx_hal_msp.c ****     __HAL_RCC_GPIOC_CLK_ENABLE();
 257:Src/stm32h7xx_hal_msp.c ****     __HAL_RCC_GPIOA_CLK_ENABLE();
 258:Src/stm32h7xx_hal_msp.c ****     __HAL_RCC_GPIOB_CLK_ENABLE();
 259:Src/stm32h7xx_hal_msp.c ****     __HAL_RCC_GPIOG_CLK_ENABLE();
 260:Src/stm32h7xx_hal_msp.c ****     /**ETH GPIO Configuration
 261:Src/stm32h7xx_hal_msp.c ****     PC1     ------> ETH_MDC
 262:Src/stm32h7xx_hal_msp.c ****     PA1     ------> ETH_REF_CLK
 263:Src/stm32h7xx_hal_msp.c ****     PA2     ------> ETH_MDIO
 264:Src/stm32h7xx_hal_msp.c ****     PA7     ------> ETH_CRS_DV
 265:Src/stm32h7xx_hal_msp.c ****     PC4     ------> ETH_RXD0
 266:Src/stm32h7xx_hal_msp.c ****     PC5     ------> ETH_RXD1
 267:Src/stm32h7xx_hal_msp.c ****     PB13     ------> ETH_TXD1
 268:Src/stm32h7xx_hal_msp.c ****     PG11     ------> ETH_TX_EN
 269:Src/stm32h7xx_hal_msp.c ****     PG13     ------> ETH_TXD0
 270:Src/stm32h7xx_hal_msp.c ****     */
 271:Src/stm32h7xx_hal_msp.c ****     GPIO_InitStruct.Pin = GPIO_PIN_1|GPIO_PIN_4|GPIO_PIN_5;
 272:Src/stm32h7xx_hal_msp.c ****     GPIO_InitStruct.Mode = GPIO_MODE_AF_PP;
 273:Src/stm32h7xx_hal_msp.c ****     GPIO_InitStruct.Pull = GPIO_NOPULL;
 274:Src/stm32h7xx_hal_msp.c ****     GPIO_InitStruct.Speed = GPIO_SPEED_FREQ_LOW;
 275:Src/stm32h7xx_hal_msp.c ****     GPIO_InitStruct.Alternate = GPIO_AF11_ETH;
 276:Src/stm32h7xx_hal_msp.c ****     HAL_GPIO_Init(GPIOC, &GPIO_InitStruct);
 277:Src/stm32h7xx_hal_msp.c **** 
 278:Src/stm32h7xx_hal_msp.c ****     GPIO_InitStruct.Pin = GPIO_PIN_1|GPIO_PIN_2|GPIO_PIN_7;
ARM GAS  C:\Users\theto\AppData\Local\Temp\ccMwxIgN.s 			page 18


 279:Src/stm32h7xx_hal_msp.c ****     GPIO_InitStruct.Mode = GPIO_MODE_AF_PP;
 280:Src/stm32h7xx_hal_msp.c ****     GPIO_InitStruct.Pull = GPIO_NOPULL;
 281:Src/stm32h7xx_hal_msp.c ****     GPIO_InitStruct.Speed = GPIO_SPEED_FREQ_LOW;
 282:Src/stm32h7xx_hal_msp.c ****     GPIO_InitStruct.Alternate = GPIO_AF11_ETH;
 283:Src/stm32h7xx_hal_msp.c ****     HAL_GPIO_Init(GPIOA, &GPIO_InitStruct);
 284:Src/stm32h7xx_hal_msp.c **** 
 285:Src/stm32h7xx_hal_msp.c ****     GPIO_InitStruct.Pin = GPIO_PIN_13;
 286:Src/stm32h7xx_hal_msp.c ****     GPIO_InitStruct.Mode = GPIO_MODE_AF_PP;
 287:Src/stm32h7xx_hal_msp.c ****     GPIO_InitStruct.Pull = GPIO_NOPULL;
 288:Src/stm32h7xx_hal_msp.c ****     GPIO_InitStruct.Speed = GPIO_SPEED_FREQ_LOW;
 289:Src/stm32h7xx_hal_msp.c ****     GPIO_InitStruct.Alternate = GPIO_AF11_ETH;
 290:Src/stm32h7xx_hal_msp.c ****     HAL_GPIO_Init(GPIOB, &GPIO_InitStruct);
 291:Src/stm32h7xx_hal_msp.c **** 
 292:Src/stm32h7xx_hal_msp.c ****     GPIO_InitStruct.Pin = GPIO_PIN_11|GPIO_PIN_13;
 293:Src/stm32h7xx_hal_msp.c ****     GPIO_InitStruct.Mode = GPIO_MODE_AF_PP;
 294:Src/stm32h7xx_hal_msp.c ****     GPIO_InitStruct.Pull = GPIO_NOPULL;
 295:Src/stm32h7xx_hal_msp.c ****     GPIO_InitStruct.Speed = GPIO_SPEED_FREQ_LOW;
 296:Src/stm32h7xx_hal_msp.c ****     GPIO_InitStruct.Alternate = GPIO_AF11_ETH;
 297:Src/stm32h7xx_hal_msp.c ****     HAL_GPIO_Init(GPIOG, &GPIO_InitStruct);
 298:Src/stm32h7xx_hal_msp.c **** 
 299:Src/stm32h7xx_hal_msp.c ****   /* USER CODE BEGIN ETH_MspInit 1 */
 300:Src/stm32h7xx_hal_msp.c **** 
 301:Src/stm32h7xx_hal_msp.c ****   /* USER CODE END ETH_MspInit 1 */
 302:Src/stm32h7xx_hal_msp.c ****   }
 303:Src/stm32h7xx_hal_msp.c **** 
 304:Src/stm32h7xx_hal_msp.c **** }
 560              		.loc 1 304 1 view .LVU179
 561 0018 0CB0     		add	sp, sp, #48
 562              	.LCFI9:
 563              		.cfi_remember_state
 564              		.cfi_def_cfa_offset 16
 565              		@ sp needed
 566 001a 70BD     		pop	{r4, r5, r6, pc}
 567              	.LVL24:
 568              	.L27:
 569              	.LCFI10:
 570              		.cfi_restore_state
 252:Src/stm32h7xx_hal_msp.c ****     __HAL_RCC_ETH1TX_CLK_ENABLE();
 571              		.loc 1 252 5 is_stmt 1 view .LVU180
 572              	.LBB9:
 252:Src/stm32h7xx_hal_msp.c ****     __HAL_RCC_ETH1TX_CLK_ENABLE();
 573              		.loc 1 252 5 view .LVU181
 252:Src/stm32h7xx_hal_msp.c ****     __HAL_RCC_ETH1TX_CLK_ENABLE();
 574              		.loc 1 252 5 view .LVU182
 575 001c 414B     		ldr	r3, .L28+4
 576 001e D3F8D820 		ldr	r2, [r3, #216]
 577 0022 42F40042 		orr	r2, r2, #32768
 578 0026 C3F8D820 		str	r2, [r3, #216]
 252:Src/stm32h7xx_hal_msp.c ****     __HAL_RCC_ETH1TX_CLK_ENABLE();
 579              		.loc 1 252 5 view .LVU183
 580 002a D3F8D820 		ldr	r2, [r3, #216]
 581 002e 02F40042 		and	r2, r2, #32768
 582 0032 0092     		str	r2, [sp]
 252:Src/stm32h7xx_hal_msp.c ****     __HAL_RCC_ETH1TX_CLK_ENABLE();
 583              		.loc 1 252 5 view .LVU184
 584 0034 009A     		ldr	r2, [sp]
 585              	.LBE9:
ARM GAS  C:\Users\theto\AppData\Local\Temp\ccMwxIgN.s 			page 19


 252:Src/stm32h7xx_hal_msp.c ****     __HAL_RCC_ETH1TX_CLK_ENABLE();
 586              		.loc 1 252 5 view .LVU185
 253:Src/stm32h7xx_hal_msp.c ****     __HAL_RCC_ETH1RX_CLK_ENABLE();
 587              		.loc 1 253 5 view .LVU186
 588              	.LBB10:
 253:Src/stm32h7xx_hal_msp.c ****     __HAL_RCC_ETH1RX_CLK_ENABLE();
 589              		.loc 1 253 5 view .LVU187
 253:Src/stm32h7xx_hal_msp.c ****     __HAL_RCC_ETH1RX_CLK_ENABLE();
 590              		.loc 1 253 5 view .LVU188
 591 0036 D3F8D820 		ldr	r2, [r3, #216]
 592 003a 42F48032 		orr	r2, r2, #65536
 593 003e C3F8D820 		str	r2, [r3, #216]
 253:Src/stm32h7xx_hal_msp.c ****     __HAL_RCC_ETH1RX_CLK_ENABLE();
 594              		.loc 1 253 5 view .LVU189
 595 0042 D3F8D820 		ldr	r2, [r3, #216]
 596 0046 02F48032 		and	r2, r2, #65536
 597 004a 0192     		str	r2, [sp, #4]
 253:Src/stm32h7xx_hal_msp.c ****     __HAL_RCC_ETH1RX_CLK_ENABLE();
 598              		.loc 1 253 5 view .LVU190
 599 004c 019A     		ldr	r2, [sp, #4]
 600              	.LBE10:
 253:Src/stm32h7xx_hal_msp.c ****     __HAL_RCC_ETH1RX_CLK_ENABLE();
 601              		.loc 1 253 5 view .LVU191
 254:Src/stm32h7xx_hal_msp.c **** 
 602              		.loc 1 254 5 view .LVU192
 603              	.LBB11:
 254:Src/stm32h7xx_hal_msp.c **** 
 604              		.loc 1 254 5 view .LVU193
 254:Src/stm32h7xx_hal_msp.c **** 
 605              		.loc 1 254 5 view .LVU194
 606 004e D3F8D820 		ldr	r2, [r3, #216]
 607 0052 42F40032 		orr	r2, r2, #131072
 608 0056 C3F8D820 		str	r2, [r3, #216]
 254:Src/stm32h7xx_hal_msp.c **** 
 609              		.loc 1 254 5 view .LVU195
 610 005a D3F8D820 		ldr	r2, [r3, #216]
 611 005e 02F40032 		and	r2, r2, #131072
 612 0062 0292     		str	r2, [sp, #8]
 254:Src/stm32h7xx_hal_msp.c **** 
 613              		.loc 1 254 5 view .LVU196
 614 0064 029A     		ldr	r2, [sp, #8]
 615              	.LBE11:
 254:Src/stm32h7xx_hal_msp.c **** 
 616              		.loc 1 254 5 view .LVU197
 256:Src/stm32h7xx_hal_msp.c ****     __HAL_RCC_GPIOA_CLK_ENABLE();
 617              		.loc 1 256 5 view .LVU198
 618              	.LBB12:
 256:Src/stm32h7xx_hal_msp.c ****     __HAL_RCC_GPIOA_CLK_ENABLE();
 619              		.loc 1 256 5 view .LVU199
 256:Src/stm32h7xx_hal_msp.c ****     __HAL_RCC_GPIOA_CLK_ENABLE();
 620              		.loc 1 256 5 view .LVU200
 621 0066 D3F8E020 		ldr	r2, [r3, #224]
 622 006a 42F00402 		orr	r2, r2, #4
 623 006e C3F8E020 		str	r2, [r3, #224]
 256:Src/stm32h7xx_hal_msp.c ****     __HAL_RCC_GPIOA_CLK_ENABLE();
 624              		.loc 1 256 5 view .LVU201
 625 0072 D3F8E020 		ldr	r2, [r3, #224]
ARM GAS  C:\Users\theto\AppData\Local\Temp\ccMwxIgN.s 			page 20


 626 0076 02F00402 		and	r2, r2, #4
 627 007a 0392     		str	r2, [sp, #12]
 256:Src/stm32h7xx_hal_msp.c ****     __HAL_RCC_GPIOA_CLK_ENABLE();
 628              		.loc 1 256 5 view .LVU202
 629 007c 039A     		ldr	r2, [sp, #12]
 630              	.LBE12:
 256:Src/stm32h7xx_hal_msp.c ****     __HAL_RCC_GPIOA_CLK_ENABLE();
 631              		.loc 1 256 5 view .LVU203
 257:Src/stm32h7xx_hal_msp.c ****     __HAL_RCC_GPIOB_CLK_ENABLE();
 632              		.loc 1 257 5 view .LVU204
 633              	.LBB13:
 257:Src/stm32h7xx_hal_msp.c ****     __HAL_RCC_GPIOB_CLK_ENABLE();
 634              		.loc 1 257 5 view .LVU205
 257:Src/stm32h7xx_hal_msp.c ****     __HAL_RCC_GPIOB_CLK_ENABLE();
 635              		.loc 1 257 5 view .LVU206
 636 007e D3F8E020 		ldr	r2, [r3, #224]
 637 0082 42F00102 		orr	r2, r2, #1
 638 0086 C3F8E020 		str	r2, [r3, #224]
 257:Src/stm32h7xx_hal_msp.c ****     __HAL_RCC_GPIOB_CLK_ENABLE();
 639              		.loc 1 257 5 view .LVU207
 640 008a D3F8E020 		ldr	r2, [r3, #224]
 641 008e 02F00102 		and	r2, r2, #1
 642 0092 0492     		str	r2, [sp, #16]
 257:Src/stm32h7xx_hal_msp.c ****     __HAL_RCC_GPIOB_CLK_ENABLE();
 643              		.loc 1 257 5 view .LVU208
 644 0094 049A     		ldr	r2, [sp, #16]
 645              	.LBE13:
 257:Src/stm32h7xx_hal_msp.c ****     __HAL_RCC_GPIOB_CLK_ENABLE();
 646              		.loc 1 257 5 view .LVU209
 258:Src/stm32h7xx_hal_msp.c ****     __HAL_RCC_GPIOG_CLK_ENABLE();
 647              		.loc 1 258 5 view .LVU210
 648              	.LBB14:
 258:Src/stm32h7xx_hal_msp.c ****     __HAL_RCC_GPIOG_CLK_ENABLE();
 649              		.loc 1 258 5 view .LVU211
 258:Src/stm32h7xx_hal_msp.c ****     __HAL_RCC_GPIOG_CLK_ENABLE();
 650              		.loc 1 258 5 view .LVU212
 651 0096 D3F8E020 		ldr	r2, [r3, #224]
 652 009a 42F00202 		orr	r2, r2, #2
 653 009e C3F8E020 		str	r2, [r3, #224]
 258:Src/stm32h7xx_hal_msp.c ****     __HAL_RCC_GPIOG_CLK_ENABLE();
 654              		.loc 1 258 5 view .LVU213
 655 00a2 D3F8E020 		ldr	r2, [r3, #224]
 656 00a6 02F00202 		and	r2, r2, #2
 657 00aa 0592     		str	r2, [sp, #20]
 258:Src/stm32h7xx_hal_msp.c ****     __HAL_RCC_GPIOG_CLK_ENABLE();
 658              		.loc 1 258 5 view .LVU214
 659 00ac 059A     		ldr	r2, [sp, #20]
 660              	.LBE14:
 258:Src/stm32h7xx_hal_msp.c ****     __HAL_RCC_GPIOG_CLK_ENABLE();
 661              		.loc 1 258 5 view .LVU215
 259:Src/stm32h7xx_hal_msp.c ****     /**ETH GPIO Configuration
 662              		.loc 1 259 5 view .LVU216
 663              	.LBB15:
 259:Src/stm32h7xx_hal_msp.c ****     /**ETH GPIO Configuration
 664              		.loc 1 259 5 view .LVU217
 259:Src/stm32h7xx_hal_msp.c ****     /**ETH GPIO Configuration
 665              		.loc 1 259 5 view .LVU218
ARM GAS  C:\Users\theto\AppData\Local\Temp\ccMwxIgN.s 			page 21


 666 00ae D3F8E020 		ldr	r2, [r3, #224]
 667 00b2 42F04002 		orr	r2, r2, #64
 668 00b6 C3F8E020 		str	r2, [r3, #224]
 259:Src/stm32h7xx_hal_msp.c ****     /**ETH GPIO Configuration
 669              		.loc 1 259 5 view .LVU219
 670 00ba D3F8E030 		ldr	r3, [r3, #224]
 671 00be 03F04003 		and	r3, r3, #64
 672 00c2 0693     		str	r3, [sp, #24]
 259:Src/stm32h7xx_hal_msp.c ****     /**ETH GPIO Configuration
 673              		.loc 1 259 5 view .LVU220
 674 00c4 069B     		ldr	r3, [sp, #24]
 675              	.LBE15:
 259:Src/stm32h7xx_hal_msp.c ****     /**ETH GPIO Configuration
 676              		.loc 1 259 5 view .LVU221
 271:Src/stm32h7xx_hal_msp.c ****     GPIO_InitStruct.Mode = GPIO_MODE_AF_PP;
 677              		.loc 1 271 5 view .LVU222
 271:Src/stm32h7xx_hal_msp.c ****     GPIO_InitStruct.Mode = GPIO_MODE_AF_PP;
 678              		.loc 1 271 25 is_stmt 0 view .LVU223
 679 00c6 3223     		movs	r3, #50
 680 00c8 0793     		str	r3, [sp, #28]
 272:Src/stm32h7xx_hal_msp.c ****     GPIO_InitStruct.Pull = GPIO_NOPULL;
 681              		.loc 1 272 5 is_stmt 1 view .LVU224
 272:Src/stm32h7xx_hal_msp.c ****     GPIO_InitStruct.Pull = GPIO_NOPULL;
 682              		.loc 1 272 26 is_stmt 0 view .LVU225
 683 00ca 0226     		movs	r6, #2
 684 00cc 0896     		str	r6, [sp, #32]
 273:Src/stm32h7xx_hal_msp.c ****     GPIO_InitStruct.Speed = GPIO_SPEED_FREQ_LOW;
 685              		.loc 1 273 5 is_stmt 1 view .LVU226
 274:Src/stm32h7xx_hal_msp.c ****     GPIO_InitStruct.Alternate = GPIO_AF11_ETH;
 686              		.loc 1 274 5 view .LVU227
 275:Src/stm32h7xx_hal_msp.c ****     HAL_GPIO_Init(GPIOC, &GPIO_InitStruct);
 687              		.loc 1 275 5 view .LVU228
 275:Src/stm32h7xx_hal_msp.c ****     HAL_GPIO_Init(GPIOC, &GPIO_InitStruct);
 688              		.loc 1 275 31 is_stmt 0 view .LVU229
 689 00ce 0B25     		movs	r5, #11
 690 00d0 0B95     		str	r5, [sp, #44]
 276:Src/stm32h7xx_hal_msp.c **** 
 691              		.loc 1 276 5 is_stmt 1 view .LVU230
 692 00d2 07A9     		add	r1, sp, #28
 693 00d4 1448     		ldr	r0, .L28+8
 694              	.LVL25:
 276:Src/stm32h7xx_hal_msp.c **** 
 695              		.loc 1 276 5 is_stmt 0 view .LVU231
 696 00d6 FFF7FEFF 		bl	HAL_GPIO_Init
 697              	.LVL26:
 278:Src/stm32h7xx_hal_msp.c ****     GPIO_InitStruct.Mode = GPIO_MODE_AF_PP;
 698              		.loc 1 278 5 is_stmt 1 view .LVU232
 278:Src/stm32h7xx_hal_msp.c ****     GPIO_InitStruct.Mode = GPIO_MODE_AF_PP;
 699              		.loc 1 278 25 is_stmt 0 view .LVU233
 700 00da 8623     		movs	r3, #134
 701 00dc 0793     		str	r3, [sp, #28]
 279:Src/stm32h7xx_hal_msp.c ****     GPIO_InitStruct.Pull = GPIO_NOPULL;
 702              		.loc 1 279 5 is_stmt 1 view .LVU234
 279:Src/stm32h7xx_hal_msp.c ****     GPIO_InitStruct.Pull = GPIO_NOPULL;
 703              		.loc 1 279 26 is_stmt 0 view .LVU235
 704 00de 0896     		str	r6, [sp, #32]
 280:Src/stm32h7xx_hal_msp.c ****     GPIO_InitStruct.Speed = GPIO_SPEED_FREQ_LOW;
ARM GAS  C:\Users\theto\AppData\Local\Temp\ccMwxIgN.s 			page 22


 705              		.loc 1 280 5 is_stmt 1 view .LVU236
 280:Src/stm32h7xx_hal_msp.c ****     GPIO_InitStruct.Speed = GPIO_SPEED_FREQ_LOW;
 706              		.loc 1 280 26 is_stmt 0 view .LVU237
 707 00e0 0024     		movs	r4, #0
 708 00e2 0994     		str	r4, [sp, #36]
 281:Src/stm32h7xx_hal_msp.c ****     GPIO_InitStruct.Alternate = GPIO_AF11_ETH;
 709              		.loc 1 281 5 is_stmt 1 view .LVU238
 281:Src/stm32h7xx_hal_msp.c ****     GPIO_InitStruct.Alternate = GPIO_AF11_ETH;
 710              		.loc 1 281 27 is_stmt 0 view .LVU239
 711 00e4 0A94     		str	r4, [sp, #40]
 282:Src/stm32h7xx_hal_msp.c ****     HAL_GPIO_Init(GPIOA, &GPIO_InitStruct);
 712              		.loc 1 282 5 is_stmt 1 view .LVU240
 282:Src/stm32h7xx_hal_msp.c ****     HAL_GPIO_Init(GPIOA, &GPIO_InitStruct);
 713              		.loc 1 282 31 is_stmt 0 view .LVU241
 714 00e6 0B95     		str	r5, [sp, #44]
 283:Src/stm32h7xx_hal_msp.c **** 
 715              		.loc 1 283 5 is_stmt 1 view .LVU242
 716 00e8 07A9     		add	r1, sp, #28
 717 00ea 1048     		ldr	r0, .L28+12
 718 00ec FFF7FEFF 		bl	HAL_GPIO_Init
 719              	.LVL27:
 285:Src/stm32h7xx_hal_msp.c ****     GPIO_InitStruct.Mode = GPIO_MODE_AF_PP;
 720              		.loc 1 285 5 view .LVU243
 285:Src/stm32h7xx_hal_msp.c ****     GPIO_InitStruct.Mode = GPIO_MODE_AF_PP;
 721              		.loc 1 285 25 is_stmt 0 view .LVU244
 722 00f0 4FF40053 		mov	r3, #8192
 723 00f4 0793     		str	r3, [sp, #28]
 286:Src/stm32h7xx_hal_msp.c ****     GPIO_InitStruct.Pull = GPIO_NOPULL;
 724              		.loc 1 286 5 is_stmt 1 view .LVU245
 286:Src/stm32h7xx_hal_msp.c ****     GPIO_InitStruct.Pull = GPIO_NOPULL;
 725              		.loc 1 286 26 is_stmt 0 view .LVU246
 726 00f6 0896     		str	r6, [sp, #32]
 287:Src/stm32h7xx_hal_msp.c ****     GPIO_InitStruct.Speed = GPIO_SPEED_FREQ_LOW;
 727              		.loc 1 287 5 is_stmt 1 view .LVU247
 287:Src/stm32h7xx_hal_msp.c ****     GPIO_InitStruct.Speed = GPIO_SPEED_FREQ_LOW;
 728              		.loc 1 287 26 is_stmt 0 view .LVU248
 729 00f8 0994     		str	r4, [sp, #36]
 288:Src/stm32h7xx_hal_msp.c ****     GPIO_InitStruct.Alternate = GPIO_AF11_ETH;
 730              		.loc 1 288 5 is_stmt 1 view .LVU249
 288:Src/stm32h7xx_hal_msp.c ****     GPIO_InitStruct.Alternate = GPIO_AF11_ETH;
 731              		.loc 1 288 27 is_stmt 0 view .LVU250
 732 00fa 0A94     		str	r4, [sp, #40]
 289:Src/stm32h7xx_hal_msp.c ****     HAL_GPIO_Init(GPIOB, &GPIO_InitStruct);
 733              		.loc 1 289 5 is_stmt 1 view .LVU251
 289:Src/stm32h7xx_hal_msp.c ****     HAL_GPIO_Init(GPIOB, &GPIO_InitStruct);
 734              		.loc 1 289 31 is_stmt 0 view .LVU252
 735 00fc 0B95     		str	r5, [sp, #44]
 290:Src/stm32h7xx_hal_msp.c **** 
 736              		.loc 1 290 5 is_stmt 1 view .LVU253
 737 00fe 07A9     		add	r1, sp, #28
 738 0100 0B48     		ldr	r0, .L28+16
 739 0102 FFF7FEFF 		bl	HAL_GPIO_Init
 740              	.LVL28:
 292:Src/stm32h7xx_hal_msp.c ****     GPIO_InitStruct.Mode = GPIO_MODE_AF_PP;
 741              		.loc 1 292 5 view .LVU254
 292:Src/stm32h7xx_hal_msp.c ****     GPIO_InitStruct.Mode = GPIO_MODE_AF_PP;
 742              		.loc 1 292 25 is_stmt 0 view .LVU255
ARM GAS  C:\Users\theto\AppData\Local\Temp\ccMwxIgN.s 			page 23


 743 0106 4FF42053 		mov	r3, #10240
 744 010a 0793     		str	r3, [sp, #28]
 293:Src/stm32h7xx_hal_msp.c ****     GPIO_InitStruct.Pull = GPIO_NOPULL;
 745              		.loc 1 293 5 is_stmt 1 view .LVU256
 293:Src/stm32h7xx_hal_msp.c ****     GPIO_InitStruct.Pull = GPIO_NOPULL;
 746              		.loc 1 293 26 is_stmt 0 view .LVU257
 747 010c 0896     		str	r6, [sp, #32]
 294:Src/stm32h7xx_hal_msp.c ****     GPIO_InitStruct.Speed = GPIO_SPEED_FREQ_LOW;
 748              		.loc 1 294 5 is_stmt 1 view .LVU258
 294:Src/stm32h7xx_hal_msp.c ****     GPIO_InitStruct.Speed = GPIO_SPEED_FREQ_LOW;
 749              		.loc 1 294 26 is_stmt 0 view .LVU259
 750 010e 0994     		str	r4, [sp, #36]
 295:Src/stm32h7xx_hal_msp.c ****     GPIO_InitStruct.Alternate = GPIO_AF11_ETH;
 751              		.loc 1 295 5 is_stmt 1 view .LVU260
 295:Src/stm32h7xx_hal_msp.c ****     GPIO_InitStruct.Alternate = GPIO_AF11_ETH;
 752              		.loc 1 295 27 is_stmt 0 view .LVU261
 753 0110 0A94     		str	r4, [sp, #40]
 296:Src/stm32h7xx_hal_msp.c ****     HAL_GPIO_Init(GPIOG, &GPIO_InitStruct);
 754              		.loc 1 296 5 is_stmt 1 view .LVU262
 296:Src/stm32h7xx_hal_msp.c ****     HAL_GPIO_Init(GPIOG, &GPIO_InitStruct);
 755              		.loc 1 296 31 is_stmt 0 view .LVU263
 756 0112 0B95     		str	r5, [sp, #44]
 297:Src/stm32h7xx_hal_msp.c **** 
 757              		.loc 1 297 5 is_stmt 1 view .LVU264
 758 0114 07A9     		add	r1, sp, #28
 759 0116 0748     		ldr	r0, .L28+20
 760 0118 FFF7FEFF 		bl	HAL_GPIO_Init
 761              	.LVL29:
 762              		.loc 1 304 1 is_stmt 0 view .LVU265
 763 011c 7CE7     		b	.L24
 764              	.L29:
 765 011e 00BF     		.align	2
 766              	.L28:
 767 0120 00800240 		.word	1073905664
 768 0124 00440258 		.word	1476543488
 769 0128 00080258 		.word	1476528128
 770 012c 00000258 		.word	1476526080
 771 0130 00040258 		.word	1476527104
 772 0134 00180258 		.word	1476532224
 773              		.cfi_endproc
 774              	.LFE147:
 776              		.section	.text.HAL_ETH_MspDeInit,"ax",%progbits
 777              		.align	1
 778              		.global	HAL_ETH_MspDeInit
 779              		.syntax unified
 780              		.thumb
 781              		.thumb_func
 783              	HAL_ETH_MspDeInit:
 784              	.LVL30:
 785              	.LFB148:
 305:Src/stm32h7xx_hal_msp.c **** 
 306:Src/stm32h7xx_hal_msp.c **** /**
 307:Src/stm32h7xx_hal_msp.c **** * @brief ETH MSP De-Initialization
 308:Src/stm32h7xx_hal_msp.c **** * This function freeze the hardware resources used in this example
 309:Src/stm32h7xx_hal_msp.c **** * @param heth: ETH handle pointer
 310:Src/stm32h7xx_hal_msp.c **** * @retval None
 311:Src/stm32h7xx_hal_msp.c **** */
ARM GAS  C:\Users\theto\AppData\Local\Temp\ccMwxIgN.s 			page 24


 312:Src/stm32h7xx_hal_msp.c **** void HAL_ETH_MspDeInit(ETH_HandleTypeDef* heth)
 313:Src/stm32h7xx_hal_msp.c **** {
 786              		.loc 1 313 1 is_stmt 1 view -0
 787              		.cfi_startproc
 788              		@ args = 0, pretend = 0, frame = 0
 789              		@ frame_needed = 0, uses_anonymous_args = 0
 790              		.loc 1 313 1 is_stmt 0 view .LVU267
 791 0000 08B5     		push	{r3, lr}
 792              	.LCFI11:
 793              		.cfi_def_cfa_offset 8
 794              		.cfi_offset 3, -8
 795              		.cfi_offset 14, -4
 314:Src/stm32h7xx_hal_msp.c ****   if(heth->Instance==ETH)
 796              		.loc 1 314 3 is_stmt 1 view .LVU268
 797              		.loc 1 314 10 is_stmt 0 view .LVU269
 798 0002 0268     		ldr	r2, [r0]
 799              		.loc 1 314 5 view .LVU270
 800 0004 144B     		ldr	r3, .L34
 801 0006 9A42     		cmp	r2, r3
 802 0008 00D0     		beq	.L33
 803              	.LVL31:
 804              	.L30:
 315:Src/stm32h7xx_hal_msp.c ****   {
 316:Src/stm32h7xx_hal_msp.c ****   /* USER CODE BEGIN ETH_MspDeInit 0 */
 317:Src/stm32h7xx_hal_msp.c **** 
 318:Src/stm32h7xx_hal_msp.c ****   /* USER CODE END ETH_MspDeInit 0 */
 319:Src/stm32h7xx_hal_msp.c ****     /* Peripheral clock disable */
 320:Src/stm32h7xx_hal_msp.c ****     __HAL_RCC_ETH1MAC_CLK_DISABLE();
 321:Src/stm32h7xx_hal_msp.c ****     __HAL_RCC_ETH1TX_CLK_DISABLE();
 322:Src/stm32h7xx_hal_msp.c ****     __HAL_RCC_ETH1RX_CLK_DISABLE();
 323:Src/stm32h7xx_hal_msp.c **** 
 324:Src/stm32h7xx_hal_msp.c ****     /**ETH GPIO Configuration
 325:Src/stm32h7xx_hal_msp.c ****     PC1     ------> ETH_MDC
 326:Src/stm32h7xx_hal_msp.c ****     PA1     ------> ETH_REF_CLK
 327:Src/stm32h7xx_hal_msp.c ****     PA2     ------> ETH_MDIO
 328:Src/stm32h7xx_hal_msp.c ****     PA7     ------> ETH_CRS_DV
 329:Src/stm32h7xx_hal_msp.c ****     PC4     ------> ETH_RXD0
 330:Src/stm32h7xx_hal_msp.c ****     PC5     ------> ETH_RXD1
 331:Src/stm32h7xx_hal_msp.c ****     PB13     ------> ETH_TXD1
 332:Src/stm32h7xx_hal_msp.c ****     PG11     ------> ETH_TX_EN
 333:Src/stm32h7xx_hal_msp.c ****     PG13     ------> ETH_TXD0
 334:Src/stm32h7xx_hal_msp.c ****     */
 335:Src/stm32h7xx_hal_msp.c ****     HAL_GPIO_DeInit(GPIOC, GPIO_PIN_1|GPIO_PIN_4|GPIO_PIN_5);
 336:Src/stm32h7xx_hal_msp.c **** 
 337:Src/stm32h7xx_hal_msp.c ****     HAL_GPIO_DeInit(GPIOA, GPIO_PIN_1|GPIO_PIN_2|GPIO_PIN_7);
 338:Src/stm32h7xx_hal_msp.c **** 
 339:Src/stm32h7xx_hal_msp.c ****     HAL_GPIO_DeInit(GPIOB, GPIO_PIN_13);
 340:Src/stm32h7xx_hal_msp.c **** 
 341:Src/stm32h7xx_hal_msp.c ****     HAL_GPIO_DeInit(GPIOG, GPIO_PIN_11|GPIO_PIN_13);
 342:Src/stm32h7xx_hal_msp.c **** 
 343:Src/stm32h7xx_hal_msp.c ****   /* USER CODE BEGIN ETH_MspDeInit 1 */
 344:Src/stm32h7xx_hal_msp.c **** 
 345:Src/stm32h7xx_hal_msp.c ****   /* USER CODE END ETH_MspDeInit 1 */
 346:Src/stm32h7xx_hal_msp.c ****   }
 347:Src/stm32h7xx_hal_msp.c **** 
 348:Src/stm32h7xx_hal_msp.c **** }
 805              		.loc 1 348 1 view .LVU271
ARM GAS  C:\Users\theto\AppData\Local\Temp\ccMwxIgN.s 			page 25


 806 000a 08BD     		pop	{r3, pc}
 807              	.LVL32:
 808              	.L33:
 320:Src/stm32h7xx_hal_msp.c ****     __HAL_RCC_ETH1TX_CLK_DISABLE();
 809              		.loc 1 320 5 is_stmt 1 view .LVU272
 810 000c 134B     		ldr	r3, .L34+4
 811 000e D3F8D820 		ldr	r2, [r3, #216]
 812 0012 22F40042 		bic	r2, r2, #32768
 813 0016 C3F8D820 		str	r2, [r3, #216]
 321:Src/stm32h7xx_hal_msp.c ****     __HAL_RCC_ETH1RX_CLK_DISABLE();
 814              		.loc 1 321 5 view .LVU273
 815 001a D3F8D820 		ldr	r2, [r3, #216]
 816 001e 22F48032 		bic	r2, r2, #65536
 817 0022 C3F8D820 		str	r2, [r3, #216]
 322:Src/stm32h7xx_hal_msp.c **** 
 818              		.loc 1 322 5 view .LVU274
 819 0026 D3F8D820 		ldr	r2, [r3, #216]
 820 002a 22F40032 		bic	r2, r2, #131072
 821 002e C3F8D820 		str	r2, [r3, #216]
 335:Src/stm32h7xx_hal_msp.c **** 
 822              		.loc 1 335 5 view .LVU275
 823 0032 3221     		movs	r1, #50
 824 0034 0A48     		ldr	r0, .L34+8
 825              	.LVL33:
 335:Src/stm32h7xx_hal_msp.c **** 
 826              		.loc 1 335 5 is_stmt 0 view .LVU276
 827 0036 FFF7FEFF 		bl	HAL_GPIO_DeInit
 828              	.LVL34:
 337:Src/stm32h7xx_hal_msp.c **** 
 829              		.loc 1 337 5 is_stmt 1 view .LVU277
 830 003a 8621     		movs	r1, #134
 831 003c 0948     		ldr	r0, .L34+12
 832 003e FFF7FEFF 		bl	HAL_GPIO_DeInit
 833              	.LVL35:
 339:Src/stm32h7xx_hal_msp.c **** 
 834              		.loc 1 339 5 view .LVU278
 835 0042 4FF40051 		mov	r1, #8192
 836 0046 0848     		ldr	r0, .L34+16
 837 0048 FFF7FEFF 		bl	HAL_GPIO_DeInit
 838              	.LVL36:
 341:Src/stm32h7xx_hal_msp.c **** 
 839              		.loc 1 341 5 view .LVU279
 840 004c 4FF42051 		mov	r1, #10240
 841 0050 0648     		ldr	r0, .L34+20
 842 0052 FFF7FEFF 		bl	HAL_GPIO_DeInit
 843              	.LVL37:
 844              		.loc 1 348 1 is_stmt 0 view .LVU280
 845 0056 D8E7     		b	.L30
 846              	.L35:
 847              		.align	2
 848              	.L34:
 849 0058 00800240 		.word	1073905664
 850 005c 00440258 		.word	1476543488
 851 0060 00080258 		.word	1476528128
 852 0064 00000258 		.word	1476526080
 853 0068 00040258 		.word	1476527104
 854 006c 00180258 		.word	1476532224
ARM GAS  C:\Users\theto\AppData\Local\Temp\ccMwxIgN.s 			page 26


 855              		.cfi_endproc
 856              	.LFE148:
 858              		.section	.text.HAL_I2C_MspInit,"ax",%progbits
 859              		.align	1
 860              		.global	HAL_I2C_MspInit
 861              		.syntax unified
 862              		.thumb
 863              		.thumb_func
 865              	HAL_I2C_MspInit:
 866              	.LVL38:
 867              	.LFB149:
 349:Src/stm32h7xx_hal_msp.c **** 
 350:Src/stm32h7xx_hal_msp.c **** /**
 351:Src/stm32h7xx_hal_msp.c **** * @brief I2C MSP Initialization
 352:Src/stm32h7xx_hal_msp.c **** * This function configures the hardware resources used in this example
 353:Src/stm32h7xx_hal_msp.c **** * @param hi2c: I2C handle pointer
 354:Src/stm32h7xx_hal_msp.c **** * @retval None
 355:Src/stm32h7xx_hal_msp.c **** */
 356:Src/stm32h7xx_hal_msp.c **** void HAL_I2C_MspInit(I2C_HandleTypeDef* hi2c)
 357:Src/stm32h7xx_hal_msp.c **** {
 868              		.loc 1 357 1 is_stmt 1 view -0
 869              		.cfi_startproc
 870              		@ args = 0, pretend = 0, frame = 224
 871              		@ frame_needed = 0, uses_anonymous_args = 0
 872              		.loc 1 357 1 is_stmt 0 view .LVU282
 873 0000 10B5     		push	{r4, lr}
 874              	.LCFI12:
 875              		.cfi_def_cfa_offset 8
 876              		.cfi_offset 4, -8
 877              		.cfi_offset 14, -4
 878 0002 B8B0     		sub	sp, sp, #224
 879              	.LCFI13:
 880              		.cfi_def_cfa_offset 232
 881 0004 0446     		mov	r4, r0
 358:Src/stm32h7xx_hal_msp.c ****   GPIO_InitTypeDef GPIO_InitStruct = {0};
 882              		.loc 1 358 3 is_stmt 1 view .LVU283
 883              		.loc 1 358 20 is_stmt 0 view .LVU284
 884 0006 0021     		movs	r1, #0
 885 0008 3391     		str	r1, [sp, #204]
 886 000a 3491     		str	r1, [sp, #208]
 887 000c 3591     		str	r1, [sp, #212]
 888 000e 3691     		str	r1, [sp, #216]
 889 0010 3791     		str	r1, [sp, #220]
 359:Src/stm32h7xx_hal_msp.c ****   RCC_PeriphCLKInitTypeDef PeriphClkInitStruct = {0};
 890              		.loc 1 359 3 is_stmt 1 view .LVU285
 891              		.loc 1 359 28 is_stmt 0 view .LVU286
 892 0012 C022     		movs	r2, #192
 893 0014 02A8     		add	r0, sp, #8
 894              	.LVL39:
 895              		.loc 1 359 28 view .LVU287
 896 0016 FFF7FEFF 		bl	memset
 897              	.LVL40:
 360:Src/stm32h7xx_hal_msp.c ****   if(hi2c->Instance==I2C1)
 898              		.loc 1 360 3 is_stmt 1 view .LVU288
 899              		.loc 1 360 10 is_stmt 0 view .LVU289
 900 001a 2268     		ldr	r2, [r4]
 901              		.loc 1 360 5 view .LVU290
ARM GAS  C:\Users\theto\AppData\Local\Temp\ccMwxIgN.s 			page 27


 902 001c 1B4B     		ldr	r3, .L42
 903 001e 9A42     		cmp	r2, r3
 904 0020 01D0     		beq	.L40
 905              	.LVL41:
 906              	.L36:
 361:Src/stm32h7xx_hal_msp.c ****   {
 362:Src/stm32h7xx_hal_msp.c ****   /* USER CODE BEGIN I2C1_MspInit 0 */
 363:Src/stm32h7xx_hal_msp.c **** 
 364:Src/stm32h7xx_hal_msp.c ****   /* USER CODE END I2C1_MspInit 0 */
 365:Src/stm32h7xx_hal_msp.c **** 
 366:Src/stm32h7xx_hal_msp.c ****   /** Initializes the peripherals clock
 367:Src/stm32h7xx_hal_msp.c ****   */
 368:Src/stm32h7xx_hal_msp.c ****     PeriphClkInitStruct.PeriphClockSelection = RCC_PERIPHCLK_I2C1;
 369:Src/stm32h7xx_hal_msp.c ****     PeriphClkInitStruct.I2c123ClockSelection = RCC_I2C123CLKSOURCE_D2PCLK1;
 370:Src/stm32h7xx_hal_msp.c ****     if (HAL_RCCEx_PeriphCLKConfig(&PeriphClkInitStruct) != HAL_OK)
 371:Src/stm32h7xx_hal_msp.c ****     {
 372:Src/stm32h7xx_hal_msp.c ****       Error_Handler();
 373:Src/stm32h7xx_hal_msp.c ****     }
 374:Src/stm32h7xx_hal_msp.c **** 
 375:Src/stm32h7xx_hal_msp.c ****     __HAL_RCC_GPIOB_CLK_ENABLE();
 376:Src/stm32h7xx_hal_msp.c ****     /**I2C1 GPIO Configuration
 377:Src/stm32h7xx_hal_msp.c ****     PB6     ------> I2C1_SCL
 378:Src/stm32h7xx_hal_msp.c ****     PB9     ------> I2C1_SDA
 379:Src/stm32h7xx_hal_msp.c ****     */
 380:Src/stm32h7xx_hal_msp.c ****     GPIO_InitStruct.Pin = GPIO_PIN_6|GPIO_PIN_9;
 381:Src/stm32h7xx_hal_msp.c ****     GPIO_InitStruct.Mode = GPIO_MODE_AF_OD;
 382:Src/stm32h7xx_hal_msp.c ****     GPIO_InitStruct.Pull = GPIO_NOPULL;
 383:Src/stm32h7xx_hal_msp.c ****     GPIO_InitStruct.Speed = GPIO_SPEED_FREQ_LOW;
 384:Src/stm32h7xx_hal_msp.c ****     GPIO_InitStruct.Alternate = GPIO_AF4_I2C1;
 385:Src/stm32h7xx_hal_msp.c ****     HAL_GPIO_Init(GPIOB, &GPIO_InitStruct);
 386:Src/stm32h7xx_hal_msp.c **** 
 387:Src/stm32h7xx_hal_msp.c ****     /* Peripheral clock enable */
 388:Src/stm32h7xx_hal_msp.c ****     __HAL_RCC_I2C1_CLK_ENABLE();
 389:Src/stm32h7xx_hal_msp.c ****   /* USER CODE BEGIN I2C1_MspInit 1 */
 390:Src/stm32h7xx_hal_msp.c **** 
 391:Src/stm32h7xx_hal_msp.c ****   /* USER CODE END I2C1_MspInit 1 */
 392:Src/stm32h7xx_hal_msp.c ****   }
 393:Src/stm32h7xx_hal_msp.c **** 
 394:Src/stm32h7xx_hal_msp.c **** }
 907              		.loc 1 394 1 view .LVU291
 908 0022 38B0     		add	sp, sp, #224
 909              	.LCFI14:
 910              		.cfi_remember_state
 911              		.cfi_def_cfa_offset 8
 912              		@ sp needed
 913 0024 10BD     		pop	{r4, pc}
 914              	.LVL42:
 915              	.L40:
 916              	.LCFI15:
 917              		.cfi_restore_state
 368:Src/stm32h7xx_hal_msp.c ****     PeriphClkInitStruct.I2c123ClockSelection = RCC_I2C123CLKSOURCE_D2PCLK1;
 918              		.loc 1 368 5 is_stmt 1 view .LVU292
 368:Src/stm32h7xx_hal_msp.c ****     PeriphClkInitStruct.I2c123ClockSelection = RCC_I2C123CLKSOURCE_D2PCLK1;
 919              		.loc 1 368 46 is_stmt 0 view .LVU293
 920 0026 0822     		movs	r2, #8
 921 0028 0023     		movs	r3, #0
 922 002a CDE90223 		strd	r2, [sp, #8]
ARM GAS  C:\Users\theto\AppData\Local\Temp\ccMwxIgN.s 			page 28


 369:Src/stm32h7xx_hal_msp.c ****     if (HAL_RCCEx_PeriphCLKConfig(&PeriphClkInitStruct) != HAL_OK)
 923              		.loc 1 369 5 is_stmt 1 view .LVU294
 370:Src/stm32h7xx_hal_msp.c ****     {
 924              		.loc 1 370 5 view .LVU295
 370:Src/stm32h7xx_hal_msp.c ****     {
 925              		.loc 1 370 9 is_stmt 0 view .LVU296
 926 002e 02A8     		add	r0, sp, #8
 927 0030 FFF7FEFF 		bl	HAL_RCCEx_PeriphCLKConfig
 928              	.LVL43:
 370:Src/stm32h7xx_hal_msp.c ****     {
 929              		.loc 1 370 8 view .LVU297
 930 0034 38BB     		cbnz	r0, .L41
 931              	.L38:
 375:Src/stm32h7xx_hal_msp.c ****     /**I2C1 GPIO Configuration
 932              		.loc 1 375 5 is_stmt 1 view .LVU298
 933              	.LBB16:
 375:Src/stm32h7xx_hal_msp.c ****     /**I2C1 GPIO Configuration
 934              		.loc 1 375 5 view .LVU299
 375:Src/stm32h7xx_hal_msp.c ****     /**I2C1 GPIO Configuration
 935              		.loc 1 375 5 view .LVU300
 936 0036 164C     		ldr	r4, .L42+4
 937              	.LVL44:
 375:Src/stm32h7xx_hal_msp.c ****     /**I2C1 GPIO Configuration
 938              		.loc 1 375 5 is_stmt 0 view .LVU301
 939 0038 D4F8E030 		ldr	r3, [r4, #224]
 940 003c 43F00203 		orr	r3, r3, #2
 941 0040 C4F8E030 		str	r3, [r4, #224]
 375:Src/stm32h7xx_hal_msp.c ****     /**I2C1 GPIO Configuration
 942              		.loc 1 375 5 is_stmt 1 view .LVU302
 943 0044 D4F8E030 		ldr	r3, [r4, #224]
 944 0048 03F00203 		and	r3, r3, #2
 945 004c 0093     		str	r3, [sp]
 375:Src/stm32h7xx_hal_msp.c ****     /**I2C1 GPIO Configuration
 946              		.loc 1 375 5 view .LVU303
 947 004e 009B     		ldr	r3, [sp]
 948              	.LBE16:
 375:Src/stm32h7xx_hal_msp.c ****     /**I2C1 GPIO Configuration
 949              		.loc 1 375 5 view .LVU304
 380:Src/stm32h7xx_hal_msp.c ****     GPIO_InitStruct.Mode = GPIO_MODE_AF_OD;
 950              		.loc 1 380 5 view .LVU305
 380:Src/stm32h7xx_hal_msp.c ****     GPIO_InitStruct.Mode = GPIO_MODE_AF_OD;
 951              		.loc 1 380 25 is_stmt 0 view .LVU306
 952 0050 4FF41073 		mov	r3, #576
 953 0054 3393     		str	r3, [sp, #204]
 381:Src/stm32h7xx_hal_msp.c ****     GPIO_InitStruct.Pull = GPIO_NOPULL;
 954              		.loc 1 381 5 is_stmt 1 view .LVU307
 381:Src/stm32h7xx_hal_msp.c ****     GPIO_InitStruct.Pull = GPIO_NOPULL;
 955              		.loc 1 381 26 is_stmt 0 view .LVU308
 956 0056 1223     		movs	r3, #18
 957 0058 3493     		str	r3, [sp, #208]
 382:Src/stm32h7xx_hal_msp.c ****     GPIO_InitStruct.Speed = GPIO_SPEED_FREQ_LOW;
 958              		.loc 1 382 5 is_stmt 1 view .LVU309
 382:Src/stm32h7xx_hal_msp.c ****     GPIO_InitStruct.Speed = GPIO_SPEED_FREQ_LOW;
 959              		.loc 1 382 26 is_stmt 0 view .LVU310
 960 005a 0023     		movs	r3, #0
 961 005c 3593     		str	r3, [sp, #212]
 383:Src/stm32h7xx_hal_msp.c ****     GPIO_InitStruct.Alternate = GPIO_AF4_I2C1;
ARM GAS  C:\Users\theto\AppData\Local\Temp\ccMwxIgN.s 			page 29


 962              		.loc 1 383 5 is_stmt 1 view .LVU311
 383:Src/stm32h7xx_hal_msp.c ****     GPIO_InitStruct.Alternate = GPIO_AF4_I2C1;
 963              		.loc 1 383 27 is_stmt 0 view .LVU312
 964 005e 3693     		str	r3, [sp, #216]
 384:Src/stm32h7xx_hal_msp.c ****     HAL_GPIO_Init(GPIOB, &GPIO_InitStruct);
 965              		.loc 1 384 5 is_stmt 1 view .LVU313
 384:Src/stm32h7xx_hal_msp.c ****     HAL_GPIO_Init(GPIOB, &GPIO_InitStruct);
 966              		.loc 1 384 31 is_stmt 0 view .LVU314
 967 0060 0423     		movs	r3, #4
 968 0062 3793     		str	r3, [sp, #220]
 385:Src/stm32h7xx_hal_msp.c **** 
 969              		.loc 1 385 5 is_stmt 1 view .LVU315
 970 0064 33A9     		add	r1, sp, #204
 971 0066 0B48     		ldr	r0, .L42+8
 972 0068 FFF7FEFF 		bl	HAL_GPIO_Init
 973              	.LVL45:
 388:Src/stm32h7xx_hal_msp.c ****   /* USER CODE BEGIN I2C1_MspInit 1 */
 974              		.loc 1 388 5 view .LVU316
 975              	.LBB17:
 388:Src/stm32h7xx_hal_msp.c ****   /* USER CODE BEGIN I2C1_MspInit 1 */
 976              		.loc 1 388 5 view .LVU317
 388:Src/stm32h7xx_hal_msp.c ****   /* USER CODE BEGIN I2C1_MspInit 1 */
 977              		.loc 1 388 5 view .LVU318
 978 006c D4F8E830 		ldr	r3, [r4, #232]
 979 0070 43F40013 		orr	r3, r3, #2097152
 980 0074 C4F8E830 		str	r3, [r4, #232]
 388:Src/stm32h7xx_hal_msp.c ****   /* USER CODE BEGIN I2C1_MspInit 1 */
 981              		.loc 1 388 5 view .LVU319
 982 0078 D4F8E830 		ldr	r3, [r4, #232]
 983 007c 03F40013 		and	r3, r3, #2097152
 984 0080 0193     		str	r3, [sp, #4]
 388:Src/stm32h7xx_hal_msp.c ****   /* USER CODE BEGIN I2C1_MspInit 1 */
 985              		.loc 1 388 5 view .LVU320
 986 0082 019B     		ldr	r3, [sp, #4]
 987              	.LBE17:
 388:Src/stm32h7xx_hal_msp.c ****   /* USER CODE BEGIN I2C1_MspInit 1 */
 988              		.loc 1 388 5 view .LVU321
 989              		.loc 1 394 1 is_stmt 0 view .LVU322
 990 0084 CDE7     		b	.L36
 991              	.LVL46:
 992              	.L41:
 372:Src/stm32h7xx_hal_msp.c ****     }
 993              		.loc 1 372 7 is_stmt 1 view .LVU323
 994 0086 FFF7FEFF 		bl	Error_Handler
 995              	.LVL47:
 996 008a D4E7     		b	.L38
 997              	.L43:
 998              		.align	2
 999              	.L42:
 1000 008c 00540040 		.word	1073763328
 1001 0090 00440258 		.word	1476543488
 1002 0094 00040258 		.word	1476527104
 1003              		.cfi_endproc
 1004              	.LFE149:
 1006              		.section	.text.HAL_I2C_MspDeInit,"ax",%progbits
 1007              		.align	1
 1008              		.global	HAL_I2C_MspDeInit
ARM GAS  C:\Users\theto\AppData\Local\Temp\ccMwxIgN.s 			page 30


 1009              		.syntax unified
 1010              		.thumb
 1011              		.thumb_func
 1013              	HAL_I2C_MspDeInit:
 1014              	.LVL48:
 1015              	.LFB150:
 395:Src/stm32h7xx_hal_msp.c **** 
 396:Src/stm32h7xx_hal_msp.c **** /**
 397:Src/stm32h7xx_hal_msp.c **** * @brief I2C MSP De-Initialization
 398:Src/stm32h7xx_hal_msp.c **** * This function freeze the hardware resources used in this example
 399:Src/stm32h7xx_hal_msp.c **** * @param hi2c: I2C handle pointer
 400:Src/stm32h7xx_hal_msp.c **** * @retval None
 401:Src/stm32h7xx_hal_msp.c **** */
 402:Src/stm32h7xx_hal_msp.c **** void HAL_I2C_MspDeInit(I2C_HandleTypeDef* hi2c)
 403:Src/stm32h7xx_hal_msp.c **** {
 1016              		.loc 1 403 1 view -0
 1017              		.cfi_startproc
 1018              		@ args = 0, pretend = 0, frame = 0
 1019              		@ frame_needed = 0, uses_anonymous_args = 0
 404:Src/stm32h7xx_hal_msp.c ****   if(hi2c->Instance==I2C1)
 1020              		.loc 1 404 3 view .LVU325
 1021              		.loc 1 404 10 is_stmt 0 view .LVU326
 1022 0000 0268     		ldr	r2, [r0]
 1023              		.loc 1 404 5 view .LVU327
 1024 0002 0B4B     		ldr	r3, .L51
 1025 0004 9A42     		cmp	r2, r3
 1026 0006 00D0     		beq	.L50
 1027 0008 7047     		bx	lr
 1028              	.L50:
 403:Src/stm32h7xx_hal_msp.c ****   if(hi2c->Instance==I2C1)
 1029              		.loc 1 403 1 view .LVU328
 1030 000a 10B5     		push	{r4, lr}
 1031              	.LCFI16:
 1032              		.cfi_def_cfa_offset 8
 1033              		.cfi_offset 4, -8
 1034              		.cfi_offset 14, -4
 405:Src/stm32h7xx_hal_msp.c ****   {
 406:Src/stm32h7xx_hal_msp.c ****   /* USER CODE BEGIN I2C1_MspDeInit 0 */
 407:Src/stm32h7xx_hal_msp.c **** 
 408:Src/stm32h7xx_hal_msp.c ****   /* USER CODE END I2C1_MspDeInit 0 */
 409:Src/stm32h7xx_hal_msp.c ****     /* Peripheral clock disable */
 410:Src/stm32h7xx_hal_msp.c ****     __HAL_RCC_I2C1_CLK_DISABLE();
 1035              		.loc 1 410 5 is_stmt 1 view .LVU329
 1036 000c 094A     		ldr	r2, .L51+4
 1037 000e D2F8E830 		ldr	r3, [r2, #232]
 1038 0012 23F40013 		bic	r3, r3, #2097152
 1039 0016 C2F8E830 		str	r3, [r2, #232]
 411:Src/stm32h7xx_hal_msp.c **** 
 412:Src/stm32h7xx_hal_msp.c ****     /**I2C1 GPIO Configuration
 413:Src/stm32h7xx_hal_msp.c ****     PB6     ------> I2C1_SCL
 414:Src/stm32h7xx_hal_msp.c ****     PB9     ------> I2C1_SDA
 415:Src/stm32h7xx_hal_msp.c ****     */
 416:Src/stm32h7xx_hal_msp.c ****     HAL_GPIO_DeInit(GPIOB, GPIO_PIN_6);
 1040              		.loc 1 416 5 view .LVU330
 1041 001a 074C     		ldr	r4, .L51+8
 1042 001c 4021     		movs	r1, #64
 1043 001e 2046     		mov	r0, r4
ARM GAS  C:\Users\theto\AppData\Local\Temp\ccMwxIgN.s 			page 31


 1044              	.LVL49:
 1045              		.loc 1 416 5 is_stmt 0 view .LVU331
 1046 0020 FFF7FEFF 		bl	HAL_GPIO_DeInit
 1047              	.LVL50:
 417:Src/stm32h7xx_hal_msp.c **** 
 418:Src/stm32h7xx_hal_msp.c ****     HAL_GPIO_DeInit(GPIOB, GPIO_PIN_9);
 1048              		.loc 1 418 5 is_stmt 1 view .LVU332
 1049 0024 4FF40071 		mov	r1, #512
 1050 0028 2046     		mov	r0, r4
 1051 002a FFF7FEFF 		bl	HAL_GPIO_DeInit
 1052              	.LVL51:
 419:Src/stm32h7xx_hal_msp.c **** 
 420:Src/stm32h7xx_hal_msp.c ****   /* USER CODE BEGIN I2C1_MspDeInit 1 */
 421:Src/stm32h7xx_hal_msp.c **** 
 422:Src/stm32h7xx_hal_msp.c ****   /* USER CODE END I2C1_MspDeInit 1 */
 423:Src/stm32h7xx_hal_msp.c ****   }
 424:Src/stm32h7xx_hal_msp.c **** 
 425:Src/stm32h7xx_hal_msp.c **** }
 1053              		.loc 1 425 1 is_stmt 0 view .LVU333
 1054 002e 10BD     		pop	{r4, pc}
 1055              	.L52:
 1056              		.align	2
 1057              	.L51:
 1058 0030 00540040 		.word	1073763328
 1059 0034 00440258 		.word	1476543488
 1060 0038 00040258 		.word	1476527104
 1061              		.cfi_endproc
 1062              	.LFE150:
 1064              		.section	.text.HAL_LPTIM_MspInit,"ax",%progbits
 1065              		.align	1
 1066              		.global	HAL_LPTIM_MspInit
 1067              		.syntax unified
 1068              		.thumb
 1069              		.thumb_func
 1071              	HAL_LPTIM_MspInit:
 1072              	.LVL52:
 1073              	.LFB151:
 426:Src/stm32h7xx_hal_msp.c **** 
 427:Src/stm32h7xx_hal_msp.c **** /**
 428:Src/stm32h7xx_hal_msp.c **** * @brief LPTIM MSP Initialization
 429:Src/stm32h7xx_hal_msp.c **** * This function configures the hardware resources used in this example
 430:Src/stm32h7xx_hal_msp.c **** * @param hlptim: LPTIM handle pointer
 431:Src/stm32h7xx_hal_msp.c **** * @retval None
 432:Src/stm32h7xx_hal_msp.c **** */
 433:Src/stm32h7xx_hal_msp.c **** void HAL_LPTIM_MspInit(LPTIM_HandleTypeDef* hlptim)
 434:Src/stm32h7xx_hal_msp.c **** {
 1074              		.loc 1 434 1 is_stmt 1 view -0
 1075              		.cfi_startproc
 1076              		@ args = 0, pretend = 0, frame = 200
 1077              		@ frame_needed = 0, uses_anonymous_args = 0
 1078              		.loc 1 434 1 is_stmt 0 view .LVU335
 1079 0000 10B5     		push	{r4, lr}
 1080              	.LCFI17:
 1081              		.cfi_def_cfa_offset 8
 1082              		.cfi_offset 4, -8
 1083              		.cfi_offset 14, -4
 1084 0002 B2B0     		sub	sp, sp, #200
ARM GAS  C:\Users\theto\AppData\Local\Temp\ccMwxIgN.s 			page 32


 1085              	.LCFI18:
 1086              		.cfi_def_cfa_offset 208
 1087 0004 0446     		mov	r4, r0
 435:Src/stm32h7xx_hal_msp.c ****   RCC_PeriphCLKInitTypeDef PeriphClkInitStruct = {0};
 1088              		.loc 1 435 3 is_stmt 1 view .LVU336
 1089              		.loc 1 435 28 is_stmt 0 view .LVU337
 1090 0006 C022     		movs	r2, #192
 1091 0008 0021     		movs	r1, #0
 1092 000a 02A8     		add	r0, sp, #8
 1093              	.LVL53:
 1094              		.loc 1 435 28 view .LVU338
 1095 000c FFF7FEFF 		bl	memset
 1096              	.LVL54:
 436:Src/stm32h7xx_hal_msp.c ****   if(hlptim->Instance==LPTIM1)
 1097              		.loc 1 436 3 is_stmt 1 view .LVU339
 1098              		.loc 1 436 12 is_stmt 0 view .LVU340
 1099 0010 2268     		ldr	r2, [r4]
 1100              		.loc 1 436 5 view .LVU341
 1101 0012 0F4B     		ldr	r3, .L59
 1102 0014 9A42     		cmp	r2, r3
 1103 0016 01D0     		beq	.L57
 1104              	.L53:
 437:Src/stm32h7xx_hal_msp.c ****   {
 438:Src/stm32h7xx_hal_msp.c ****   /* USER CODE BEGIN LPTIM1_MspInit 0 */
 439:Src/stm32h7xx_hal_msp.c **** 
 440:Src/stm32h7xx_hal_msp.c ****   /* USER CODE END LPTIM1_MspInit 0 */
 441:Src/stm32h7xx_hal_msp.c **** 
 442:Src/stm32h7xx_hal_msp.c ****   /** Initializes the peripherals clock
 443:Src/stm32h7xx_hal_msp.c ****   */
 444:Src/stm32h7xx_hal_msp.c ****     PeriphClkInitStruct.PeriphClockSelection = RCC_PERIPHCLK_LPTIM1;
 445:Src/stm32h7xx_hal_msp.c ****     PeriphClkInitStruct.Lptim1ClockSelection = RCC_LPTIM1CLKSOURCE_D2PCLK1;
 446:Src/stm32h7xx_hal_msp.c ****     if (HAL_RCCEx_PeriphCLKConfig(&PeriphClkInitStruct) != HAL_OK)
 447:Src/stm32h7xx_hal_msp.c ****     {
 448:Src/stm32h7xx_hal_msp.c ****       Error_Handler();
 449:Src/stm32h7xx_hal_msp.c ****     }
 450:Src/stm32h7xx_hal_msp.c **** 
 451:Src/stm32h7xx_hal_msp.c ****     /* Peripheral clock enable */
 452:Src/stm32h7xx_hal_msp.c ****     __HAL_RCC_LPTIM1_CLK_ENABLE();
 453:Src/stm32h7xx_hal_msp.c ****   /* USER CODE BEGIN LPTIM1_MspInit 1 */
 454:Src/stm32h7xx_hal_msp.c **** 
 455:Src/stm32h7xx_hal_msp.c ****   /* USER CODE END LPTIM1_MspInit 1 */
 456:Src/stm32h7xx_hal_msp.c ****   }
 457:Src/stm32h7xx_hal_msp.c **** 
 458:Src/stm32h7xx_hal_msp.c **** }
 1105              		.loc 1 458 1 view .LVU342
 1106 0018 32B0     		add	sp, sp, #200
 1107              	.LCFI19:
 1108              		.cfi_remember_state
 1109              		.cfi_def_cfa_offset 8
 1110              		@ sp needed
 1111 001a 10BD     		pop	{r4, pc}
 1112              	.LVL55:
 1113              	.L57:
 1114              	.LCFI20:
 1115              		.cfi_restore_state
 444:Src/stm32h7xx_hal_msp.c ****     PeriphClkInitStruct.Lptim1ClockSelection = RCC_LPTIM1CLKSOURCE_D2PCLK1;
 1116              		.loc 1 444 5 is_stmt 1 view .LVU343
ARM GAS  C:\Users\theto\AppData\Local\Temp\ccMwxIgN.s 			page 33


 444:Src/stm32h7xx_hal_msp.c ****     PeriphClkInitStruct.Lptim1ClockSelection = RCC_LPTIM1CLKSOURCE_D2PCLK1;
 1117              		.loc 1 444 46 is_stmt 0 view .LVU344
 1118 001c 2022     		movs	r2, #32
 1119 001e 0023     		movs	r3, #0
 1120 0020 CDE90223 		strd	r2, [sp, #8]
 445:Src/stm32h7xx_hal_msp.c ****     if (HAL_RCCEx_PeriphCLKConfig(&PeriphClkInitStruct) != HAL_OK)
 1121              		.loc 1 445 5 is_stmt 1 view .LVU345
 446:Src/stm32h7xx_hal_msp.c ****     {
 1122              		.loc 1 446 5 view .LVU346
 446:Src/stm32h7xx_hal_msp.c ****     {
 1123              		.loc 1 446 9 is_stmt 0 view .LVU347
 1124 0024 02A8     		add	r0, sp, #8
 1125 0026 FFF7FEFF 		bl	HAL_RCCEx_PeriphCLKConfig
 1126              	.LVL56:
 446:Src/stm32h7xx_hal_msp.c ****     {
 1127              		.loc 1 446 8 view .LVU348
 1128 002a 68B9     		cbnz	r0, .L58
 1129              	.L55:
 452:Src/stm32h7xx_hal_msp.c ****   /* USER CODE BEGIN LPTIM1_MspInit 1 */
 1130              		.loc 1 452 5 is_stmt 1 view .LVU349
 1131              	.LBB18:
 452:Src/stm32h7xx_hal_msp.c ****   /* USER CODE BEGIN LPTIM1_MspInit 1 */
 1132              		.loc 1 452 5 view .LVU350
 452:Src/stm32h7xx_hal_msp.c ****   /* USER CODE BEGIN LPTIM1_MspInit 1 */
 1133              		.loc 1 452 5 view .LVU351
 1134 002c 094B     		ldr	r3, .L59+4
 1135 002e D3F8E820 		ldr	r2, [r3, #232]
 1136 0032 42F40072 		orr	r2, r2, #512
 1137 0036 C3F8E820 		str	r2, [r3, #232]
 452:Src/stm32h7xx_hal_msp.c ****   /* USER CODE BEGIN LPTIM1_MspInit 1 */
 1138              		.loc 1 452 5 view .LVU352
 1139 003a D3F8E830 		ldr	r3, [r3, #232]
 1140 003e 03F40073 		and	r3, r3, #512
 1141 0042 0193     		str	r3, [sp, #4]
 452:Src/stm32h7xx_hal_msp.c ****   /* USER CODE BEGIN LPTIM1_MspInit 1 */
 1142              		.loc 1 452 5 view .LVU353
 1143 0044 019B     		ldr	r3, [sp, #4]
 1144              	.LBE18:
 452:Src/stm32h7xx_hal_msp.c ****   /* USER CODE BEGIN LPTIM1_MspInit 1 */
 1145              		.loc 1 452 5 view .LVU354
 1146              		.loc 1 458 1 is_stmt 0 view .LVU355
 1147 0046 E7E7     		b	.L53
 1148              	.L58:
 448:Src/stm32h7xx_hal_msp.c ****     }
 1149              		.loc 1 448 7 is_stmt 1 view .LVU356
 1150 0048 FFF7FEFF 		bl	Error_Handler
 1151              	.LVL57:
 1152 004c EEE7     		b	.L55
 1153              	.L60:
 1154 004e 00BF     		.align	2
 1155              	.L59:
 1156 0050 00240040 		.word	1073751040
 1157 0054 00440258 		.word	1476543488
 1158              		.cfi_endproc
 1159              	.LFE151:
 1161              		.section	.text.HAL_LPTIM_MspDeInit,"ax",%progbits
 1162              		.align	1
ARM GAS  C:\Users\theto\AppData\Local\Temp\ccMwxIgN.s 			page 34


 1163              		.global	HAL_LPTIM_MspDeInit
 1164              		.syntax unified
 1165              		.thumb
 1166              		.thumb_func
 1168              	HAL_LPTIM_MspDeInit:
 1169              	.LVL58:
 1170              	.LFB152:
 459:Src/stm32h7xx_hal_msp.c **** 
 460:Src/stm32h7xx_hal_msp.c **** /**
 461:Src/stm32h7xx_hal_msp.c **** * @brief LPTIM MSP De-Initialization
 462:Src/stm32h7xx_hal_msp.c **** * This function freeze the hardware resources used in this example
 463:Src/stm32h7xx_hal_msp.c **** * @param hlptim: LPTIM handle pointer
 464:Src/stm32h7xx_hal_msp.c **** * @retval None
 465:Src/stm32h7xx_hal_msp.c **** */
 466:Src/stm32h7xx_hal_msp.c **** void HAL_LPTIM_MspDeInit(LPTIM_HandleTypeDef* hlptim)
 467:Src/stm32h7xx_hal_msp.c **** {
 1171              		.loc 1 467 1 view -0
 1172              		.cfi_startproc
 1173              		@ args = 0, pretend = 0, frame = 0
 1174              		@ frame_needed = 0, uses_anonymous_args = 0
 1175              		@ link register save eliminated.
 468:Src/stm32h7xx_hal_msp.c ****   if(hlptim->Instance==LPTIM1)
 1176              		.loc 1 468 3 view .LVU358
 1177              		.loc 1 468 12 is_stmt 0 view .LVU359
 1178 0000 0268     		ldr	r2, [r0]
 1179              		.loc 1 468 5 view .LVU360
 1180 0002 064B     		ldr	r3, .L64
 1181 0004 9A42     		cmp	r2, r3
 1182 0006 00D0     		beq	.L63
 1183              	.L61:
 469:Src/stm32h7xx_hal_msp.c ****   {
 470:Src/stm32h7xx_hal_msp.c ****   /* USER CODE BEGIN LPTIM1_MspDeInit 0 */
 471:Src/stm32h7xx_hal_msp.c **** 
 472:Src/stm32h7xx_hal_msp.c ****   /* USER CODE END LPTIM1_MspDeInit 0 */
 473:Src/stm32h7xx_hal_msp.c ****     /* Peripheral clock disable */
 474:Src/stm32h7xx_hal_msp.c ****     __HAL_RCC_LPTIM1_CLK_DISABLE();
 475:Src/stm32h7xx_hal_msp.c ****   /* USER CODE BEGIN LPTIM1_MspDeInit 1 */
 476:Src/stm32h7xx_hal_msp.c **** 
 477:Src/stm32h7xx_hal_msp.c ****   /* USER CODE END LPTIM1_MspDeInit 1 */
 478:Src/stm32h7xx_hal_msp.c ****   }
 479:Src/stm32h7xx_hal_msp.c **** 
 480:Src/stm32h7xx_hal_msp.c **** }
 1184              		.loc 1 480 1 view .LVU361
 1185 0008 7047     		bx	lr
 1186              	.L63:
 474:Src/stm32h7xx_hal_msp.c ****   /* USER CODE BEGIN LPTIM1_MspDeInit 1 */
 1187              		.loc 1 474 5 is_stmt 1 view .LVU362
 1188 000a 054A     		ldr	r2, .L64+4
 1189 000c D2F8E830 		ldr	r3, [r2, #232]
 1190 0010 23F40073 		bic	r3, r3, #512
 1191 0014 C2F8E830 		str	r3, [r2, #232]
 1192              		.loc 1 480 1 is_stmt 0 view .LVU363
 1193 0018 F6E7     		b	.L61
 1194              	.L65:
 1195 001a 00BF     		.align	2
 1196              	.L64:
 1197 001c 00240040 		.word	1073751040
ARM GAS  C:\Users\theto\AppData\Local\Temp\ccMwxIgN.s 			page 35


 1198 0020 00440258 		.word	1476543488
 1199              		.cfi_endproc
 1200              	.LFE152:
 1202              		.section	.text.HAL_UART_MspInit,"ax",%progbits
 1203              		.align	1
 1204              		.global	HAL_UART_MspInit
 1205              		.syntax unified
 1206              		.thumb
 1207              		.thumb_func
 1209              	HAL_UART_MspInit:
 1210              	.LVL59:
 1211              	.LFB153:
 481:Src/stm32h7xx_hal_msp.c **** 
 482:Src/stm32h7xx_hal_msp.c **** /**
 483:Src/stm32h7xx_hal_msp.c **** * @brief UART MSP Initialization
 484:Src/stm32h7xx_hal_msp.c **** * This function configures the hardware resources used in this example
 485:Src/stm32h7xx_hal_msp.c **** * @param huart: UART handle pointer
 486:Src/stm32h7xx_hal_msp.c **** * @retval None
 487:Src/stm32h7xx_hal_msp.c **** */
 488:Src/stm32h7xx_hal_msp.c **** void HAL_UART_MspInit(UART_HandleTypeDef* huart)
 489:Src/stm32h7xx_hal_msp.c **** {
 1212              		.loc 1 489 1 is_stmt 1 view -0
 1213              		.cfi_startproc
 1214              		@ args = 0, pretend = 0, frame = 224
 1215              		@ frame_needed = 0, uses_anonymous_args = 0
 1216              		.loc 1 489 1 is_stmt 0 view .LVU365
 1217 0000 10B5     		push	{r4, lr}
 1218              	.LCFI21:
 1219              		.cfi_def_cfa_offset 8
 1220              		.cfi_offset 4, -8
 1221              		.cfi_offset 14, -4
 1222 0002 B8B0     		sub	sp, sp, #224
 1223              	.LCFI22:
 1224              		.cfi_def_cfa_offset 232
 1225 0004 0446     		mov	r4, r0
 490:Src/stm32h7xx_hal_msp.c ****   GPIO_InitTypeDef GPIO_InitStruct = {0};
 1226              		.loc 1 490 3 is_stmt 1 view .LVU366
 1227              		.loc 1 490 20 is_stmt 0 view .LVU367
 1228 0006 0021     		movs	r1, #0
 1229 0008 3391     		str	r1, [sp, #204]
 1230 000a 3491     		str	r1, [sp, #208]
 1231 000c 3591     		str	r1, [sp, #212]
 1232 000e 3691     		str	r1, [sp, #216]
 1233 0010 3791     		str	r1, [sp, #220]
 491:Src/stm32h7xx_hal_msp.c ****   RCC_PeriphCLKInitTypeDef PeriphClkInitStruct = {0};
 1234              		.loc 1 491 3 is_stmt 1 view .LVU368
 1235              		.loc 1 491 28 is_stmt 0 view .LVU369
 1236 0012 C022     		movs	r2, #192
 1237 0014 02A8     		add	r0, sp, #8
 1238              	.LVL60:
 1239              		.loc 1 491 28 view .LVU370
 1240 0016 FFF7FEFF 		bl	memset
 1241              	.LVL61:
 492:Src/stm32h7xx_hal_msp.c ****   if(huart->Instance==USART3)
 1242              		.loc 1 492 3 is_stmt 1 view .LVU371
 1243              		.loc 1 492 11 is_stmt 0 view .LVU372
 1244 001a 2268     		ldr	r2, [r4]
ARM GAS  C:\Users\theto\AppData\Local\Temp\ccMwxIgN.s 			page 36


 1245              		.loc 1 492 5 view .LVU373
 1246 001c 1B4B     		ldr	r3, .L72
 1247 001e 9A42     		cmp	r2, r3
 1248 0020 01D0     		beq	.L70
 1249              	.L66:
 493:Src/stm32h7xx_hal_msp.c ****   {
 494:Src/stm32h7xx_hal_msp.c ****   /* USER CODE BEGIN USART3_MspInit 0 */
 495:Src/stm32h7xx_hal_msp.c **** 
 496:Src/stm32h7xx_hal_msp.c ****   /* USER CODE END USART3_MspInit 0 */
 497:Src/stm32h7xx_hal_msp.c **** 
 498:Src/stm32h7xx_hal_msp.c ****   /** Initializes the peripherals clock
 499:Src/stm32h7xx_hal_msp.c ****   */
 500:Src/stm32h7xx_hal_msp.c ****     PeriphClkInitStruct.PeriphClockSelection = RCC_PERIPHCLK_USART3;
 501:Src/stm32h7xx_hal_msp.c ****     PeriphClkInitStruct.Usart234578ClockSelection = RCC_USART234578CLKSOURCE_D2PCLK1;
 502:Src/stm32h7xx_hal_msp.c ****     if (HAL_RCCEx_PeriphCLKConfig(&PeriphClkInitStruct) != HAL_OK)
 503:Src/stm32h7xx_hal_msp.c ****     {
 504:Src/stm32h7xx_hal_msp.c ****       Error_Handler();
 505:Src/stm32h7xx_hal_msp.c ****     }
 506:Src/stm32h7xx_hal_msp.c **** 
 507:Src/stm32h7xx_hal_msp.c ****     /* Peripheral clock enable */
 508:Src/stm32h7xx_hal_msp.c ****     __HAL_RCC_USART3_CLK_ENABLE();
 509:Src/stm32h7xx_hal_msp.c **** 
 510:Src/stm32h7xx_hal_msp.c ****     __HAL_RCC_GPIOD_CLK_ENABLE();
 511:Src/stm32h7xx_hal_msp.c ****     /**USART3 GPIO Configuration
 512:Src/stm32h7xx_hal_msp.c ****     PD8     ------> USART3_TX
 513:Src/stm32h7xx_hal_msp.c ****     PD9     ------> USART3_RX
 514:Src/stm32h7xx_hal_msp.c ****     */
 515:Src/stm32h7xx_hal_msp.c ****     GPIO_InitStruct.Pin = STLINK_RX_Pin|STLINK_TX_Pin;
 516:Src/stm32h7xx_hal_msp.c ****     GPIO_InitStruct.Mode = GPIO_MODE_AF_PP;
 517:Src/stm32h7xx_hal_msp.c ****     GPIO_InitStruct.Pull = GPIO_NOPULL;
 518:Src/stm32h7xx_hal_msp.c ****     GPIO_InitStruct.Speed = GPIO_SPEED_FREQ_LOW;
 519:Src/stm32h7xx_hal_msp.c ****     GPIO_InitStruct.Alternate = GPIO_AF7_USART3;
 520:Src/stm32h7xx_hal_msp.c ****     HAL_GPIO_Init(GPIOD, &GPIO_InitStruct);
 521:Src/stm32h7xx_hal_msp.c **** 
 522:Src/stm32h7xx_hal_msp.c ****   /* USER CODE BEGIN USART3_MspInit 1 */
 523:Src/stm32h7xx_hal_msp.c **** 
 524:Src/stm32h7xx_hal_msp.c ****   /* USER CODE END USART3_MspInit 1 */
 525:Src/stm32h7xx_hal_msp.c ****   }
 526:Src/stm32h7xx_hal_msp.c **** 
 527:Src/stm32h7xx_hal_msp.c **** }
 1250              		.loc 1 527 1 view .LVU374
 1251 0022 38B0     		add	sp, sp, #224
 1252              	.LCFI23:
 1253              		.cfi_remember_state
 1254              		.cfi_def_cfa_offset 8
 1255              		@ sp needed
 1256 0024 10BD     		pop	{r4, pc}
 1257              	.LVL62:
 1258              	.L70:
 1259              	.LCFI24:
 1260              		.cfi_restore_state
 500:Src/stm32h7xx_hal_msp.c ****     PeriphClkInitStruct.Usart234578ClockSelection = RCC_USART234578CLKSOURCE_D2PCLK1;
 1261              		.loc 1 500 5 is_stmt 1 view .LVU375
 500:Src/stm32h7xx_hal_msp.c ****     PeriphClkInitStruct.Usart234578ClockSelection = RCC_USART234578CLKSOURCE_D2PCLK1;
 1262              		.loc 1 500 46 is_stmt 0 view .LVU376
 1263 0026 0222     		movs	r2, #2
 1264 0028 0023     		movs	r3, #0
ARM GAS  C:\Users\theto\AppData\Local\Temp\ccMwxIgN.s 			page 37


 1265 002a CDE90223 		strd	r2, [sp, #8]
 501:Src/stm32h7xx_hal_msp.c ****     if (HAL_RCCEx_PeriphCLKConfig(&PeriphClkInitStruct) != HAL_OK)
 1266              		.loc 1 501 5 is_stmt 1 view .LVU377
 502:Src/stm32h7xx_hal_msp.c ****     {
 1267              		.loc 1 502 5 view .LVU378
 502:Src/stm32h7xx_hal_msp.c ****     {
 1268              		.loc 1 502 9 is_stmt 0 view .LVU379
 1269 002e 02A8     		add	r0, sp, #8
 1270 0030 FFF7FEFF 		bl	HAL_RCCEx_PeriphCLKConfig
 1271              	.LVL63:
 502:Src/stm32h7xx_hal_msp.c ****     {
 1272              		.loc 1 502 8 view .LVU380
 1273 0034 38BB     		cbnz	r0, .L71
 1274              	.L68:
 508:Src/stm32h7xx_hal_msp.c **** 
 1275              		.loc 1 508 5 is_stmt 1 view .LVU381
 1276              	.LBB19:
 508:Src/stm32h7xx_hal_msp.c **** 
 1277              		.loc 1 508 5 view .LVU382
 508:Src/stm32h7xx_hal_msp.c **** 
 1278              		.loc 1 508 5 view .LVU383
 1279 0036 164B     		ldr	r3, .L72+4
 1280 0038 D3F8E820 		ldr	r2, [r3, #232]
 1281 003c 42F48022 		orr	r2, r2, #262144
 1282 0040 C3F8E820 		str	r2, [r3, #232]
 508:Src/stm32h7xx_hal_msp.c **** 
 1283              		.loc 1 508 5 view .LVU384
 1284 0044 D3F8E820 		ldr	r2, [r3, #232]
 1285 0048 02F48022 		and	r2, r2, #262144
 1286 004c 0092     		str	r2, [sp]
 508:Src/stm32h7xx_hal_msp.c **** 
 1287              		.loc 1 508 5 view .LVU385
 1288 004e 009A     		ldr	r2, [sp]
 1289              	.LBE19:
 508:Src/stm32h7xx_hal_msp.c **** 
 1290              		.loc 1 508 5 view .LVU386
 510:Src/stm32h7xx_hal_msp.c ****     /**USART3 GPIO Configuration
 1291              		.loc 1 510 5 view .LVU387
 1292              	.LBB20:
 510:Src/stm32h7xx_hal_msp.c ****     /**USART3 GPIO Configuration
 1293              		.loc 1 510 5 view .LVU388
 510:Src/stm32h7xx_hal_msp.c ****     /**USART3 GPIO Configuration
 1294              		.loc 1 510 5 view .LVU389
 1295 0050 D3F8E020 		ldr	r2, [r3, #224]
 1296 0054 42F00802 		orr	r2, r2, #8
 1297 0058 C3F8E020 		str	r2, [r3, #224]
 510:Src/stm32h7xx_hal_msp.c ****     /**USART3 GPIO Configuration
 1298              		.loc 1 510 5 view .LVU390
 1299 005c D3F8E030 		ldr	r3, [r3, #224]
 1300 0060 03F00803 		and	r3, r3, #8
 1301 0064 0193     		str	r3, [sp, #4]
 510:Src/stm32h7xx_hal_msp.c ****     /**USART3 GPIO Configuration
 1302              		.loc 1 510 5 view .LVU391
 1303 0066 019B     		ldr	r3, [sp, #4]
 1304              	.LBE20:
 510:Src/stm32h7xx_hal_msp.c ****     /**USART3 GPIO Configuration
 1305              		.loc 1 510 5 view .LVU392
ARM GAS  C:\Users\theto\AppData\Local\Temp\ccMwxIgN.s 			page 38


 515:Src/stm32h7xx_hal_msp.c ****     GPIO_InitStruct.Mode = GPIO_MODE_AF_PP;
 1306              		.loc 1 515 5 view .LVU393
 515:Src/stm32h7xx_hal_msp.c ****     GPIO_InitStruct.Mode = GPIO_MODE_AF_PP;
 1307              		.loc 1 515 25 is_stmt 0 view .LVU394
 1308 0068 4FF44073 		mov	r3, #768
 1309 006c 3393     		str	r3, [sp, #204]
 516:Src/stm32h7xx_hal_msp.c ****     GPIO_InitStruct.Pull = GPIO_NOPULL;
 1310              		.loc 1 516 5 is_stmt 1 view .LVU395
 516:Src/stm32h7xx_hal_msp.c ****     GPIO_InitStruct.Pull = GPIO_NOPULL;
 1311              		.loc 1 516 26 is_stmt 0 view .LVU396
 1312 006e 0223     		movs	r3, #2
 1313 0070 3493     		str	r3, [sp, #208]
 517:Src/stm32h7xx_hal_msp.c ****     GPIO_InitStruct.Speed = GPIO_SPEED_FREQ_LOW;
 1314              		.loc 1 517 5 is_stmt 1 view .LVU397
 517:Src/stm32h7xx_hal_msp.c ****     GPIO_InitStruct.Speed = GPIO_SPEED_FREQ_LOW;
 1315              		.loc 1 517 26 is_stmt 0 view .LVU398
 1316 0072 0023     		movs	r3, #0
 1317 0074 3593     		str	r3, [sp, #212]
 518:Src/stm32h7xx_hal_msp.c ****     GPIO_InitStruct.Alternate = GPIO_AF7_USART3;
 1318              		.loc 1 518 5 is_stmt 1 view .LVU399
 518:Src/stm32h7xx_hal_msp.c ****     GPIO_InitStruct.Alternate = GPIO_AF7_USART3;
 1319              		.loc 1 518 27 is_stmt 0 view .LVU400
 1320 0076 3693     		str	r3, [sp, #216]
 519:Src/stm32h7xx_hal_msp.c ****     HAL_GPIO_Init(GPIOD, &GPIO_InitStruct);
 1321              		.loc 1 519 5 is_stmt 1 view .LVU401
 519:Src/stm32h7xx_hal_msp.c ****     HAL_GPIO_Init(GPIOD, &GPIO_InitStruct);
 1322              		.loc 1 519 31 is_stmt 0 view .LVU402
 1323 0078 0723     		movs	r3, #7
 1324 007a 3793     		str	r3, [sp, #220]
 520:Src/stm32h7xx_hal_msp.c **** 
 1325              		.loc 1 520 5 is_stmt 1 view .LVU403
 1326 007c 33A9     		add	r1, sp, #204
 1327 007e 0548     		ldr	r0, .L72+8
 1328 0080 FFF7FEFF 		bl	HAL_GPIO_Init
 1329              	.LVL64:
 1330              		.loc 1 527 1 is_stmt 0 view .LVU404
 1331 0084 CDE7     		b	.L66
 1332              	.L71:
 504:Src/stm32h7xx_hal_msp.c ****     }
 1333              		.loc 1 504 7 is_stmt 1 view .LVU405
 1334 0086 FFF7FEFF 		bl	Error_Handler
 1335              	.LVL65:
 1336 008a D4E7     		b	.L68
 1337              	.L73:
 1338              		.align	2
 1339              	.L72:
 1340 008c 00480040 		.word	1073760256
 1341 0090 00440258 		.word	1476543488
 1342 0094 000C0258 		.word	1476529152
 1343              		.cfi_endproc
 1344              	.LFE153:
 1346              		.section	.text.HAL_UART_MspDeInit,"ax",%progbits
 1347              		.align	1
 1348              		.global	HAL_UART_MspDeInit
 1349              		.syntax unified
 1350              		.thumb
 1351              		.thumb_func
ARM GAS  C:\Users\theto\AppData\Local\Temp\ccMwxIgN.s 			page 39


 1353              	HAL_UART_MspDeInit:
 1354              	.LVL66:
 1355              	.LFB154:
 528:Src/stm32h7xx_hal_msp.c **** 
 529:Src/stm32h7xx_hal_msp.c **** /**
 530:Src/stm32h7xx_hal_msp.c **** * @brief UART MSP De-Initialization
 531:Src/stm32h7xx_hal_msp.c **** * This function freeze the hardware resources used in this example
 532:Src/stm32h7xx_hal_msp.c **** * @param huart: UART handle pointer
 533:Src/stm32h7xx_hal_msp.c **** * @retval None
 534:Src/stm32h7xx_hal_msp.c **** */
 535:Src/stm32h7xx_hal_msp.c **** void HAL_UART_MspDeInit(UART_HandleTypeDef* huart)
 536:Src/stm32h7xx_hal_msp.c **** {
 1356              		.loc 1 536 1 view -0
 1357              		.cfi_startproc
 1358              		@ args = 0, pretend = 0, frame = 0
 1359              		@ frame_needed = 0, uses_anonymous_args = 0
 1360              		.loc 1 536 1 is_stmt 0 view .LVU407
 1361 0000 08B5     		push	{r3, lr}
 1362              	.LCFI25:
 1363              		.cfi_def_cfa_offset 8
 1364              		.cfi_offset 3, -8
 1365              		.cfi_offset 14, -4
 537:Src/stm32h7xx_hal_msp.c ****   if(huart->Instance==USART3)
 1366              		.loc 1 537 3 is_stmt 1 view .LVU408
 1367              		.loc 1 537 11 is_stmt 0 view .LVU409
 1368 0002 0268     		ldr	r2, [r0]
 1369              		.loc 1 537 5 view .LVU410
 1370 0004 084B     		ldr	r3, .L78
 1371 0006 9A42     		cmp	r2, r3
 1372 0008 00D0     		beq	.L77
 1373              	.LVL67:
 1374              	.L74:
 538:Src/stm32h7xx_hal_msp.c ****   {
 539:Src/stm32h7xx_hal_msp.c ****   /* USER CODE BEGIN USART3_MspDeInit 0 */
 540:Src/stm32h7xx_hal_msp.c **** 
 541:Src/stm32h7xx_hal_msp.c ****   /* USER CODE END USART3_MspDeInit 0 */
 542:Src/stm32h7xx_hal_msp.c ****     /* Peripheral clock disable */
 543:Src/stm32h7xx_hal_msp.c ****     __HAL_RCC_USART3_CLK_DISABLE();
 544:Src/stm32h7xx_hal_msp.c **** 
 545:Src/stm32h7xx_hal_msp.c ****     /**USART3 GPIO Configuration
 546:Src/stm32h7xx_hal_msp.c ****     PD8     ------> USART3_TX
 547:Src/stm32h7xx_hal_msp.c ****     PD9     ------> USART3_RX
 548:Src/stm32h7xx_hal_msp.c ****     */
 549:Src/stm32h7xx_hal_msp.c ****     HAL_GPIO_DeInit(GPIOD, STLINK_RX_Pin|STLINK_TX_Pin);
 550:Src/stm32h7xx_hal_msp.c **** 
 551:Src/stm32h7xx_hal_msp.c ****   /* USER CODE BEGIN USART3_MspDeInit 1 */
 552:Src/stm32h7xx_hal_msp.c **** 
 553:Src/stm32h7xx_hal_msp.c ****   /* USER CODE END USART3_MspDeInit 1 */
 554:Src/stm32h7xx_hal_msp.c ****   }
 555:Src/stm32h7xx_hal_msp.c **** 
 556:Src/stm32h7xx_hal_msp.c **** }
 1375              		.loc 1 556 1 view .LVU411
 1376 000a 08BD     		pop	{r3, pc}
 1377              	.LVL68:
 1378              	.L77:
 543:Src/stm32h7xx_hal_msp.c **** 
 1379              		.loc 1 543 5 is_stmt 1 view .LVU412
ARM GAS  C:\Users\theto\AppData\Local\Temp\ccMwxIgN.s 			page 40


 1380 000c 074A     		ldr	r2, .L78+4
 1381 000e D2F8E830 		ldr	r3, [r2, #232]
 1382 0012 23F48023 		bic	r3, r3, #262144
 1383 0016 C2F8E830 		str	r3, [r2, #232]
 549:Src/stm32h7xx_hal_msp.c **** 
 1384              		.loc 1 549 5 view .LVU413
 1385 001a 4FF44071 		mov	r1, #768
 1386 001e 0448     		ldr	r0, .L78+8
 1387              	.LVL69:
 549:Src/stm32h7xx_hal_msp.c **** 
 1388              		.loc 1 549 5 is_stmt 0 view .LVU414
 1389 0020 FFF7FEFF 		bl	HAL_GPIO_DeInit
 1390              	.LVL70:
 1391              		.loc 1 556 1 view .LVU415
 1392 0024 F1E7     		b	.L74
 1393              	.L79:
 1394 0026 00BF     		.align	2
 1395              	.L78:
 1396 0028 00480040 		.word	1073760256
 1397 002c 00440258 		.word	1476543488
 1398 0030 000C0258 		.word	1476529152
 1399              		.cfi_endproc
 1400              	.LFE154:
 1402              		.section	.text.HAL_PCD_MspInit,"ax",%progbits
 1403              		.align	1
 1404              		.global	HAL_PCD_MspInit
 1405              		.syntax unified
 1406              		.thumb
 1407              		.thumb_func
 1409              	HAL_PCD_MspInit:
 1410              	.LVL71:
 1411              	.LFB155:
 557:Src/stm32h7xx_hal_msp.c **** 
 558:Src/stm32h7xx_hal_msp.c **** /**
 559:Src/stm32h7xx_hal_msp.c **** * @brief PCD MSP Initialization
 560:Src/stm32h7xx_hal_msp.c **** * This function configures the hardware resources used in this example
 561:Src/stm32h7xx_hal_msp.c **** * @param hpcd: PCD handle pointer
 562:Src/stm32h7xx_hal_msp.c **** * @retval None
 563:Src/stm32h7xx_hal_msp.c **** */
 564:Src/stm32h7xx_hal_msp.c **** void HAL_PCD_MspInit(PCD_HandleTypeDef* hpcd)
 565:Src/stm32h7xx_hal_msp.c **** {
 1412              		.loc 1 565 1 is_stmt 1 view -0
 1413              		.cfi_startproc
 1414              		@ args = 0, pretend = 0, frame = 224
 1415              		@ frame_needed = 0, uses_anonymous_args = 0
 1416              		.loc 1 565 1 is_stmt 0 view .LVU417
 1417 0000 70B5     		push	{r4, r5, r6, lr}
 1418              	.LCFI26:
 1419              		.cfi_def_cfa_offset 16
 1420              		.cfi_offset 4, -16
 1421              		.cfi_offset 5, -12
 1422              		.cfi_offset 6, -8
 1423              		.cfi_offset 14, -4
 1424 0002 B8B0     		sub	sp, sp, #224
 1425              	.LCFI27:
 1426              		.cfi_def_cfa_offset 240
 1427 0004 0446     		mov	r4, r0
ARM GAS  C:\Users\theto\AppData\Local\Temp\ccMwxIgN.s 			page 41


 566:Src/stm32h7xx_hal_msp.c ****   GPIO_InitTypeDef GPIO_InitStruct = {0};
 1428              		.loc 1 566 3 is_stmt 1 view .LVU418
 1429              		.loc 1 566 20 is_stmt 0 view .LVU419
 1430 0006 0021     		movs	r1, #0
 1431 0008 3391     		str	r1, [sp, #204]
 1432 000a 3491     		str	r1, [sp, #208]
 1433 000c 3591     		str	r1, [sp, #212]
 1434 000e 3691     		str	r1, [sp, #216]
 1435 0010 3791     		str	r1, [sp, #220]
 567:Src/stm32h7xx_hal_msp.c ****   RCC_PeriphCLKInitTypeDef PeriphClkInitStruct = {0};
 1436              		.loc 1 567 3 is_stmt 1 view .LVU420
 1437              		.loc 1 567 28 is_stmt 0 view .LVU421
 1438 0012 C022     		movs	r2, #192
 1439 0014 02A8     		add	r0, sp, #8
 1440              	.LVL72:
 1441              		.loc 1 567 28 view .LVU422
 1442 0016 FFF7FEFF 		bl	memset
 1443              	.LVL73:
 568:Src/stm32h7xx_hal_msp.c ****   if(hpcd->Instance==USB_OTG_FS)
 1444              		.loc 1 568 3 is_stmt 1 view .LVU423
 1445              		.loc 1 568 10 is_stmt 0 view .LVU424
 1446 001a 2268     		ldr	r2, [r4]
 1447              		.loc 1 568 5 view .LVU425
 1448 001c 244B     		ldr	r3, .L86
 1449 001e 9A42     		cmp	r2, r3
 1450 0020 01D0     		beq	.L84
 1451              	.LVL74:
 1452              	.L80:
 569:Src/stm32h7xx_hal_msp.c ****   {
 570:Src/stm32h7xx_hal_msp.c ****   /* USER CODE BEGIN USB_OTG_FS_MspInit 0 */
 571:Src/stm32h7xx_hal_msp.c **** 
 572:Src/stm32h7xx_hal_msp.c ****   /* USER CODE END USB_OTG_FS_MspInit 0 */
 573:Src/stm32h7xx_hal_msp.c **** 
 574:Src/stm32h7xx_hal_msp.c ****   /** Initializes the peripherals clock
 575:Src/stm32h7xx_hal_msp.c ****   */
 576:Src/stm32h7xx_hal_msp.c ****     PeriphClkInitStruct.PeriphClockSelection = RCC_PERIPHCLK_USB;
 577:Src/stm32h7xx_hal_msp.c ****     PeriphClkInitStruct.UsbClockSelection = RCC_USBCLKSOURCE_PLL;
 578:Src/stm32h7xx_hal_msp.c ****     if (HAL_RCCEx_PeriphCLKConfig(&PeriphClkInitStruct) != HAL_OK)
 579:Src/stm32h7xx_hal_msp.c ****     {
 580:Src/stm32h7xx_hal_msp.c ****       Error_Handler();
 581:Src/stm32h7xx_hal_msp.c ****     }
 582:Src/stm32h7xx_hal_msp.c **** 
 583:Src/stm32h7xx_hal_msp.c ****   /** Enable USB Voltage detector
 584:Src/stm32h7xx_hal_msp.c ****   */
 585:Src/stm32h7xx_hal_msp.c ****     HAL_PWREx_EnableUSBVoltageDetector();
 586:Src/stm32h7xx_hal_msp.c **** 
 587:Src/stm32h7xx_hal_msp.c ****     __HAL_RCC_GPIOA_CLK_ENABLE();
 588:Src/stm32h7xx_hal_msp.c ****     /**USB_OTG_FS GPIO Configuration
 589:Src/stm32h7xx_hal_msp.c ****     PA8     ------> USB_OTG_FS_SOF
 590:Src/stm32h7xx_hal_msp.c ****     PA9     ------> USB_OTG_FS_VBUS
 591:Src/stm32h7xx_hal_msp.c ****     PA11     ------> USB_OTG_FS_DM
 592:Src/stm32h7xx_hal_msp.c ****     PA12     ------> USB_OTG_FS_DP
 593:Src/stm32h7xx_hal_msp.c ****     */
 594:Src/stm32h7xx_hal_msp.c ****     GPIO_InitStruct.Pin = GPIO_PIN_8|GPIO_PIN_11|GPIO_PIN_12;
 595:Src/stm32h7xx_hal_msp.c ****     GPIO_InitStruct.Mode = GPIO_MODE_AF_PP;
 596:Src/stm32h7xx_hal_msp.c ****     GPIO_InitStruct.Pull = GPIO_NOPULL;
 597:Src/stm32h7xx_hal_msp.c ****     GPIO_InitStruct.Speed = GPIO_SPEED_FREQ_LOW;
ARM GAS  C:\Users\theto\AppData\Local\Temp\ccMwxIgN.s 			page 42


 598:Src/stm32h7xx_hal_msp.c ****     GPIO_InitStruct.Alternate = GPIO_AF10_OTG1_FS;
 599:Src/stm32h7xx_hal_msp.c ****     HAL_GPIO_Init(GPIOA, &GPIO_InitStruct);
 600:Src/stm32h7xx_hal_msp.c **** 
 601:Src/stm32h7xx_hal_msp.c ****     GPIO_InitStruct.Pin = GPIO_PIN_9;
 602:Src/stm32h7xx_hal_msp.c ****     GPIO_InitStruct.Mode = GPIO_MODE_INPUT;
 603:Src/stm32h7xx_hal_msp.c ****     GPIO_InitStruct.Pull = GPIO_NOPULL;
 604:Src/stm32h7xx_hal_msp.c ****     HAL_GPIO_Init(GPIOA, &GPIO_InitStruct);
 605:Src/stm32h7xx_hal_msp.c **** 
 606:Src/stm32h7xx_hal_msp.c ****     /* Peripheral clock enable */
 607:Src/stm32h7xx_hal_msp.c ****     __HAL_RCC_USB_OTG_FS_CLK_ENABLE();
 608:Src/stm32h7xx_hal_msp.c ****   /* USER CODE BEGIN USB_OTG_FS_MspInit 1 */
 609:Src/stm32h7xx_hal_msp.c **** 
 610:Src/stm32h7xx_hal_msp.c ****   /* USER CODE END USB_OTG_FS_MspInit 1 */
 611:Src/stm32h7xx_hal_msp.c ****   }
 612:Src/stm32h7xx_hal_msp.c **** 
 613:Src/stm32h7xx_hal_msp.c **** }
 1453              		.loc 1 613 1 view .LVU426
 1454 0022 38B0     		add	sp, sp, #224
 1455              	.LCFI28:
 1456              		.cfi_remember_state
 1457              		.cfi_def_cfa_offset 16
 1458              		@ sp needed
 1459 0024 70BD     		pop	{r4, r5, r6, pc}
 1460              	.LVL75:
 1461              	.L84:
 1462              	.LCFI29:
 1463              		.cfi_restore_state
 576:Src/stm32h7xx_hal_msp.c ****     PeriphClkInitStruct.UsbClockSelection = RCC_USBCLKSOURCE_PLL;
 1464              		.loc 1 576 5 is_stmt 1 view .LVU427
 576:Src/stm32h7xx_hal_msp.c ****     PeriphClkInitStruct.UsbClockSelection = RCC_USBCLKSOURCE_PLL;
 1465              		.loc 1 576 46 is_stmt 0 view .LVU428
 1466 0026 4FF48022 		mov	r2, #262144
 1467 002a 0023     		movs	r3, #0
 1468 002c CDE90223 		strd	r2, [sp, #8]
 577:Src/stm32h7xx_hal_msp.c ****     if (HAL_RCCEx_PeriphCLKConfig(&PeriphClkInitStruct) != HAL_OK)
 1469              		.loc 1 577 5 is_stmt 1 view .LVU429
 577:Src/stm32h7xx_hal_msp.c ****     if (HAL_RCCEx_PeriphCLKConfig(&PeriphClkInitStruct) != HAL_OK)
 1470              		.loc 1 577 43 is_stmt 0 view .LVU430
 1471 0030 4FF48013 		mov	r3, #1048576
 1472 0034 2493     		str	r3, [sp, #144]
 578:Src/stm32h7xx_hal_msp.c ****     {
 1473              		.loc 1 578 5 is_stmt 1 view .LVU431
 578:Src/stm32h7xx_hal_msp.c ****     {
 1474              		.loc 1 578 9 is_stmt 0 view .LVU432
 1475 0036 02A8     		add	r0, sp, #8
 1476 0038 FFF7FEFF 		bl	HAL_RCCEx_PeriphCLKConfig
 1477              	.LVL76:
 578:Src/stm32h7xx_hal_msp.c ****     {
 1478              		.loc 1 578 8 view .LVU433
 1479 003c 0028     		cmp	r0, #0
 1480 003e 33D1     		bne	.L85
 1481              	.L82:
 585:Src/stm32h7xx_hal_msp.c **** 
 1482              		.loc 1 585 5 is_stmt 1 view .LVU434
 1483 0040 FFF7FEFF 		bl	HAL_PWREx_EnableUSBVoltageDetector
 1484              	.LVL77:
 587:Src/stm32h7xx_hal_msp.c ****     /**USB_OTG_FS GPIO Configuration
ARM GAS  C:\Users\theto\AppData\Local\Temp\ccMwxIgN.s 			page 43


 1485              		.loc 1 587 5 view .LVU435
 1486              	.LBB21:
 587:Src/stm32h7xx_hal_msp.c ****     /**USB_OTG_FS GPIO Configuration
 1487              		.loc 1 587 5 view .LVU436
 587:Src/stm32h7xx_hal_msp.c ****     /**USB_OTG_FS GPIO Configuration
 1488              		.loc 1 587 5 view .LVU437
 1489 0044 1B4C     		ldr	r4, .L86+4
 1490              	.LVL78:
 587:Src/stm32h7xx_hal_msp.c ****     /**USB_OTG_FS GPIO Configuration
 1491              		.loc 1 587 5 is_stmt 0 view .LVU438
 1492 0046 D4F8E030 		ldr	r3, [r4, #224]
 1493 004a 43F00103 		orr	r3, r3, #1
 1494 004e C4F8E030 		str	r3, [r4, #224]
 587:Src/stm32h7xx_hal_msp.c ****     /**USB_OTG_FS GPIO Configuration
 1495              		.loc 1 587 5 is_stmt 1 view .LVU439
 1496 0052 D4F8E030 		ldr	r3, [r4, #224]
 1497 0056 03F00103 		and	r3, r3, #1
 1498 005a 0093     		str	r3, [sp]
 587:Src/stm32h7xx_hal_msp.c ****     /**USB_OTG_FS GPIO Configuration
 1499              		.loc 1 587 5 view .LVU440
 1500 005c 009B     		ldr	r3, [sp]
 1501              	.LBE21:
 587:Src/stm32h7xx_hal_msp.c ****     /**USB_OTG_FS GPIO Configuration
 1502              		.loc 1 587 5 view .LVU441
 594:Src/stm32h7xx_hal_msp.c ****     GPIO_InitStruct.Mode = GPIO_MODE_AF_PP;
 1503              		.loc 1 594 5 view .LVU442
 594:Src/stm32h7xx_hal_msp.c ****     GPIO_InitStruct.Mode = GPIO_MODE_AF_PP;
 1504              		.loc 1 594 25 is_stmt 0 view .LVU443
 1505 005e 4FF4C853 		mov	r3, #6400
 1506 0062 3393     		str	r3, [sp, #204]
 595:Src/stm32h7xx_hal_msp.c ****     GPIO_InitStruct.Pull = GPIO_NOPULL;
 1507              		.loc 1 595 5 is_stmt 1 view .LVU444
 595:Src/stm32h7xx_hal_msp.c ****     GPIO_InitStruct.Pull = GPIO_NOPULL;
 1508              		.loc 1 595 26 is_stmt 0 view .LVU445
 1509 0064 0223     		movs	r3, #2
 1510 0066 3493     		str	r3, [sp, #208]
 596:Src/stm32h7xx_hal_msp.c ****     GPIO_InitStruct.Speed = GPIO_SPEED_FREQ_LOW;
 1511              		.loc 1 596 5 is_stmt 1 view .LVU446
 596:Src/stm32h7xx_hal_msp.c ****     GPIO_InitStruct.Speed = GPIO_SPEED_FREQ_LOW;
 1512              		.loc 1 596 26 is_stmt 0 view .LVU447
 1513 0068 0025     		movs	r5, #0
 1514 006a 3595     		str	r5, [sp, #212]
 597:Src/stm32h7xx_hal_msp.c ****     GPIO_InitStruct.Alternate = GPIO_AF10_OTG1_FS;
 1515              		.loc 1 597 5 is_stmt 1 view .LVU448
 597:Src/stm32h7xx_hal_msp.c ****     GPIO_InitStruct.Alternate = GPIO_AF10_OTG1_FS;
 1516              		.loc 1 597 27 is_stmt 0 view .LVU449
 1517 006c 3695     		str	r5, [sp, #216]
 598:Src/stm32h7xx_hal_msp.c ****     HAL_GPIO_Init(GPIOA, &GPIO_InitStruct);
 1518              		.loc 1 598 5 is_stmt 1 view .LVU450
 598:Src/stm32h7xx_hal_msp.c ****     HAL_GPIO_Init(GPIOA, &GPIO_InitStruct);
 1519              		.loc 1 598 31 is_stmt 0 view .LVU451
 1520 006e 0A23     		movs	r3, #10
 1521 0070 3793     		str	r3, [sp, #220]
 599:Src/stm32h7xx_hal_msp.c **** 
 1522              		.loc 1 599 5 is_stmt 1 view .LVU452
 1523 0072 114E     		ldr	r6, .L86+8
 1524 0074 33A9     		add	r1, sp, #204
ARM GAS  C:\Users\theto\AppData\Local\Temp\ccMwxIgN.s 			page 44


 1525 0076 3046     		mov	r0, r6
 1526 0078 FFF7FEFF 		bl	HAL_GPIO_Init
 1527              	.LVL79:
 601:Src/stm32h7xx_hal_msp.c ****     GPIO_InitStruct.Mode = GPIO_MODE_INPUT;
 1528              		.loc 1 601 5 view .LVU453
 601:Src/stm32h7xx_hal_msp.c ****     GPIO_InitStruct.Mode = GPIO_MODE_INPUT;
 1529              		.loc 1 601 25 is_stmt 0 view .LVU454
 1530 007c 4FF40073 		mov	r3, #512
 1531 0080 3393     		str	r3, [sp, #204]
 602:Src/stm32h7xx_hal_msp.c ****     GPIO_InitStruct.Pull = GPIO_NOPULL;
 1532              		.loc 1 602 5 is_stmt 1 view .LVU455
 602:Src/stm32h7xx_hal_msp.c ****     GPIO_InitStruct.Pull = GPIO_NOPULL;
 1533              		.loc 1 602 26 is_stmt 0 view .LVU456
 1534 0082 3495     		str	r5, [sp, #208]
 603:Src/stm32h7xx_hal_msp.c ****     HAL_GPIO_Init(GPIOA, &GPIO_InitStruct);
 1535              		.loc 1 603 5 is_stmt 1 view .LVU457
 603:Src/stm32h7xx_hal_msp.c ****     HAL_GPIO_Init(GPIOA, &GPIO_InitStruct);
 1536              		.loc 1 603 26 is_stmt 0 view .LVU458
 1537 0084 3595     		str	r5, [sp, #212]
 604:Src/stm32h7xx_hal_msp.c **** 
 1538              		.loc 1 604 5 is_stmt 1 view .LVU459
 1539 0086 33A9     		add	r1, sp, #204
 1540 0088 3046     		mov	r0, r6
 1541 008a FFF7FEFF 		bl	HAL_GPIO_Init
 1542              	.LVL80:
 607:Src/stm32h7xx_hal_msp.c ****   /* USER CODE BEGIN USB_OTG_FS_MspInit 1 */
 1543              		.loc 1 607 5 view .LVU460
 1544              	.LBB22:
 607:Src/stm32h7xx_hal_msp.c ****   /* USER CODE BEGIN USB_OTG_FS_MspInit 1 */
 1545              		.loc 1 607 5 view .LVU461
 607:Src/stm32h7xx_hal_msp.c ****   /* USER CODE BEGIN USB_OTG_FS_MspInit 1 */
 1546              		.loc 1 607 5 view .LVU462
 1547 008e D4F8D830 		ldr	r3, [r4, #216]
 1548 0092 43F00063 		orr	r3, r3, #134217728
 1549 0096 C4F8D830 		str	r3, [r4, #216]
 607:Src/stm32h7xx_hal_msp.c ****   /* USER CODE BEGIN USB_OTG_FS_MspInit 1 */
 1550              		.loc 1 607 5 view .LVU463
 1551 009a D4F8D830 		ldr	r3, [r4, #216]
 1552 009e 03F00063 		and	r3, r3, #134217728
 1553 00a2 0193     		str	r3, [sp, #4]
 607:Src/stm32h7xx_hal_msp.c ****   /* USER CODE BEGIN USB_OTG_FS_MspInit 1 */
 1554              		.loc 1 607 5 view .LVU464
 1555 00a4 019B     		ldr	r3, [sp, #4]
 1556              	.LBE22:
 607:Src/stm32h7xx_hal_msp.c ****   /* USER CODE BEGIN USB_OTG_FS_MspInit 1 */
 1557              		.loc 1 607 5 view .LVU465
 1558              		.loc 1 613 1 is_stmt 0 view .LVU466
 1559 00a6 BCE7     		b	.L80
 1560              	.LVL81:
 1561              	.L85:
 580:Src/stm32h7xx_hal_msp.c ****     }
 1562              		.loc 1 580 7 is_stmt 1 view .LVU467
 1563 00a8 FFF7FEFF 		bl	Error_Handler
 1564              	.LVL82:
 1565 00ac C8E7     		b	.L82
 1566              	.L87:
 1567 00ae 00BF     		.align	2
ARM GAS  C:\Users\theto\AppData\Local\Temp\ccMwxIgN.s 			page 45


 1568              	.L86:
 1569 00b0 00000840 		.word	1074266112
 1570 00b4 00440258 		.word	1476543488
 1571 00b8 00000258 		.word	1476526080
 1572              		.cfi_endproc
 1573              	.LFE155:
 1575              		.section	.text.HAL_PCD_MspDeInit,"ax",%progbits
 1576              		.align	1
 1577              		.global	HAL_PCD_MspDeInit
 1578              		.syntax unified
 1579              		.thumb
 1580              		.thumb_func
 1582              	HAL_PCD_MspDeInit:
 1583              	.LVL83:
 1584              	.LFB156:
 614:Src/stm32h7xx_hal_msp.c **** 
 615:Src/stm32h7xx_hal_msp.c **** /**
 616:Src/stm32h7xx_hal_msp.c **** * @brief PCD MSP De-Initialization
 617:Src/stm32h7xx_hal_msp.c **** * This function freeze the hardware resources used in this example
 618:Src/stm32h7xx_hal_msp.c **** * @param hpcd: PCD handle pointer
 619:Src/stm32h7xx_hal_msp.c **** * @retval None
 620:Src/stm32h7xx_hal_msp.c **** */
 621:Src/stm32h7xx_hal_msp.c **** void HAL_PCD_MspDeInit(PCD_HandleTypeDef* hpcd)
 622:Src/stm32h7xx_hal_msp.c **** {
 1585              		.loc 1 622 1 view -0
 1586              		.cfi_startproc
 1587              		@ args = 0, pretend = 0, frame = 0
 1588              		@ frame_needed = 0, uses_anonymous_args = 0
 1589              		.loc 1 622 1 is_stmt 0 view .LVU469
 1590 0000 08B5     		push	{r3, lr}
 1591              	.LCFI30:
 1592              		.cfi_def_cfa_offset 8
 1593              		.cfi_offset 3, -8
 1594              		.cfi_offset 14, -4
 623:Src/stm32h7xx_hal_msp.c ****   if(hpcd->Instance==USB_OTG_FS)
 1595              		.loc 1 623 3 is_stmt 1 view .LVU470
 1596              		.loc 1 623 10 is_stmt 0 view .LVU471
 1597 0002 0268     		ldr	r2, [r0]
 1598              		.loc 1 623 5 view .LVU472
 1599 0004 084B     		ldr	r3, .L92
 1600 0006 9A42     		cmp	r2, r3
 1601 0008 00D0     		beq	.L91
 1602              	.LVL84:
 1603              	.L88:
 624:Src/stm32h7xx_hal_msp.c ****   {
 625:Src/stm32h7xx_hal_msp.c ****   /* USER CODE BEGIN USB_OTG_FS_MspDeInit 0 */
 626:Src/stm32h7xx_hal_msp.c **** 
 627:Src/stm32h7xx_hal_msp.c ****   /* USER CODE END USB_OTG_FS_MspDeInit 0 */
 628:Src/stm32h7xx_hal_msp.c ****     /* Peripheral clock disable */
 629:Src/stm32h7xx_hal_msp.c ****     __HAL_RCC_USB_OTG_FS_CLK_DISABLE();
 630:Src/stm32h7xx_hal_msp.c **** 
 631:Src/stm32h7xx_hal_msp.c ****     /**USB_OTG_FS GPIO Configuration
 632:Src/stm32h7xx_hal_msp.c ****     PA8     ------> USB_OTG_FS_SOF
 633:Src/stm32h7xx_hal_msp.c ****     PA9     ------> USB_OTG_FS_VBUS
 634:Src/stm32h7xx_hal_msp.c ****     PA11     ------> USB_OTG_FS_DM
 635:Src/stm32h7xx_hal_msp.c ****     PA12     ------> USB_OTG_FS_DP
 636:Src/stm32h7xx_hal_msp.c ****     */
ARM GAS  C:\Users\theto\AppData\Local\Temp\ccMwxIgN.s 			page 46


 637:Src/stm32h7xx_hal_msp.c ****     HAL_GPIO_DeInit(GPIOA, GPIO_PIN_8|GPIO_PIN_9|GPIO_PIN_11|GPIO_PIN_12);
 638:Src/stm32h7xx_hal_msp.c **** 
 639:Src/stm32h7xx_hal_msp.c ****   /* USER CODE BEGIN USB_OTG_FS_MspDeInit 1 */
 640:Src/stm32h7xx_hal_msp.c **** 
 641:Src/stm32h7xx_hal_msp.c ****   /* USER CODE END USB_OTG_FS_MspDeInit 1 */
 642:Src/stm32h7xx_hal_msp.c ****   }
 643:Src/stm32h7xx_hal_msp.c **** 
 644:Src/stm32h7xx_hal_msp.c **** }
 1604              		.loc 1 644 1 view .LVU473
 1605 000a 08BD     		pop	{r3, pc}
 1606              	.LVL85:
 1607              	.L91:
 629:Src/stm32h7xx_hal_msp.c **** 
 1608              		.loc 1 629 5 is_stmt 1 view .LVU474
 1609 000c 074A     		ldr	r2, .L92+4
 1610 000e D2F8D830 		ldr	r3, [r2, #216]
 1611 0012 23F00063 		bic	r3, r3, #134217728
 1612 0016 C2F8D830 		str	r3, [r2, #216]
 637:Src/stm32h7xx_hal_msp.c **** 
 1613              		.loc 1 637 5 view .LVU475
 1614 001a 4FF4D851 		mov	r1, #6912
 1615 001e 0448     		ldr	r0, .L92+8
 1616              	.LVL86:
 637:Src/stm32h7xx_hal_msp.c **** 
 1617              		.loc 1 637 5 is_stmt 0 view .LVU476
 1618 0020 FFF7FEFF 		bl	HAL_GPIO_DeInit
 1619              	.LVL87:
 1620              		.loc 1 644 1 view .LVU477
 1621 0024 F1E7     		b	.L88
 1622              	.L93:
 1623 0026 00BF     		.align	2
 1624              	.L92:
 1625 0028 00000840 		.word	1074266112
 1626 002c 00440258 		.word	1476543488
 1627 0030 00000258 		.word	1476526080
 1628              		.cfi_endproc
 1629              	.LFE156:
 1631              		.text
 1632              	.Letext0:
 1633              		.file 2 "d:\\l\\program\\gcc-arm-none-eabi-10.3\\arm-none-eabi\\include\\machine\\_default_types.h
 1634              		.file 3 "d:\\l\\program\\gcc-arm-none-eabi-10.3\\arm-none-eabi\\include\\sys\\_stdint.h"
 1635              		.file 4 "Drivers/CMSIS/Device/ST/STM32H7xx/Include/stm32h743xx.h"
 1636              		.file 5 "Drivers/CMSIS/Device/ST/STM32H7xx/Include/stm32h7xx.h"
 1637              		.file 6 "Drivers/STM32H7xx_HAL_Driver/Inc/stm32h7xx_hal_def.h"
 1638              		.file 7 "Drivers/STM32H7xx_HAL_Driver/Inc/stm32h7xx_hal_rcc_ex.h"
 1639              		.file 8 "Drivers/STM32H7xx_HAL_Driver/Inc/stm32h7xx_hal_gpio.h"
 1640              		.file 9 "Drivers/STM32H7xx_HAL_Driver/Inc/stm32h7xx_hal_dma.h"
 1641              		.file 10 "Drivers/STM32H7xx_HAL_Driver/Inc/stm32h7xx_hal_dma_ex.h"
 1642              		.file 11 "Drivers/STM32H7xx_HAL_Driver/Inc/stm32h7xx_hal_dcmi.h"
 1643              		.file 12 "Drivers/STM32H7xx_HAL_Driver/Inc/stm32h7xx_hal_eth.h"
 1644              		.file 13 "Drivers/STM32H7xx_HAL_Driver/Inc/stm32h7xx_hal_i2c.h"
 1645              		.file 14 "Drivers/STM32H7xx_HAL_Driver/Inc/stm32h7xx_hal_lptim.h"
 1646              		.file 15 "Drivers/STM32H7xx_HAL_Driver/Inc/stm32h7xx_hal_uart.h"
 1647              		.file 16 "Drivers/STM32H7xx_HAL_Driver/Inc/stm32h7xx_ll_usb.h"
 1648              		.file 17 "Drivers/STM32H7xx_HAL_Driver/Inc/stm32h7xx_hal_pcd.h"
 1649              		.file 18 "Drivers/STM32H7xx_HAL_Driver/Inc/stm32h7xx_hal_pwr_ex.h"
 1650              		.file 19 "Inc/main.h"
ARM GAS  C:\Users\theto\AppData\Local\Temp\ccMwxIgN.s 			page 47


 1651              		.file 20 "<built-in>"
ARM GAS  C:\Users\theto\AppData\Local\Temp\ccMwxIgN.s 			page 48

